
prog.o:     file format elf32-i386


Disassembly of section .text:

00010000 <_start>:
   10000:	fa                   	cli    
   10001:	b0 00                	mov    $0x0,%al
   10003:	e6 70                	out    %al,$0x70
   10005:	31 c0                	xor    %eax,%eax
   10007:	66 b8 18 00          	mov    $0x18,%ax
   1000b:	8e d8                	mov    %eax,%ds
   1000d:	8e c0                	mov    %eax,%es
   1000f:	8e e0                	mov    %eax,%fs
   10011:	8e e8                	mov    %eax,%gs
   10013:	66 b8 20 00          	mov    $0x20,%ax
   10017:	8e d0                	mov    %eax,%ss
   10019:	bd 00 00 01 00       	mov    $0x10000,%ebp
   1001e:	89 ec                	mov    %ebp,%esp
   10020:	bf f0 d6 01 00       	mov    $0x1d6f0,%edi

00010025 <clearbss>:
   10025:	c7 07 00 00 00 00    	movl   $0x0,(%edi)
   1002b:	83 c7 04             	add    $0x4,%edi
   1002e:	81 ff ac fc 01 00    	cmp    $0x1fcac,%edi
   10034:	72 ef                	jb     10025 <clearbss>
   10036:	e8 2c 26 00 00       	call   12667 <_kinit>
   1003b:	e9 2c 00 00 00       	jmp    1006c <__isr_restore>

00010040 <isr_save>:
   10040:	60                   	pusha  
   10041:	1e                   	push   %ds
   10042:	06                   	push   %es
   10043:	0f a0                	push   %fs
   10045:	0f a8                	push   %gs
   10047:	16                   	push   %ss
   10048:	8b 44 24 34          	mov    0x34(%esp),%eax
   1004c:	8b 5c 24 38          	mov    0x38(%esp),%ebx
   10050:	8b 15 94 fc 01 00    	mov    0x1fc94,%edx
   10056:	89 22                	mov    %esp,(%edx)
   10058:	8b 25 e4 fb 01 00    	mov    0x1fbe4,%esp
   1005e:	53                   	push   %ebx
   1005f:	50                   	push   %eax
   10060:	8b 1c 85 c0 f4 01 00 	mov    0x1f4c0(,%eax,4),%ebx
   10067:	ff d3                	call   *%ebx
   10069:	83 c4 08             	add    $0x8,%esp

0001006c <__isr_restore>:
   1006c:	8b 1d 94 fc 01 00    	mov    0x1fc94,%ebx
   10072:	8b 23                	mov    (%ebx),%esp
   10074:	31 c0                	xor    %eax,%eax
   10076:	66 8b 43 16          	mov    0x16(%ebx),%ax
   1007a:	50                   	push   %eax
   1007b:	66 8b 43 14          	mov    0x14(%ebx),%ax
   1007f:	50                   	push   %eax
   10080:	a1 c0 f8 01 00       	mov    0x1f8c0,%eax
   10085:	50                   	push   %eax
   10086:	68 a3 00 01 00       	push   $0x100a3
   1008b:	6a 01                	push   $0x1
   1008d:	6a 00                	push   $0x0
   1008f:	e8 9f 15 00 00       	call   11633 <__cio_printf_at>
   10094:	83 c4 18             	add    $0x18,%esp
   10097:	17                   	pop    %ss
   10098:	0f a9                	pop    %gs
   1009a:	0f a1                	pop    %fs
   1009c:	07                   	pop    %es
   1009d:	1f                   	pop    %ds
   1009e:	61                   	popa   
   1009f:	83 c4 08             	add    $0x8,%esp
   100a2:	cf                   	iret   

000100a3 <fmtall>:
   100a3:	74 69                	je     1010e <fmt+0x50>
   100a5:	6d                   	insl   (%dx),%es:(%edi)
   100a6:	65 20 25 30 38 78 20 	and    %ah,%gs:0x20783830
   100ad:	70 69                	jo     10118 <fmt+0x5a>
   100af:	64 20 25 35 64 20 70 	and    %ah,%fs:0x70206435
   100b6:	70 69                	jo     10121 <fmt+0x63>
   100b8:	64                   	fs
   100b9:	20                   	.byte 0x20
   100ba:	25                   	.byte 0x25
   100bb:	35                   	.byte 0x35
   100bc:	64                   	fs
   100bd:	0a                   	.byte 0xa

000100be <fmt>:
   100be:	20 73 73             	and    %dh,0x73(%ebx)
   100c1:	3d 25 30 38 78       	cmp    $0x78383025,%eax
   100c6:	20 20                	and    %ah,(%eax)
   100c8:	67 73 3d             	addr16 jae 10108 <fmt+0x4a>
   100cb:	25 30 38 78 20       	and    $0x20783830,%eax
   100d0:	20 66 73             	and    %ah,0x73(%esi)
   100d3:	3d 25 30 38 78       	cmp    $0x78383025,%eax
   100d8:	20 20                	and    %ah,(%eax)
   100da:	65 73 3d             	gs jae 1011a <fmt+0x5c>
   100dd:	25 30 38 78 20       	and    $0x20783830,%eax
   100e2:	20 64 73 3d          	and    %ah,0x3d(%ebx,%esi,2)
   100e6:	25 30 38 78 0a       	and    $0xa783830,%eax
   100eb:	65 64 69 3d 25 30 38 	gs imul $0x69736520,%fs:0x78383025,%edi
   100f2:	78 20 65 73 69 
   100f7:	3d 25 30 38 78       	cmp    $0x78383025,%eax
   100fc:	20 65 62             	and    %ah,0x62(%ebp)
   100ff:	70 3d                	jo     1013e <fmt+0x80>
   10101:	25 30 38 78 20       	and    $0x20783830,%eax
   10106:	65 73 70             	gs jae 10179 <__isr_0x02+0x6>
   10109:	3d 25 30 38 78       	cmp    $0x78383025,%eax
   1010e:	20 65 62             	and    %ah,0x62(%ebp)
   10111:	78 3d                	js     10150 <fmt+0x92>
   10113:	25 30 38 78 0a       	and    $0xa783830,%eax
   10118:	65 64 78 3d          	gs fs js 10159 <fmt+0x9b>
   1011c:	25 30 38 78 20       	and    $0x20783830,%eax
   10121:	65 63 78 3d          	arpl   %di,%gs:0x3d(%eax)
   10125:	25 30 38 78 20       	and    $0x20783830,%eax
   1012a:	65 61                	gs popa 
   1012c:	78 3d                	js     1016b <__isr_0x01+0x1>
   1012e:	25 30 38 78 20       	and    $0x20783830,%eax
   10133:	76 65                	jbe    1019a <__isr_0x06+0x3>
   10135:	63 3d 25 30 38 78    	arpl   %di,0x78383025
   1013b:	20 63 6f             	and    %ah,0x6f(%ebx)
   1013e:	64 3d 25 30 38 78    	fs cmp $0x78383025,%eax
   10144:	0a 65 69             	or     0x69(%ebp),%ah
   10147:	70 3d                	jo     10186 <__isr_0x04+0x1>
   10149:	25 30 38 78 20       	and    $0x20783830,%eax
   1014e:	20 63 73             	and    %ah,0x73(%ebx)
   10151:	3d 25 30 38 78       	cmp    $0x78383025,%eax
   10156:	20 65 66             	and    %ah,0x66(%ebp)
   10159:	6c                   	insb   (%dx),%es:(%edi)
   1015a:	3d 25 30 38 78       	cmp    $0x78383025,%eax
   1015f:	0a 00                	or     (%eax),%al

00010161 <__isr_0x00>:
   10161:	6a 00                	push   $0x0
   10163:	6a 00                	push   $0x0
   10165:	e9 d6 fe ff ff       	jmp    10040 <isr_save>

0001016a <__isr_0x01>:
   1016a:	6a 00                	push   $0x0
   1016c:	6a 01                	push   $0x1
   1016e:	e9 cd fe ff ff       	jmp    10040 <isr_save>

00010173 <__isr_0x02>:
   10173:	6a 00                	push   $0x0
   10175:	6a 02                	push   $0x2
   10177:	e9 c4 fe ff ff       	jmp    10040 <isr_save>

0001017c <__isr_0x03>:
   1017c:	6a 00                	push   $0x0
   1017e:	6a 03                	push   $0x3
   10180:	e9 bb fe ff ff       	jmp    10040 <isr_save>

00010185 <__isr_0x04>:
   10185:	6a 00                	push   $0x0
   10187:	6a 04                	push   $0x4
   10189:	e9 b2 fe ff ff       	jmp    10040 <isr_save>

0001018e <__isr_0x05>:
   1018e:	6a 00                	push   $0x0
   10190:	6a 05                	push   $0x5
   10192:	e9 a9 fe ff ff       	jmp    10040 <isr_save>

00010197 <__isr_0x06>:
   10197:	6a 00                	push   $0x0
   10199:	6a 06                	push   $0x6
   1019b:	e9 a0 fe ff ff       	jmp    10040 <isr_save>

000101a0 <__isr_0x07>:
   101a0:	6a 00                	push   $0x0
   101a2:	6a 07                	push   $0x7
   101a4:	e9 97 fe ff ff       	jmp    10040 <isr_save>

000101a9 <__isr_0x08>:
   101a9:	6a 08                	push   $0x8
   101ab:	e9 90 fe ff ff       	jmp    10040 <isr_save>

000101b0 <__isr_0x09>:
   101b0:	6a 00                	push   $0x0
   101b2:	6a 09                	push   $0x9
   101b4:	e9 87 fe ff ff       	jmp    10040 <isr_save>

000101b9 <__isr_0x0a>:
   101b9:	6a 0a                	push   $0xa
   101bb:	e9 80 fe ff ff       	jmp    10040 <isr_save>

000101c0 <__isr_0x0b>:
   101c0:	6a 0b                	push   $0xb
   101c2:	e9 79 fe ff ff       	jmp    10040 <isr_save>

000101c7 <__isr_0x0c>:
   101c7:	6a 0c                	push   $0xc
   101c9:	e9 72 fe ff ff       	jmp    10040 <isr_save>

000101ce <__isr_0x0d>:
   101ce:	6a 0d                	push   $0xd
   101d0:	e9 6b fe ff ff       	jmp    10040 <isr_save>

000101d5 <__isr_0x0e>:
   101d5:	6a 0e                	push   $0xe
   101d7:	e9 64 fe ff ff       	jmp    10040 <isr_save>

000101dc <__isr_0x0f>:
   101dc:	6a 00                	push   $0x0
   101de:	6a 0f                	push   $0xf
   101e0:	e9 5b fe ff ff       	jmp    10040 <isr_save>

000101e5 <__isr_0x10>:
   101e5:	6a 00                	push   $0x0
   101e7:	6a 10                	push   $0x10
   101e9:	e9 52 fe ff ff       	jmp    10040 <isr_save>

000101ee <__isr_0x11>:
   101ee:	6a 11                	push   $0x11
   101f0:	e9 4b fe ff ff       	jmp    10040 <isr_save>

000101f5 <__isr_0x12>:
   101f5:	6a 00                	push   $0x0
   101f7:	6a 12                	push   $0x12
   101f9:	e9 42 fe ff ff       	jmp    10040 <isr_save>

000101fe <__isr_0x13>:
   101fe:	6a 00                	push   $0x0
   10200:	6a 13                	push   $0x13
   10202:	e9 39 fe ff ff       	jmp    10040 <isr_save>

00010207 <__isr_0x14>:
   10207:	6a 00                	push   $0x0
   10209:	6a 14                	push   $0x14
   1020b:	e9 30 fe ff ff       	jmp    10040 <isr_save>

00010210 <__isr_0x15>:
   10210:	6a 00                	push   $0x0
   10212:	6a 15                	push   $0x15
   10214:	e9 27 fe ff ff       	jmp    10040 <isr_save>

00010219 <__isr_0x16>:
   10219:	6a 00                	push   $0x0
   1021b:	6a 16                	push   $0x16
   1021d:	e9 1e fe ff ff       	jmp    10040 <isr_save>

00010222 <__isr_0x17>:
   10222:	6a 00                	push   $0x0
   10224:	6a 17                	push   $0x17
   10226:	e9 15 fe ff ff       	jmp    10040 <isr_save>

0001022b <__isr_0x18>:
   1022b:	6a 00                	push   $0x0
   1022d:	6a 18                	push   $0x18
   1022f:	e9 0c fe ff ff       	jmp    10040 <isr_save>

00010234 <__isr_0x19>:
   10234:	6a 00                	push   $0x0
   10236:	6a 19                	push   $0x19
   10238:	e9 03 fe ff ff       	jmp    10040 <isr_save>

0001023d <__isr_0x1a>:
   1023d:	6a 00                	push   $0x0
   1023f:	6a 1a                	push   $0x1a
   10241:	e9 fa fd ff ff       	jmp    10040 <isr_save>

00010246 <__isr_0x1b>:
   10246:	6a 00                	push   $0x0
   10248:	6a 1b                	push   $0x1b
   1024a:	e9 f1 fd ff ff       	jmp    10040 <isr_save>

0001024f <__isr_0x1c>:
   1024f:	6a 00                	push   $0x0
   10251:	6a 1c                	push   $0x1c
   10253:	e9 e8 fd ff ff       	jmp    10040 <isr_save>

00010258 <__isr_0x1d>:
   10258:	6a 00                	push   $0x0
   1025a:	6a 1d                	push   $0x1d
   1025c:	e9 df fd ff ff       	jmp    10040 <isr_save>

00010261 <__isr_0x1e>:
   10261:	6a 00                	push   $0x0
   10263:	6a 1e                	push   $0x1e
   10265:	e9 d6 fd ff ff       	jmp    10040 <isr_save>

0001026a <__isr_0x1f>:
   1026a:	6a 00                	push   $0x0
   1026c:	6a 1f                	push   $0x1f
   1026e:	e9 cd fd ff ff       	jmp    10040 <isr_save>

00010273 <__isr_0x20>:
   10273:	6a 00                	push   $0x0
   10275:	6a 20                	push   $0x20
   10277:	e9 c4 fd ff ff       	jmp    10040 <isr_save>

0001027c <__isr_0x21>:
   1027c:	6a 00                	push   $0x0
   1027e:	6a 21                	push   $0x21
   10280:	e9 bb fd ff ff       	jmp    10040 <isr_save>

00010285 <__isr_0x22>:
   10285:	6a 00                	push   $0x0
   10287:	6a 22                	push   $0x22
   10289:	e9 b2 fd ff ff       	jmp    10040 <isr_save>

0001028e <__isr_0x23>:
   1028e:	6a 00                	push   $0x0
   10290:	6a 23                	push   $0x23
   10292:	e9 a9 fd ff ff       	jmp    10040 <isr_save>

00010297 <__isr_0x24>:
   10297:	6a 00                	push   $0x0
   10299:	6a 24                	push   $0x24
   1029b:	e9 a0 fd ff ff       	jmp    10040 <isr_save>

000102a0 <__isr_0x25>:
   102a0:	6a 00                	push   $0x0
   102a2:	6a 25                	push   $0x25
   102a4:	e9 97 fd ff ff       	jmp    10040 <isr_save>

000102a9 <__isr_0x26>:
   102a9:	6a 00                	push   $0x0
   102ab:	6a 26                	push   $0x26
   102ad:	e9 8e fd ff ff       	jmp    10040 <isr_save>

000102b2 <__isr_0x27>:
   102b2:	6a 00                	push   $0x0
   102b4:	6a 27                	push   $0x27
   102b6:	e9 85 fd ff ff       	jmp    10040 <isr_save>

000102bb <__isr_0x28>:
   102bb:	6a 00                	push   $0x0
   102bd:	6a 28                	push   $0x28
   102bf:	e9 7c fd ff ff       	jmp    10040 <isr_save>

000102c4 <__isr_0x29>:
   102c4:	6a 00                	push   $0x0
   102c6:	6a 29                	push   $0x29
   102c8:	e9 73 fd ff ff       	jmp    10040 <isr_save>

000102cd <__isr_0x2a>:
   102cd:	6a 00                	push   $0x0
   102cf:	6a 2a                	push   $0x2a
   102d1:	e9 6a fd ff ff       	jmp    10040 <isr_save>

000102d6 <__isr_0x2b>:
   102d6:	6a 00                	push   $0x0
   102d8:	6a 2b                	push   $0x2b
   102da:	e9 61 fd ff ff       	jmp    10040 <isr_save>

000102df <__isr_0x2c>:
   102df:	6a 00                	push   $0x0
   102e1:	6a 2c                	push   $0x2c
   102e3:	e9 58 fd ff ff       	jmp    10040 <isr_save>

000102e8 <__isr_0x2d>:
   102e8:	6a 00                	push   $0x0
   102ea:	6a 2d                	push   $0x2d
   102ec:	e9 4f fd ff ff       	jmp    10040 <isr_save>

000102f1 <__isr_0x2e>:
   102f1:	6a 00                	push   $0x0
   102f3:	6a 2e                	push   $0x2e
   102f5:	e9 46 fd ff ff       	jmp    10040 <isr_save>

000102fa <__isr_0x2f>:
   102fa:	6a 00                	push   $0x0
   102fc:	6a 2f                	push   $0x2f
   102fe:	e9 3d fd ff ff       	jmp    10040 <isr_save>

00010303 <__isr_0x30>:
   10303:	6a 00                	push   $0x0
   10305:	6a 30                	push   $0x30
   10307:	e9 34 fd ff ff       	jmp    10040 <isr_save>

0001030c <__isr_0x31>:
   1030c:	6a 00                	push   $0x0
   1030e:	6a 31                	push   $0x31
   10310:	e9 2b fd ff ff       	jmp    10040 <isr_save>

00010315 <__isr_0x32>:
   10315:	6a 00                	push   $0x0
   10317:	6a 32                	push   $0x32
   10319:	e9 22 fd ff ff       	jmp    10040 <isr_save>

0001031e <__isr_0x33>:
   1031e:	6a 00                	push   $0x0
   10320:	6a 33                	push   $0x33
   10322:	e9 19 fd ff ff       	jmp    10040 <isr_save>

00010327 <__isr_0x34>:
   10327:	6a 00                	push   $0x0
   10329:	6a 34                	push   $0x34
   1032b:	e9 10 fd ff ff       	jmp    10040 <isr_save>

00010330 <__isr_0x35>:
   10330:	6a 00                	push   $0x0
   10332:	6a 35                	push   $0x35
   10334:	e9 07 fd ff ff       	jmp    10040 <isr_save>

00010339 <__isr_0x36>:
   10339:	6a 00                	push   $0x0
   1033b:	6a 36                	push   $0x36
   1033d:	e9 fe fc ff ff       	jmp    10040 <isr_save>

00010342 <__isr_0x37>:
   10342:	6a 00                	push   $0x0
   10344:	6a 37                	push   $0x37
   10346:	e9 f5 fc ff ff       	jmp    10040 <isr_save>

0001034b <__isr_0x38>:
   1034b:	6a 00                	push   $0x0
   1034d:	6a 38                	push   $0x38
   1034f:	e9 ec fc ff ff       	jmp    10040 <isr_save>

00010354 <__isr_0x39>:
   10354:	6a 00                	push   $0x0
   10356:	6a 39                	push   $0x39
   10358:	e9 e3 fc ff ff       	jmp    10040 <isr_save>

0001035d <__isr_0x3a>:
   1035d:	6a 00                	push   $0x0
   1035f:	6a 3a                	push   $0x3a
   10361:	e9 da fc ff ff       	jmp    10040 <isr_save>

00010366 <__isr_0x3b>:
   10366:	6a 00                	push   $0x0
   10368:	6a 3b                	push   $0x3b
   1036a:	e9 d1 fc ff ff       	jmp    10040 <isr_save>

0001036f <__isr_0x3c>:
   1036f:	6a 00                	push   $0x0
   10371:	6a 3c                	push   $0x3c
   10373:	e9 c8 fc ff ff       	jmp    10040 <isr_save>

00010378 <__isr_0x3d>:
   10378:	6a 00                	push   $0x0
   1037a:	6a 3d                	push   $0x3d
   1037c:	e9 bf fc ff ff       	jmp    10040 <isr_save>

00010381 <__isr_0x3e>:
   10381:	6a 00                	push   $0x0
   10383:	6a 3e                	push   $0x3e
   10385:	e9 b6 fc ff ff       	jmp    10040 <isr_save>

0001038a <__isr_0x3f>:
   1038a:	6a 00                	push   $0x0
   1038c:	6a 3f                	push   $0x3f
   1038e:	e9 ad fc ff ff       	jmp    10040 <isr_save>

00010393 <__isr_0x40>:
   10393:	6a 00                	push   $0x0
   10395:	6a 40                	push   $0x40
   10397:	e9 a4 fc ff ff       	jmp    10040 <isr_save>

0001039c <__isr_0x41>:
   1039c:	6a 00                	push   $0x0
   1039e:	6a 41                	push   $0x41
   103a0:	e9 9b fc ff ff       	jmp    10040 <isr_save>

000103a5 <__isr_0x42>:
   103a5:	6a 00                	push   $0x0
   103a7:	6a 42                	push   $0x42
   103a9:	e9 92 fc ff ff       	jmp    10040 <isr_save>

000103ae <__isr_0x43>:
   103ae:	6a 00                	push   $0x0
   103b0:	6a 43                	push   $0x43
   103b2:	e9 89 fc ff ff       	jmp    10040 <isr_save>

000103b7 <__isr_0x44>:
   103b7:	6a 00                	push   $0x0
   103b9:	6a 44                	push   $0x44
   103bb:	e9 80 fc ff ff       	jmp    10040 <isr_save>

000103c0 <__isr_0x45>:
   103c0:	6a 00                	push   $0x0
   103c2:	6a 45                	push   $0x45
   103c4:	e9 77 fc ff ff       	jmp    10040 <isr_save>

000103c9 <__isr_0x46>:
   103c9:	6a 00                	push   $0x0
   103cb:	6a 46                	push   $0x46
   103cd:	e9 6e fc ff ff       	jmp    10040 <isr_save>

000103d2 <__isr_0x47>:
   103d2:	6a 00                	push   $0x0
   103d4:	6a 47                	push   $0x47
   103d6:	e9 65 fc ff ff       	jmp    10040 <isr_save>

000103db <__isr_0x48>:
   103db:	6a 00                	push   $0x0
   103dd:	6a 48                	push   $0x48
   103df:	e9 5c fc ff ff       	jmp    10040 <isr_save>

000103e4 <__isr_0x49>:
   103e4:	6a 00                	push   $0x0
   103e6:	6a 49                	push   $0x49
   103e8:	e9 53 fc ff ff       	jmp    10040 <isr_save>

000103ed <__isr_0x4a>:
   103ed:	6a 00                	push   $0x0
   103ef:	6a 4a                	push   $0x4a
   103f1:	e9 4a fc ff ff       	jmp    10040 <isr_save>

000103f6 <__isr_0x4b>:
   103f6:	6a 00                	push   $0x0
   103f8:	6a 4b                	push   $0x4b
   103fa:	e9 41 fc ff ff       	jmp    10040 <isr_save>

000103ff <__isr_0x4c>:
   103ff:	6a 00                	push   $0x0
   10401:	6a 4c                	push   $0x4c
   10403:	e9 38 fc ff ff       	jmp    10040 <isr_save>

00010408 <__isr_0x4d>:
   10408:	6a 00                	push   $0x0
   1040a:	6a 4d                	push   $0x4d
   1040c:	e9 2f fc ff ff       	jmp    10040 <isr_save>

00010411 <__isr_0x4e>:
   10411:	6a 00                	push   $0x0
   10413:	6a 4e                	push   $0x4e
   10415:	e9 26 fc ff ff       	jmp    10040 <isr_save>

0001041a <__isr_0x4f>:
   1041a:	6a 00                	push   $0x0
   1041c:	6a 4f                	push   $0x4f
   1041e:	e9 1d fc ff ff       	jmp    10040 <isr_save>

00010423 <__isr_0x50>:
   10423:	6a 00                	push   $0x0
   10425:	6a 50                	push   $0x50
   10427:	e9 14 fc ff ff       	jmp    10040 <isr_save>

0001042c <__isr_0x51>:
   1042c:	6a 00                	push   $0x0
   1042e:	6a 51                	push   $0x51
   10430:	e9 0b fc ff ff       	jmp    10040 <isr_save>

00010435 <__isr_0x52>:
   10435:	6a 00                	push   $0x0
   10437:	6a 52                	push   $0x52
   10439:	e9 02 fc ff ff       	jmp    10040 <isr_save>

0001043e <__isr_0x53>:
   1043e:	6a 00                	push   $0x0
   10440:	6a 53                	push   $0x53
   10442:	e9 f9 fb ff ff       	jmp    10040 <isr_save>

00010447 <__isr_0x54>:
   10447:	6a 00                	push   $0x0
   10449:	6a 54                	push   $0x54
   1044b:	e9 f0 fb ff ff       	jmp    10040 <isr_save>

00010450 <__isr_0x55>:
   10450:	6a 00                	push   $0x0
   10452:	6a 55                	push   $0x55
   10454:	e9 e7 fb ff ff       	jmp    10040 <isr_save>

00010459 <__isr_0x56>:
   10459:	6a 00                	push   $0x0
   1045b:	6a 56                	push   $0x56
   1045d:	e9 de fb ff ff       	jmp    10040 <isr_save>

00010462 <__isr_0x57>:
   10462:	6a 00                	push   $0x0
   10464:	6a 57                	push   $0x57
   10466:	e9 d5 fb ff ff       	jmp    10040 <isr_save>

0001046b <__isr_0x58>:
   1046b:	6a 00                	push   $0x0
   1046d:	6a 58                	push   $0x58
   1046f:	e9 cc fb ff ff       	jmp    10040 <isr_save>

00010474 <__isr_0x59>:
   10474:	6a 00                	push   $0x0
   10476:	6a 59                	push   $0x59
   10478:	e9 c3 fb ff ff       	jmp    10040 <isr_save>

0001047d <__isr_0x5a>:
   1047d:	6a 00                	push   $0x0
   1047f:	6a 5a                	push   $0x5a
   10481:	e9 ba fb ff ff       	jmp    10040 <isr_save>

00010486 <__isr_0x5b>:
   10486:	6a 00                	push   $0x0
   10488:	6a 5b                	push   $0x5b
   1048a:	e9 b1 fb ff ff       	jmp    10040 <isr_save>

0001048f <__isr_0x5c>:
   1048f:	6a 00                	push   $0x0
   10491:	6a 5c                	push   $0x5c
   10493:	e9 a8 fb ff ff       	jmp    10040 <isr_save>

00010498 <__isr_0x5d>:
   10498:	6a 00                	push   $0x0
   1049a:	6a 5d                	push   $0x5d
   1049c:	e9 9f fb ff ff       	jmp    10040 <isr_save>

000104a1 <__isr_0x5e>:
   104a1:	6a 00                	push   $0x0
   104a3:	6a 5e                	push   $0x5e
   104a5:	e9 96 fb ff ff       	jmp    10040 <isr_save>

000104aa <__isr_0x5f>:
   104aa:	6a 00                	push   $0x0
   104ac:	6a 5f                	push   $0x5f
   104ae:	e9 8d fb ff ff       	jmp    10040 <isr_save>

000104b3 <__isr_0x60>:
   104b3:	6a 00                	push   $0x0
   104b5:	6a 60                	push   $0x60
   104b7:	e9 84 fb ff ff       	jmp    10040 <isr_save>

000104bc <__isr_0x61>:
   104bc:	6a 00                	push   $0x0
   104be:	6a 61                	push   $0x61
   104c0:	e9 7b fb ff ff       	jmp    10040 <isr_save>

000104c5 <__isr_0x62>:
   104c5:	6a 00                	push   $0x0
   104c7:	6a 62                	push   $0x62
   104c9:	e9 72 fb ff ff       	jmp    10040 <isr_save>

000104ce <__isr_0x63>:
   104ce:	6a 00                	push   $0x0
   104d0:	6a 63                	push   $0x63
   104d2:	e9 69 fb ff ff       	jmp    10040 <isr_save>

000104d7 <__isr_0x64>:
   104d7:	6a 00                	push   $0x0
   104d9:	6a 64                	push   $0x64
   104db:	e9 60 fb ff ff       	jmp    10040 <isr_save>

000104e0 <__isr_0x65>:
   104e0:	6a 00                	push   $0x0
   104e2:	6a 65                	push   $0x65
   104e4:	e9 57 fb ff ff       	jmp    10040 <isr_save>

000104e9 <__isr_0x66>:
   104e9:	6a 00                	push   $0x0
   104eb:	6a 66                	push   $0x66
   104ed:	e9 4e fb ff ff       	jmp    10040 <isr_save>

000104f2 <__isr_0x67>:
   104f2:	6a 00                	push   $0x0
   104f4:	6a 67                	push   $0x67
   104f6:	e9 45 fb ff ff       	jmp    10040 <isr_save>

000104fb <__isr_0x68>:
   104fb:	6a 00                	push   $0x0
   104fd:	6a 68                	push   $0x68
   104ff:	e9 3c fb ff ff       	jmp    10040 <isr_save>

00010504 <__isr_0x69>:
   10504:	6a 00                	push   $0x0
   10506:	6a 69                	push   $0x69
   10508:	e9 33 fb ff ff       	jmp    10040 <isr_save>

0001050d <__isr_0x6a>:
   1050d:	6a 00                	push   $0x0
   1050f:	6a 6a                	push   $0x6a
   10511:	e9 2a fb ff ff       	jmp    10040 <isr_save>

00010516 <__isr_0x6b>:
   10516:	6a 00                	push   $0x0
   10518:	6a 6b                	push   $0x6b
   1051a:	e9 21 fb ff ff       	jmp    10040 <isr_save>

0001051f <__isr_0x6c>:
   1051f:	6a 00                	push   $0x0
   10521:	6a 6c                	push   $0x6c
   10523:	e9 18 fb ff ff       	jmp    10040 <isr_save>

00010528 <__isr_0x6d>:
   10528:	6a 00                	push   $0x0
   1052a:	6a 6d                	push   $0x6d
   1052c:	e9 0f fb ff ff       	jmp    10040 <isr_save>

00010531 <__isr_0x6e>:
   10531:	6a 00                	push   $0x0
   10533:	6a 6e                	push   $0x6e
   10535:	e9 06 fb ff ff       	jmp    10040 <isr_save>

0001053a <__isr_0x6f>:
   1053a:	6a 00                	push   $0x0
   1053c:	6a 6f                	push   $0x6f
   1053e:	e9 fd fa ff ff       	jmp    10040 <isr_save>

00010543 <__isr_0x70>:
   10543:	6a 00                	push   $0x0
   10545:	6a 70                	push   $0x70
   10547:	e9 f4 fa ff ff       	jmp    10040 <isr_save>

0001054c <__isr_0x71>:
   1054c:	6a 00                	push   $0x0
   1054e:	6a 71                	push   $0x71
   10550:	e9 eb fa ff ff       	jmp    10040 <isr_save>

00010555 <__isr_0x72>:
   10555:	6a 00                	push   $0x0
   10557:	6a 72                	push   $0x72
   10559:	e9 e2 fa ff ff       	jmp    10040 <isr_save>

0001055e <__isr_0x73>:
   1055e:	6a 00                	push   $0x0
   10560:	6a 73                	push   $0x73
   10562:	e9 d9 fa ff ff       	jmp    10040 <isr_save>

00010567 <__isr_0x74>:
   10567:	6a 00                	push   $0x0
   10569:	6a 74                	push   $0x74
   1056b:	e9 d0 fa ff ff       	jmp    10040 <isr_save>

00010570 <__isr_0x75>:
   10570:	6a 00                	push   $0x0
   10572:	6a 75                	push   $0x75
   10574:	e9 c7 fa ff ff       	jmp    10040 <isr_save>

00010579 <__isr_0x76>:
   10579:	6a 00                	push   $0x0
   1057b:	6a 76                	push   $0x76
   1057d:	e9 be fa ff ff       	jmp    10040 <isr_save>

00010582 <__isr_0x77>:
   10582:	6a 00                	push   $0x0
   10584:	6a 77                	push   $0x77
   10586:	e9 b5 fa ff ff       	jmp    10040 <isr_save>

0001058b <__isr_0x78>:
   1058b:	6a 00                	push   $0x0
   1058d:	6a 78                	push   $0x78
   1058f:	e9 ac fa ff ff       	jmp    10040 <isr_save>

00010594 <__isr_0x79>:
   10594:	6a 00                	push   $0x0
   10596:	6a 79                	push   $0x79
   10598:	e9 a3 fa ff ff       	jmp    10040 <isr_save>

0001059d <__isr_0x7a>:
   1059d:	6a 00                	push   $0x0
   1059f:	6a 7a                	push   $0x7a
   105a1:	e9 9a fa ff ff       	jmp    10040 <isr_save>

000105a6 <__isr_0x7b>:
   105a6:	6a 00                	push   $0x0
   105a8:	6a 7b                	push   $0x7b
   105aa:	e9 91 fa ff ff       	jmp    10040 <isr_save>

000105af <__isr_0x7c>:
   105af:	6a 00                	push   $0x0
   105b1:	6a 7c                	push   $0x7c
   105b3:	e9 88 fa ff ff       	jmp    10040 <isr_save>

000105b8 <__isr_0x7d>:
   105b8:	6a 00                	push   $0x0
   105ba:	6a 7d                	push   $0x7d
   105bc:	e9 7f fa ff ff       	jmp    10040 <isr_save>

000105c1 <__isr_0x7e>:
   105c1:	6a 00                	push   $0x0
   105c3:	6a 7e                	push   $0x7e
   105c5:	e9 76 fa ff ff       	jmp    10040 <isr_save>

000105ca <__isr_0x7f>:
   105ca:	6a 00                	push   $0x0
   105cc:	6a 7f                	push   $0x7f
   105ce:	e9 6d fa ff ff       	jmp    10040 <isr_save>

000105d3 <__isr_0x80>:
   105d3:	6a 00                	push   $0x0
   105d5:	68 80 00 00 00       	push   $0x80
   105da:	e9 61 fa ff ff       	jmp    10040 <isr_save>

000105df <__isr_0x81>:
   105df:	6a 00                	push   $0x0
   105e1:	68 81 00 00 00       	push   $0x81
   105e6:	e9 55 fa ff ff       	jmp    10040 <isr_save>

000105eb <__isr_0x82>:
   105eb:	6a 00                	push   $0x0
   105ed:	68 82 00 00 00       	push   $0x82
   105f2:	e9 49 fa ff ff       	jmp    10040 <isr_save>

000105f7 <__isr_0x83>:
   105f7:	6a 00                	push   $0x0
   105f9:	68 83 00 00 00       	push   $0x83
   105fe:	e9 3d fa ff ff       	jmp    10040 <isr_save>

00010603 <__isr_0x84>:
   10603:	6a 00                	push   $0x0
   10605:	68 84 00 00 00       	push   $0x84
   1060a:	e9 31 fa ff ff       	jmp    10040 <isr_save>

0001060f <__isr_0x85>:
   1060f:	6a 00                	push   $0x0
   10611:	68 85 00 00 00       	push   $0x85
   10616:	e9 25 fa ff ff       	jmp    10040 <isr_save>

0001061b <__isr_0x86>:
   1061b:	6a 00                	push   $0x0
   1061d:	68 86 00 00 00       	push   $0x86
   10622:	e9 19 fa ff ff       	jmp    10040 <isr_save>

00010627 <__isr_0x87>:
   10627:	6a 00                	push   $0x0
   10629:	68 87 00 00 00       	push   $0x87
   1062e:	e9 0d fa ff ff       	jmp    10040 <isr_save>

00010633 <__isr_0x88>:
   10633:	6a 00                	push   $0x0
   10635:	68 88 00 00 00       	push   $0x88
   1063a:	e9 01 fa ff ff       	jmp    10040 <isr_save>

0001063f <__isr_0x89>:
   1063f:	6a 00                	push   $0x0
   10641:	68 89 00 00 00       	push   $0x89
   10646:	e9 f5 f9 ff ff       	jmp    10040 <isr_save>

0001064b <__isr_0x8a>:
   1064b:	6a 00                	push   $0x0
   1064d:	68 8a 00 00 00       	push   $0x8a
   10652:	e9 e9 f9 ff ff       	jmp    10040 <isr_save>

00010657 <__isr_0x8b>:
   10657:	6a 00                	push   $0x0
   10659:	68 8b 00 00 00       	push   $0x8b
   1065e:	e9 dd f9 ff ff       	jmp    10040 <isr_save>

00010663 <__isr_0x8c>:
   10663:	6a 00                	push   $0x0
   10665:	68 8c 00 00 00       	push   $0x8c
   1066a:	e9 d1 f9 ff ff       	jmp    10040 <isr_save>

0001066f <__isr_0x8d>:
   1066f:	6a 00                	push   $0x0
   10671:	68 8d 00 00 00       	push   $0x8d
   10676:	e9 c5 f9 ff ff       	jmp    10040 <isr_save>

0001067b <__isr_0x8e>:
   1067b:	6a 00                	push   $0x0
   1067d:	68 8e 00 00 00       	push   $0x8e
   10682:	e9 b9 f9 ff ff       	jmp    10040 <isr_save>

00010687 <__isr_0x8f>:
   10687:	6a 00                	push   $0x0
   10689:	68 8f 00 00 00       	push   $0x8f
   1068e:	e9 ad f9 ff ff       	jmp    10040 <isr_save>

00010693 <__isr_0x90>:
   10693:	6a 00                	push   $0x0
   10695:	68 90 00 00 00       	push   $0x90
   1069a:	e9 a1 f9 ff ff       	jmp    10040 <isr_save>

0001069f <__isr_0x91>:
   1069f:	6a 00                	push   $0x0
   106a1:	68 91 00 00 00       	push   $0x91
   106a6:	e9 95 f9 ff ff       	jmp    10040 <isr_save>

000106ab <__isr_0x92>:
   106ab:	6a 00                	push   $0x0
   106ad:	68 92 00 00 00       	push   $0x92
   106b2:	e9 89 f9 ff ff       	jmp    10040 <isr_save>

000106b7 <__isr_0x93>:
   106b7:	6a 00                	push   $0x0
   106b9:	68 93 00 00 00       	push   $0x93
   106be:	e9 7d f9 ff ff       	jmp    10040 <isr_save>

000106c3 <__isr_0x94>:
   106c3:	6a 00                	push   $0x0
   106c5:	68 94 00 00 00       	push   $0x94
   106ca:	e9 71 f9 ff ff       	jmp    10040 <isr_save>

000106cf <__isr_0x95>:
   106cf:	6a 00                	push   $0x0
   106d1:	68 95 00 00 00       	push   $0x95
   106d6:	e9 65 f9 ff ff       	jmp    10040 <isr_save>

000106db <__isr_0x96>:
   106db:	6a 00                	push   $0x0
   106dd:	68 96 00 00 00       	push   $0x96
   106e2:	e9 59 f9 ff ff       	jmp    10040 <isr_save>

000106e7 <__isr_0x97>:
   106e7:	6a 00                	push   $0x0
   106e9:	68 97 00 00 00       	push   $0x97
   106ee:	e9 4d f9 ff ff       	jmp    10040 <isr_save>

000106f3 <__isr_0x98>:
   106f3:	6a 00                	push   $0x0
   106f5:	68 98 00 00 00       	push   $0x98
   106fa:	e9 41 f9 ff ff       	jmp    10040 <isr_save>

000106ff <__isr_0x99>:
   106ff:	6a 00                	push   $0x0
   10701:	68 99 00 00 00       	push   $0x99
   10706:	e9 35 f9 ff ff       	jmp    10040 <isr_save>

0001070b <__isr_0x9a>:
   1070b:	6a 00                	push   $0x0
   1070d:	68 9a 00 00 00       	push   $0x9a
   10712:	e9 29 f9 ff ff       	jmp    10040 <isr_save>

00010717 <__isr_0x9b>:
   10717:	6a 00                	push   $0x0
   10719:	68 9b 00 00 00       	push   $0x9b
   1071e:	e9 1d f9 ff ff       	jmp    10040 <isr_save>

00010723 <__isr_0x9c>:
   10723:	6a 00                	push   $0x0
   10725:	68 9c 00 00 00       	push   $0x9c
   1072a:	e9 11 f9 ff ff       	jmp    10040 <isr_save>

0001072f <__isr_0x9d>:
   1072f:	6a 00                	push   $0x0
   10731:	68 9d 00 00 00       	push   $0x9d
   10736:	e9 05 f9 ff ff       	jmp    10040 <isr_save>

0001073b <__isr_0x9e>:
   1073b:	6a 00                	push   $0x0
   1073d:	68 9e 00 00 00       	push   $0x9e
   10742:	e9 f9 f8 ff ff       	jmp    10040 <isr_save>

00010747 <__isr_0x9f>:
   10747:	6a 00                	push   $0x0
   10749:	68 9f 00 00 00       	push   $0x9f
   1074e:	e9 ed f8 ff ff       	jmp    10040 <isr_save>

00010753 <__isr_0xa0>:
   10753:	6a 00                	push   $0x0
   10755:	68 a0 00 00 00       	push   $0xa0
   1075a:	e9 e1 f8 ff ff       	jmp    10040 <isr_save>

0001075f <__isr_0xa1>:
   1075f:	6a 00                	push   $0x0
   10761:	68 a1 00 00 00       	push   $0xa1
   10766:	e9 d5 f8 ff ff       	jmp    10040 <isr_save>

0001076b <__isr_0xa2>:
   1076b:	6a 00                	push   $0x0
   1076d:	68 a2 00 00 00       	push   $0xa2
   10772:	e9 c9 f8 ff ff       	jmp    10040 <isr_save>

00010777 <__isr_0xa3>:
   10777:	6a 00                	push   $0x0
   10779:	68 a3 00 00 00       	push   $0xa3
   1077e:	e9 bd f8 ff ff       	jmp    10040 <isr_save>

00010783 <__isr_0xa4>:
   10783:	6a 00                	push   $0x0
   10785:	68 a4 00 00 00       	push   $0xa4
   1078a:	e9 b1 f8 ff ff       	jmp    10040 <isr_save>

0001078f <__isr_0xa5>:
   1078f:	6a 00                	push   $0x0
   10791:	68 a5 00 00 00       	push   $0xa5
   10796:	e9 a5 f8 ff ff       	jmp    10040 <isr_save>

0001079b <__isr_0xa6>:
   1079b:	6a 00                	push   $0x0
   1079d:	68 a6 00 00 00       	push   $0xa6
   107a2:	e9 99 f8 ff ff       	jmp    10040 <isr_save>

000107a7 <__isr_0xa7>:
   107a7:	6a 00                	push   $0x0
   107a9:	68 a7 00 00 00       	push   $0xa7
   107ae:	e9 8d f8 ff ff       	jmp    10040 <isr_save>

000107b3 <__isr_0xa8>:
   107b3:	6a 00                	push   $0x0
   107b5:	68 a8 00 00 00       	push   $0xa8
   107ba:	e9 81 f8 ff ff       	jmp    10040 <isr_save>

000107bf <__isr_0xa9>:
   107bf:	6a 00                	push   $0x0
   107c1:	68 a9 00 00 00       	push   $0xa9
   107c6:	e9 75 f8 ff ff       	jmp    10040 <isr_save>

000107cb <__isr_0xaa>:
   107cb:	6a 00                	push   $0x0
   107cd:	68 aa 00 00 00       	push   $0xaa
   107d2:	e9 69 f8 ff ff       	jmp    10040 <isr_save>

000107d7 <__isr_0xab>:
   107d7:	6a 00                	push   $0x0
   107d9:	68 ab 00 00 00       	push   $0xab
   107de:	e9 5d f8 ff ff       	jmp    10040 <isr_save>

000107e3 <__isr_0xac>:
   107e3:	6a 00                	push   $0x0
   107e5:	68 ac 00 00 00       	push   $0xac
   107ea:	e9 51 f8 ff ff       	jmp    10040 <isr_save>

000107ef <__isr_0xad>:
   107ef:	6a 00                	push   $0x0
   107f1:	68 ad 00 00 00       	push   $0xad
   107f6:	e9 45 f8 ff ff       	jmp    10040 <isr_save>

000107fb <__isr_0xae>:
   107fb:	6a 00                	push   $0x0
   107fd:	68 ae 00 00 00       	push   $0xae
   10802:	e9 39 f8 ff ff       	jmp    10040 <isr_save>

00010807 <__isr_0xaf>:
   10807:	6a 00                	push   $0x0
   10809:	68 af 00 00 00       	push   $0xaf
   1080e:	e9 2d f8 ff ff       	jmp    10040 <isr_save>

00010813 <__isr_0xb0>:
   10813:	6a 00                	push   $0x0
   10815:	68 b0 00 00 00       	push   $0xb0
   1081a:	e9 21 f8 ff ff       	jmp    10040 <isr_save>

0001081f <__isr_0xb1>:
   1081f:	6a 00                	push   $0x0
   10821:	68 b1 00 00 00       	push   $0xb1
   10826:	e9 15 f8 ff ff       	jmp    10040 <isr_save>

0001082b <__isr_0xb2>:
   1082b:	6a 00                	push   $0x0
   1082d:	68 b2 00 00 00       	push   $0xb2
   10832:	e9 09 f8 ff ff       	jmp    10040 <isr_save>

00010837 <__isr_0xb3>:
   10837:	6a 00                	push   $0x0
   10839:	68 b3 00 00 00       	push   $0xb3
   1083e:	e9 fd f7 ff ff       	jmp    10040 <isr_save>

00010843 <__isr_0xb4>:
   10843:	6a 00                	push   $0x0
   10845:	68 b4 00 00 00       	push   $0xb4
   1084a:	e9 f1 f7 ff ff       	jmp    10040 <isr_save>

0001084f <__isr_0xb5>:
   1084f:	6a 00                	push   $0x0
   10851:	68 b5 00 00 00       	push   $0xb5
   10856:	e9 e5 f7 ff ff       	jmp    10040 <isr_save>

0001085b <__isr_0xb6>:
   1085b:	6a 00                	push   $0x0
   1085d:	68 b6 00 00 00       	push   $0xb6
   10862:	e9 d9 f7 ff ff       	jmp    10040 <isr_save>

00010867 <__isr_0xb7>:
   10867:	6a 00                	push   $0x0
   10869:	68 b7 00 00 00       	push   $0xb7
   1086e:	e9 cd f7 ff ff       	jmp    10040 <isr_save>

00010873 <__isr_0xb8>:
   10873:	6a 00                	push   $0x0
   10875:	68 b8 00 00 00       	push   $0xb8
   1087a:	e9 c1 f7 ff ff       	jmp    10040 <isr_save>

0001087f <__isr_0xb9>:
   1087f:	6a 00                	push   $0x0
   10881:	68 b9 00 00 00       	push   $0xb9
   10886:	e9 b5 f7 ff ff       	jmp    10040 <isr_save>

0001088b <__isr_0xba>:
   1088b:	6a 00                	push   $0x0
   1088d:	68 ba 00 00 00       	push   $0xba
   10892:	e9 a9 f7 ff ff       	jmp    10040 <isr_save>

00010897 <__isr_0xbb>:
   10897:	6a 00                	push   $0x0
   10899:	68 bb 00 00 00       	push   $0xbb
   1089e:	e9 9d f7 ff ff       	jmp    10040 <isr_save>

000108a3 <__isr_0xbc>:
   108a3:	6a 00                	push   $0x0
   108a5:	68 bc 00 00 00       	push   $0xbc
   108aa:	e9 91 f7 ff ff       	jmp    10040 <isr_save>

000108af <__isr_0xbd>:
   108af:	6a 00                	push   $0x0
   108b1:	68 bd 00 00 00       	push   $0xbd
   108b6:	e9 85 f7 ff ff       	jmp    10040 <isr_save>

000108bb <__isr_0xbe>:
   108bb:	6a 00                	push   $0x0
   108bd:	68 be 00 00 00       	push   $0xbe
   108c2:	e9 79 f7 ff ff       	jmp    10040 <isr_save>

000108c7 <__isr_0xbf>:
   108c7:	6a 00                	push   $0x0
   108c9:	68 bf 00 00 00       	push   $0xbf
   108ce:	e9 6d f7 ff ff       	jmp    10040 <isr_save>

000108d3 <__isr_0xc0>:
   108d3:	6a 00                	push   $0x0
   108d5:	68 c0 00 00 00       	push   $0xc0
   108da:	e9 61 f7 ff ff       	jmp    10040 <isr_save>

000108df <__isr_0xc1>:
   108df:	6a 00                	push   $0x0
   108e1:	68 c1 00 00 00       	push   $0xc1
   108e6:	e9 55 f7 ff ff       	jmp    10040 <isr_save>

000108eb <__isr_0xc2>:
   108eb:	6a 00                	push   $0x0
   108ed:	68 c2 00 00 00       	push   $0xc2
   108f2:	e9 49 f7 ff ff       	jmp    10040 <isr_save>

000108f7 <__isr_0xc3>:
   108f7:	6a 00                	push   $0x0
   108f9:	68 c3 00 00 00       	push   $0xc3
   108fe:	e9 3d f7 ff ff       	jmp    10040 <isr_save>

00010903 <__isr_0xc4>:
   10903:	6a 00                	push   $0x0
   10905:	68 c4 00 00 00       	push   $0xc4
   1090a:	e9 31 f7 ff ff       	jmp    10040 <isr_save>

0001090f <__isr_0xc5>:
   1090f:	6a 00                	push   $0x0
   10911:	68 c5 00 00 00       	push   $0xc5
   10916:	e9 25 f7 ff ff       	jmp    10040 <isr_save>

0001091b <__isr_0xc6>:
   1091b:	6a 00                	push   $0x0
   1091d:	68 c6 00 00 00       	push   $0xc6
   10922:	e9 19 f7 ff ff       	jmp    10040 <isr_save>

00010927 <__isr_0xc7>:
   10927:	6a 00                	push   $0x0
   10929:	68 c7 00 00 00       	push   $0xc7
   1092e:	e9 0d f7 ff ff       	jmp    10040 <isr_save>

00010933 <__isr_0xc8>:
   10933:	6a 00                	push   $0x0
   10935:	68 c8 00 00 00       	push   $0xc8
   1093a:	e9 01 f7 ff ff       	jmp    10040 <isr_save>

0001093f <__isr_0xc9>:
   1093f:	6a 00                	push   $0x0
   10941:	68 c9 00 00 00       	push   $0xc9
   10946:	e9 f5 f6 ff ff       	jmp    10040 <isr_save>

0001094b <__isr_0xca>:
   1094b:	6a 00                	push   $0x0
   1094d:	68 ca 00 00 00       	push   $0xca
   10952:	e9 e9 f6 ff ff       	jmp    10040 <isr_save>

00010957 <__isr_0xcb>:
   10957:	6a 00                	push   $0x0
   10959:	68 cb 00 00 00       	push   $0xcb
   1095e:	e9 dd f6 ff ff       	jmp    10040 <isr_save>

00010963 <__isr_0xcc>:
   10963:	6a 00                	push   $0x0
   10965:	68 cc 00 00 00       	push   $0xcc
   1096a:	e9 d1 f6 ff ff       	jmp    10040 <isr_save>

0001096f <__isr_0xcd>:
   1096f:	6a 00                	push   $0x0
   10971:	68 cd 00 00 00       	push   $0xcd
   10976:	e9 c5 f6 ff ff       	jmp    10040 <isr_save>

0001097b <__isr_0xce>:
   1097b:	6a 00                	push   $0x0
   1097d:	68 ce 00 00 00       	push   $0xce
   10982:	e9 b9 f6 ff ff       	jmp    10040 <isr_save>

00010987 <__isr_0xcf>:
   10987:	6a 00                	push   $0x0
   10989:	68 cf 00 00 00       	push   $0xcf
   1098e:	e9 ad f6 ff ff       	jmp    10040 <isr_save>

00010993 <__isr_0xd0>:
   10993:	6a 00                	push   $0x0
   10995:	68 d0 00 00 00       	push   $0xd0
   1099a:	e9 a1 f6 ff ff       	jmp    10040 <isr_save>

0001099f <__isr_0xd1>:
   1099f:	6a 00                	push   $0x0
   109a1:	68 d1 00 00 00       	push   $0xd1
   109a6:	e9 95 f6 ff ff       	jmp    10040 <isr_save>

000109ab <__isr_0xd2>:
   109ab:	6a 00                	push   $0x0
   109ad:	68 d2 00 00 00       	push   $0xd2
   109b2:	e9 89 f6 ff ff       	jmp    10040 <isr_save>

000109b7 <__isr_0xd3>:
   109b7:	6a 00                	push   $0x0
   109b9:	68 d3 00 00 00       	push   $0xd3
   109be:	e9 7d f6 ff ff       	jmp    10040 <isr_save>

000109c3 <__isr_0xd4>:
   109c3:	6a 00                	push   $0x0
   109c5:	68 d4 00 00 00       	push   $0xd4
   109ca:	e9 71 f6 ff ff       	jmp    10040 <isr_save>

000109cf <__isr_0xd5>:
   109cf:	6a 00                	push   $0x0
   109d1:	68 d5 00 00 00       	push   $0xd5
   109d6:	e9 65 f6 ff ff       	jmp    10040 <isr_save>

000109db <__isr_0xd6>:
   109db:	6a 00                	push   $0x0
   109dd:	68 d6 00 00 00       	push   $0xd6
   109e2:	e9 59 f6 ff ff       	jmp    10040 <isr_save>

000109e7 <__isr_0xd7>:
   109e7:	6a 00                	push   $0x0
   109e9:	68 d7 00 00 00       	push   $0xd7
   109ee:	e9 4d f6 ff ff       	jmp    10040 <isr_save>

000109f3 <__isr_0xd8>:
   109f3:	6a 00                	push   $0x0
   109f5:	68 d8 00 00 00       	push   $0xd8
   109fa:	e9 41 f6 ff ff       	jmp    10040 <isr_save>

000109ff <__isr_0xd9>:
   109ff:	6a 00                	push   $0x0
   10a01:	68 d9 00 00 00       	push   $0xd9
   10a06:	e9 35 f6 ff ff       	jmp    10040 <isr_save>

00010a0b <__isr_0xda>:
   10a0b:	6a 00                	push   $0x0
   10a0d:	68 da 00 00 00       	push   $0xda
   10a12:	e9 29 f6 ff ff       	jmp    10040 <isr_save>

00010a17 <__isr_0xdb>:
   10a17:	6a 00                	push   $0x0
   10a19:	68 db 00 00 00       	push   $0xdb
   10a1e:	e9 1d f6 ff ff       	jmp    10040 <isr_save>

00010a23 <__isr_0xdc>:
   10a23:	6a 00                	push   $0x0
   10a25:	68 dc 00 00 00       	push   $0xdc
   10a2a:	e9 11 f6 ff ff       	jmp    10040 <isr_save>

00010a2f <__isr_0xdd>:
   10a2f:	6a 00                	push   $0x0
   10a31:	68 dd 00 00 00       	push   $0xdd
   10a36:	e9 05 f6 ff ff       	jmp    10040 <isr_save>

00010a3b <__isr_0xde>:
   10a3b:	6a 00                	push   $0x0
   10a3d:	68 de 00 00 00       	push   $0xde
   10a42:	e9 f9 f5 ff ff       	jmp    10040 <isr_save>

00010a47 <__isr_0xdf>:
   10a47:	6a 00                	push   $0x0
   10a49:	68 df 00 00 00       	push   $0xdf
   10a4e:	e9 ed f5 ff ff       	jmp    10040 <isr_save>

00010a53 <__isr_0xe0>:
   10a53:	6a 00                	push   $0x0
   10a55:	68 e0 00 00 00       	push   $0xe0
   10a5a:	e9 e1 f5 ff ff       	jmp    10040 <isr_save>

00010a5f <__isr_0xe1>:
   10a5f:	6a 00                	push   $0x0
   10a61:	68 e1 00 00 00       	push   $0xe1
   10a66:	e9 d5 f5 ff ff       	jmp    10040 <isr_save>

00010a6b <__isr_0xe2>:
   10a6b:	6a 00                	push   $0x0
   10a6d:	68 e2 00 00 00       	push   $0xe2
   10a72:	e9 c9 f5 ff ff       	jmp    10040 <isr_save>

00010a77 <__isr_0xe3>:
   10a77:	6a 00                	push   $0x0
   10a79:	68 e3 00 00 00       	push   $0xe3
   10a7e:	e9 bd f5 ff ff       	jmp    10040 <isr_save>

00010a83 <__isr_0xe4>:
   10a83:	6a 00                	push   $0x0
   10a85:	68 e4 00 00 00       	push   $0xe4
   10a8a:	e9 b1 f5 ff ff       	jmp    10040 <isr_save>

00010a8f <__isr_0xe5>:
   10a8f:	6a 00                	push   $0x0
   10a91:	68 e5 00 00 00       	push   $0xe5
   10a96:	e9 a5 f5 ff ff       	jmp    10040 <isr_save>

00010a9b <__isr_0xe6>:
   10a9b:	6a 00                	push   $0x0
   10a9d:	68 e6 00 00 00       	push   $0xe6
   10aa2:	e9 99 f5 ff ff       	jmp    10040 <isr_save>

00010aa7 <__isr_0xe7>:
   10aa7:	6a 00                	push   $0x0
   10aa9:	68 e7 00 00 00       	push   $0xe7
   10aae:	e9 8d f5 ff ff       	jmp    10040 <isr_save>

00010ab3 <__isr_0xe8>:
   10ab3:	6a 00                	push   $0x0
   10ab5:	68 e8 00 00 00       	push   $0xe8
   10aba:	e9 81 f5 ff ff       	jmp    10040 <isr_save>

00010abf <__isr_0xe9>:
   10abf:	6a 00                	push   $0x0
   10ac1:	68 e9 00 00 00       	push   $0xe9
   10ac6:	e9 75 f5 ff ff       	jmp    10040 <isr_save>

00010acb <__isr_0xea>:
   10acb:	6a 00                	push   $0x0
   10acd:	68 ea 00 00 00       	push   $0xea
   10ad2:	e9 69 f5 ff ff       	jmp    10040 <isr_save>

00010ad7 <__isr_0xeb>:
   10ad7:	6a 00                	push   $0x0
   10ad9:	68 eb 00 00 00       	push   $0xeb
   10ade:	e9 5d f5 ff ff       	jmp    10040 <isr_save>

00010ae3 <__isr_0xec>:
   10ae3:	6a 00                	push   $0x0
   10ae5:	68 ec 00 00 00       	push   $0xec
   10aea:	e9 51 f5 ff ff       	jmp    10040 <isr_save>

00010aef <__isr_0xed>:
   10aef:	6a 00                	push   $0x0
   10af1:	68 ed 00 00 00       	push   $0xed
   10af6:	e9 45 f5 ff ff       	jmp    10040 <isr_save>

00010afb <__isr_0xee>:
   10afb:	6a 00                	push   $0x0
   10afd:	68 ee 00 00 00       	push   $0xee
   10b02:	e9 39 f5 ff ff       	jmp    10040 <isr_save>

00010b07 <__isr_0xef>:
   10b07:	6a 00                	push   $0x0
   10b09:	68 ef 00 00 00       	push   $0xef
   10b0e:	e9 2d f5 ff ff       	jmp    10040 <isr_save>

00010b13 <__isr_0xf0>:
   10b13:	6a 00                	push   $0x0
   10b15:	68 f0 00 00 00       	push   $0xf0
   10b1a:	e9 21 f5 ff ff       	jmp    10040 <isr_save>

00010b1f <__isr_0xf1>:
   10b1f:	6a 00                	push   $0x0
   10b21:	68 f1 00 00 00       	push   $0xf1
   10b26:	e9 15 f5 ff ff       	jmp    10040 <isr_save>

00010b2b <__isr_0xf2>:
   10b2b:	6a 00                	push   $0x0
   10b2d:	68 f2 00 00 00       	push   $0xf2
   10b32:	e9 09 f5 ff ff       	jmp    10040 <isr_save>

00010b37 <__isr_0xf3>:
   10b37:	6a 00                	push   $0x0
   10b39:	68 f3 00 00 00       	push   $0xf3
   10b3e:	e9 fd f4 ff ff       	jmp    10040 <isr_save>

00010b43 <__isr_0xf4>:
   10b43:	6a 00                	push   $0x0
   10b45:	68 f4 00 00 00       	push   $0xf4
   10b4a:	e9 f1 f4 ff ff       	jmp    10040 <isr_save>

00010b4f <__isr_0xf5>:
   10b4f:	6a 00                	push   $0x0
   10b51:	68 f5 00 00 00       	push   $0xf5
   10b56:	e9 e5 f4 ff ff       	jmp    10040 <isr_save>

00010b5b <__isr_0xf6>:
   10b5b:	6a 00                	push   $0x0
   10b5d:	68 f6 00 00 00       	push   $0xf6
   10b62:	e9 d9 f4 ff ff       	jmp    10040 <isr_save>

00010b67 <__isr_0xf7>:
   10b67:	6a 00                	push   $0x0
   10b69:	68 f7 00 00 00       	push   $0xf7
   10b6e:	e9 cd f4 ff ff       	jmp    10040 <isr_save>

00010b73 <__isr_0xf8>:
   10b73:	6a 00                	push   $0x0
   10b75:	68 f8 00 00 00       	push   $0xf8
   10b7a:	e9 c1 f4 ff ff       	jmp    10040 <isr_save>

00010b7f <__isr_0xf9>:
   10b7f:	6a 00                	push   $0x0
   10b81:	68 f9 00 00 00       	push   $0xf9
   10b86:	e9 b5 f4 ff ff       	jmp    10040 <isr_save>

00010b8b <__isr_0xfa>:
   10b8b:	6a 00                	push   $0x0
   10b8d:	68 fa 00 00 00       	push   $0xfa
   10b92:	e9 a9 f4 ff ff       	jmp    10040 <isr_save>

00010b97 <__isr_0xfb>:
   10b97:	6a 00                	push   $0x0
   10b99:	68 fb 00 00 00       	push   $0xfb
   10b9e:	e9 9d f4 ff ff       	jmp    10040 <isr_save>

00010ba3 <__isr_0xfc>:
   10ba3:	6a 00                	push   $0x0
   10ba5:	68 fc 00 00 00       	push   $0xfc
   10baa:	e9 91 f4 ff ff       	jmp    10040 <isr_save>

00010baf <__isr_0xfd>:
   10baf:	6a 00                	push   $0x0
   10bb1:	68 fd 00 00 00       	push   $0xfd
   10bb6:	e9 85 f4 ff ff       	jmp    10040 <isr_save>

00010bbb <__isr_0xfe>:
   10bbb:	6a 00                	push   $0x0
   10bbd:	68 fe 00 00 00       	push   $0xfe
   10bc2:	e9 79 f4 ff ff       	jmp    10040 <isr_save>

00010bc7 <__isr_0xff>:
   10bc7:	6a 00                	push   $0x0
   10bc9:	68 ff 00 00 00       	push   $0xff
   10bce:	e9 6d f4 ff ff       	jmp    10040 <isr_save>

00010bd3 <__inb>:
   10bd3:	c8 00 00 00          	enter  $0x0,$0x0
   10bd7:	31 c0                	xor    %eax,%eax
   10bd9:	8b 55 08             	mov    0x8(%ebp),%edx
   10bdc:	ec                   	in     (%dx),%al
   10bdd:	c9                   	leave  
   10bde:	c3                   	ret    

00010bdf <__inw>:
   10bdf:	c8 00 00 00          	enter  $0x0,$0x0
   10be3:	31 c0                	xor    %eax,%eax
   10be5:	8b 55 08             	mov    0x8(%ebp),%edx
   10be8:	66 ed                	in     (%dx),%ax
   10bea:	c9                   	leave  
   10beb:	c3                   	ret    

00010bec <__inl>:
   10bec:	c8 00 00 00          	enter  $0x0,$0x0
   10bf0:	31 c0                	xor    %eax,%eax
   10bf2:	8b 55 08             	mov    0x8(%ebp),%edx
   10bf5:	ed                   	in     (%dx),%eax
   10bf6:	c9                   	leave  
   10bf7:	c3                   	ret    

00010bf8 <__outb>:
   10bf8:	c8 00 00 00          	enter  $0x0,$0x0
   10bfc:	8b 55 08             	mov    0x8(%ebp),%edx
   10bff:	8b 45 0c             	mov    0xc(%ebp),%eax
   10c02:	ee                   	out    %al,(%dx)
   10c03:	c9                   	leave  
   10c04:	c3                   	ret    

00010c05 <__outw>:
   10c05:	c8 00 00 00          	enter  $0x0,$0x0
   10c09:	8b 55 08             	mov    0x8(%ebp),%edx
   10c0c:	8b 45 0c             	mov    0xc(%ebp),%eax
   10c0f:	66 ef                	out    %ax,(%dx)
   10c11:	c9                   	leave  
   10c12:	c3                   	ret    

00010c13 <__outl>:
   10c13:	c8 00 00 00          	enter  $0x0,$0x0
   10c17:	8b 55 08             	mov    0x8(%ebp),%edx
   10c1a:	8b 45 0c             	mov    0xc(%ebp),%eax
   10c1d:	ef                   	out    %eax,(%dx)
   10c1e:	c9                   	leave  
   10c1f:	c3                   	ret    

00010c20 <__get_flags>:
   10c20:	9c                   	pushf  
   10c21:	58                   	pop    %eax
   10c22:	c3                   	ret    

00010c23 <__pause>:
   10c23:	c8 00 00 00          	enter  $0x0,$0x0
   10c27:	fb                   	sti    
   10c28:	f4                   	hlt    
   10c29:	c9                   	leave  
   10c2a:	c3                   	ret    

00010c2b <__get_ra>:
   10c2b:	8b 45 04             	mov    0x4(%ebp),%eax
   10c2e:	c3                   	ret    

00010c2f <__c_setcursor>:
   10c2f:	55                   	push   %ebp
   10c30:	89 e5                	mov    %esp,%ebp
   10c32:	83 ec 18             	sub    $0x18,%esp
   10c35:	a1 14 d7 01 00       	mov    0x1d714,%eax
   10c3a:	89 45 f4             	mov    %eax,-0xc(%ebp)
   10c3d:	a1 0c d7 01 00       	mov    0x1d70c,%eax
   10c42:	39 45 f4             	cmp    %eax,-0xc(%ebp)
   10c45:	76 08                	jbe    10c4f <__c_setcursor+0x20>
   10c47:	a1 0c d7 01 00       	mov    0x1d70c,%eax
   10c4c:	89 45 f4             	mov    %eax,-0xc(%ebp)
   10c4f:	8b 55 f4             	mov    -0xc(%ebp),%edx
   10c52:	89 d0                	mov    %edx,%eax
   10c54:	c1 e0 02             	shl    $0x2,%eax
   10c57:	01 d0                	add    %edx,%eax
   10c59:	c1 e0 04             	shl    $0x4,%eax
   10c5c:	89 c2                	mov    %eax,%edx
   10c5e:	a1 10 d7 01 00       	mov    0x1d710,%eax
   10c63:	01 d0                	add    %edx,%eax
   10c65:	89 45 f0             	mov    %eax,-0x10(%ebp)
   10c68:	83 ec 08             	sub    $0x8,%esp
   10c6b:	6a 0e                	push   $0xe
   10c6d:	68 d4 03 00 00       	push   $0x3d4
   10c72:	e8 81 ff ff ff       	call   10bf8 <__outb>
   10c77:	83 c4 10             	add    $0x10,%esp
   10c7a:	8b 45 f0             	mov    -0x10(%ebp),%eax
   10c7d:	c1 e8 08             	shr    $0x8,%eax
   10c80:	0f b6 c0             	movzbl %al,%eax
   10c83:	83 ec 08             	sub    $0x8,%esp
   10c86:	50                   	push   %eax
   10c87:	68 d5 03 00 00       	push   $0x3d5
   10c8c:	e8 67 ff ff ff       	call   10bf8 <__outb>
   10c91:	83 c4 10             	add    $0x10,%esp
   10c94:	83 ec 08             	sub    $0x8,%esp
   10c97:	6a 0f                	push   $0xf
   10c99:	68 d4 03 00 00       	push   $0x3d4
   10c9e:	e8 55 ff ff ff       	call   10bf8 <__outb>
   10ca3:	83 c4 10             	add    $0x10,%esp
   10ca6:	8b 45 f0             	mov    -0x10(%ebp),%eax
   10ca9:	0f b6 c0             	movzbl %al,%eax
   10cac:	83 ec 08             	sub    $0x8,%esp
   10caf:	50                   	push   %eax
   10cb0:	68 d5 03 00 00       	push   $0x3d5
   10cb5:	e8 3e ff ff ff       	call   10bf8 <__outb>
   10cba:	83 c4 10             	add    $0x10,%esp
   10cbd:	90                   	nop
   10cbe:	c9                   	leave  
   10cbf:	c3                   	ret    

00010cc0 <__c_putchar_at>:
   10cc0:	55                   	push   %ebp
   10cc1:	89 e5                	mov    %esp,%ebp
   10cc3:	83 ec 10             	sub    $0x10,%esp
   10cc6:	a1 20 d7 01 00       	mov    0x1d720,%eax
   10ccb:	39 45 08             	cmp    %eax,0x8(%ebp)
   10cce:	77 4c                	ja     10d1c <__c_putchar_at+0x5c>
   10cd0:	a1 24 d7 01 00       	mov    0x1d724,%eax
   10cd5:	39 45 0c             	cmp    %eax,0xc(%ebp)
   10cd8:	77 42                	ja     10d1c <__c_putchar_at+0x5c>
   10cda:	8b 55 0c             	mov    0xc(%ebp),%edx
   10cdd:	89 d0                	mov    %edx,%eax
   10cdf:	c1 e0 02             	shl    $0x2,%eax
   10ce2:	01 d0                	add    %edx,%eax
   10ce4:	c1 e0 04             	shl    $0x4,%eax
   10ce7:	89 c2                	mov    %eax,%edx
   10ce9:	8b 45 08             	mov    0x8(%ebp),%eax
   10cec:	01 d0                	add    %edx,%eax
   10cee:	05 00 c0 05 00       	add    $0x5c000,%eax
   10cf3:	01 c0                	add    %eax,%eax
   10cf5:	89 45 fc             	mov    %eax,-0x4(%ebp)
   10cf8:	81 7d 10 ff 00 00 00 	cmpl   $0xff,0x10(%ebp)
   10cff:	76 0d                	jbe    10d0e <__c_putchar_at+0x4e>
   10d01:	8b 45 10             	mov    0x10(%ebp),%eax
   10d04:	89 c2                	mov    %eax,%edx
   10d06:	8b 45 fc             	mov    -0x4(%ebp),%eax
   10d09:	66 89 10             	mov    %dx,(%eax)
   10d0c:	eb 0e                	jmp    10d1c <__c_putchar_at+0x5c>
   10d0e:	8b 45 10             	mov    0x10(%ebp),%eax
   10d11:	80 cc 07             	or     $0x7,%ah
   10d14:	89 c2                	mov    %eax,%edx
   10d16:	8b 45 fc             	mov    -0x4(%ebp),%eax
   10d19:	66 89 10             	mov    %dx,(%eax)
   10d1c:	90                   	nop
   10d1d:	c9                   	leave  
   10d1e:	c3                   	ret    

00010d1f <__cio_setscroll>:
   10d1f:	55                   	push   %ebp
   10d20:	89 e5                	mov    %esp,%ebp
   10d22:	83 ec 08             	sub    $0x8,%esp
   10d25:	8b 15 20 d7 01 00    	mov    0x1d720,%edx
   10d2b:	a1 18 d7 01 00       	mov    0x1d718,%eax
   10d30:	83 ec 04             	sub    $0x4,%esp
   10d33:	52                   	push   %edx
   10d34:	ff 75 08             	pushl  0x8(%ebp)
   10d37:	50                   	push   %eax
   10d38:	e8 6e 0c 00 00       	call   119ab <__bound>
   10d3d:	83 c4 10             	add    $0x10,%esp
   10d40:	a3 00 d7 01 00       	mov    %eax,0x1d700
   10d45:	8b 15 24 d7 01 00    	mov    0x1d724,%edx
   10d4b:	a1 1c d7 01 00       	mov    0x1d71c,%eax
   10d50:	83 ec 04             	sub    $0x4,%esp
   10d53:	52                   	push   %edx
   10d54:	ff 75 0c             	pushl  0xc(%ebp)
   10d57:	50                   	push   %eax
   10d58:	e8 4e 0c 00 00       	call   119ab <__bound>
   10d5d:	83 c4 10             	add    $0x10,%esp
   10d60:	a3 04 d7 01 00       	mov    %eax,0x1d704
   10d65:	8b 15 20 d7 01 00    	mov    0x1d720,%edx
   10d6b:	a1 00 d7 01 00       	mov    0x1d700,%eax
   10d70:	83 ec 04             	sub    $0x4,%esp
   10d73:	52                   	push   %edx
   10d74:	ff 75 10             	pushl  0x10(%ebp)
   10d77:	50                   	push   %eax
   10d78:	e8 2e 0c 00 00       	call   119ab <__bound>
   10d7d:	83 c4 10             	add    $0x10,%esp
   10d80:	a3 08 d7 01 00       	mov    %eax,0x1d708
   10d85:	8b 15 24 d7 01 00    	mov    0x1d724,%edx
   10d8b:	a1 04 d7 01 00       	mov    0x1d704,%eax
   10d90:	83 ec 04             	sub    $0x4,%esp
   10d93:	52                   	push   %edx
   10d94:	ff 75 14             	pushl  0x14(%ebp)
   10d97:	50                   	push   %eax
   10d98:	e8 0e 0c 00 00       	call   119ab <__bound>
   10d9d:	83 c4 10             	add    $0x10,%esp
   10da0:	a3 0c d7 01 00       	mov    %eax,0x1d70c
   10da5:	a1 00 d7 01 00       	mov    0x1d700,%eax
   10daa:	a3 10 d7 01 00       	mov    %eax,0x1d710
   10daf:	a1 04 d7 01 00       	mov    0x1d704,%eax
   10db4:	a3 14 d7 01 00       	mov    %eax,0x1d714
   10db9:	e8 71 fe ff ff       	call   10c2f <__c_setcursor>
   10dbe:	90                   	nop
   10dbf:	c9                   	leave  
   10dc0:	c3                   	ret    

00010dc1 <__cio_moveto>:
   10dc1:	55                   	push   %ebp
   10dc2:	89 e5                	mov    %esp,%ebp
   10dc4:	83 ec 08             	sub    $0x8,%esp
   10dc7:	8b 15 08 d7 01 00    	mov    0x1d708,%edx
   10dcd:	8b 0d 00 d7 01 00    	mov    0x1d700,%ecx
   10dd3:	8b 45 08             	mov    0x8(%ebp),%eax
   10dd6:	01 c1                	add    %eax,%ecx
   10dd8:	a1 00 d7 01 00       	mov    0x1d700,%eax
   10ddd:	83 ec 04             	sub    $0x4,%esp
   10de0:	52                   	push   %edx
   10de1:	51                   	push   %ecx
   10de2:	50                   	push   %eax
   10de3:	e8 c3 0b 00 00       	call   119ab <__bound>
   10de8:	83 c4 10             	add    $0x10,%esp
   10deb:	a3 10 d7 01 00       	mov    %eax,0x1d710
   10df0:	8b 15 0c d7 01 00    	mov    0x1d70c,%edx
   10df6:	8b 0d 04 d7 01 00    	mov    0x1d704,%ecx
   10dfc:	8b 45 0c             	mov    0xc(%ebp),%eax
   10dff:	01 c1                	add    %eax,%ecx
   10e01:	a1 04 d7 01 00       	mov    0x1d704,%eax
   10e06:	83 ec 04             	sub    $0x4,%esp
   10e09:	52                   	push   %edx
   10e0a:	51                   	push   %ecx
   10e0b:	50                   	push   %eax
   10e0c:	e8 9a 0b 00 00       	call   119ab <__bound>
   10e11:	83 c4 10             	add    $0x10,%esp
   10e14:	a3 14 d7 01 00       	mov    %eax,0x1d714
   10e19:	e8 11 fe ff ff       	call   10c2f <__c_setcursor>
   10e1e:	90                   	nop
   10e1f:	c9                   	leave  
   10e20:	c3                   	ret    

00010e21 <__cio_putchar_at>:
   10e21:	55                   	push   %ebp
   10e22:	89 e5                	mov    %esp,%ebp
   10e24:	83 ec 10             	sub    $0x10,%esp
   10e27:	8b 45 10             	mov    0x10(%ebp),%eax
   10e2a:	83 e0 7f             	and    $0x7f,%eax
   10e2d:	83 f8 0a             	cmp    $0xa,%eax
   10e30:	75 53                	jne    10e85 <__cio_putchar_at+0x64>
   10e32:	a1 08 d7 01 00       	mov    0x1d708,%eax
   10e37:	39 45 08             	cmp    %eax,0x8(%ebp)
   10e3a:	76 0a                	jbe    10e46 <__cio_putchar_at+0x25>
   10e3c:	a1 20 d7 01 00       	mov    0x1d720,%eax
   10e41:	89 45 fc             	mov    %eax,-0x4(%ebp)
   10e44:	eb 35                	jmp    10e7b <__cio_putchar_at+0x5a>
   10e46:	a1 00 d7 01 00       	mov    0x1d700,%eax
   10e4b:	39 45 08             	cmp    %eax,0x8(%ebp)
   10e4e:	72 0a                	jb     10e5a <__cio_putchar_at+0x39>
   10e50:	a1 08 d7 01 00       	mov    0x1d708,%eax
   10e55:	89 45 fc             	mov    %eax,-0x4(%ebp)
   10e58:	eb 21                	jmp    10e7b <__cio_putchar_at+0x5a>
   10e5a:	a1 00 d7 01 00       	mov    0x1d700,%eax
   10e5f:	83 e8 01             	sub    $0x1,%eax
   10e62:	89 45 fc             	mov    %eax,-0x4(%ebp)
   10e65:	eb 14                	jmp    10e7b <__cio_putchar_at+0x5a>
   10e67:	6a 20                	push   $0x20
   10e69:	ff 75 0c             	pushl  0xc(%ebp)
   10e6c:	ff 75 08             	pushl  0x8(%ebp)
   10e6f:	e8 4c fe ff ff       	call   10cc0 <__c_putchar_at>
   10e74:	83 c4 0c             	add    $0xc,%esp
   10e77:	83 45 08 01          	addl   $0x1,0x8(%ebp)
   10e7b:	8b 45 08             	mov    0x8(%ebp),%eax
   10e7e:	3b 45 fc             	cmp    -0x4(%ebp),%eax
   10e81:	76 e4                	jbe    10e67 <__cio_putchar_at+0x46>
   10e83:	eb 11                	jmp    10e96 <__cio_putchar_at+0x75>
   10e85:	ff 75 10             	pushl  0x10(%ebp)
   10e88:	ff 75 0c             	pushl  0xc(%ebp)
   10e8b:	ff 75 08             	pushl  0x8(%ebp)
   10e8e:	e8 2d fe ff ff       	call   10cc0 <__c_putchar_at>
   10e93:	83 c4 0c             	add    $0xc,%esp
   10e96:	90                   	nop
   10e97:	c9                   	leave  
   10e98:	c3                   	ret    

00010e99 <__cio_putchar>:
   10e99:	55                   	push   %ebp
   10e9a:	89 e5                	mov    %esp,%ebp
   10e9c:	83 ec 08             	sub    $0x8,%esp
   10e9f:	8b 15 14 d7 01 00    	mov    0x1d714,%edx
   10ea5:	a1 0c d7 01 00       	mov    0x1d70c,%eax
   10eaa:	39 c2                	cmp    %eax,%edx
   10eac:	76 25                	jbe    10ed3 <__cio_putchar+0x3a>
   10eae:	8b 15 14 d7 01 00    	mov    0x1d714,%edx
   10eb4:	a1 0c d7 01 00       	mov    0x1d70c,%eax
   10eb9:	29 c2                	sub    %eax,%edx
   10ebb:	89 d0                	mov    %edx,%eax
   10ebd:	83 ec 0c             	sub    $0xc,%esp
   10ec0:	50                   	push   %eax
   10ec1:	e8 65 02 00 00       	call   1112b <__cio_scroll>
   10ec6:	83 c4 10             	add    $0x10,%esp
   10ec9:	a1 0c d7 01 00       	mov    0x1d70c,%eax
   10ece:	a3 14 d7 01 00       	mov    %eax,0x1d714
   10ed3:	8b 45 08             	mov    0x8(%ebp),%eax
   10ed6:	0f b6 c0             	movzbl %al,%eax
   10ed9:	83 f8 0a             	cmp    $0xa,%eax
   10edc:	74 2e                	je     10f0c <__cio_putchar+0x73>
   10ede:	83 f8 0d             	cmp    $0xd,%eax
   10ee1:	74 51                	je     10f34 <__cio_putchar+0x9b>
   10ee3:	eb 5b                	jmp    10f40 <__cio_putchar+0xa7>
   10ee5:	8b 15 14 d7 01 00    	mov    0x1d714,%edx
   10eeb:	a1 10 d7 01 00       	mov    0x1d710,%eax
   10ef0:	83 ec 04             	sub    $0x4,%esp
   10ef3:	6a 20                	push   $0x20
   10ef5:	52                   	push   %edx
   10ef6:	50                   	push   %eax
   10ef7:	e8 c4 fd ff ff       	call   10cc0 <__c_putchar_at>
   10efc:	83 c4 10             	add    $0x10,%esp
   10eff:	a1 10 d7 01 00       	mov    0x1d710,%eax
   10f04:	83 c0 01             	add    $0x1,%eax
   10f07:	a3 10 d7 01 00       	mov    %eax,0x1d710
   10f0c:	8b 15 10 d7 01 00    	mov    0x1d710,%edx
   10f12:	a1 08 d7 01 00       	mov    0x1d708,%eax
   10f17:	39 c2                	cmp    %eax,%edx
   10f19:	76 ca                	jbe    10ee5 <__cio_putchar+0x4c>
   10f1b:	a1 00 d7 01 00       	mov    0x1d700,%eax
   10f20:	a3 10 d7 01 00       	mov    %eax,0x1d710
   10f25:	a1 14 d7 01 00       	mov    0x1d714,%eax
   10f2a:	83 c0 01             	add    $0x1,%eax
   10f2d:	a3 14 d7 01 00       	mov    %eax,0x1d714
   10f32:	eb 5b                	jmp    10f8f <__cio_putchar+0xf6>
   10f34:	a1 00 d7 01 00       	mov    0x1d700,%eax
   10f39:	a3 10 d7 01 00       	mov    %eax,0x1d710
   10f3e:	eb 4f                	jmp    10f8f <__cio_putchar+0xf6>
   10f40:	8b 15 14 d7 01 00    	mov    0x1d714,%edx
   10f46:	a1 10 d7 01 00       	mov    0x1d710,%eax
   10f4b:	83 ec 04             	sub    $0x4,%esp
   10f4e:	ff 75 08             	pushl  0x8(%ebp)
   10f51:	52                   	push   %edx
   10f52:	50                   	push   %eax
   10f53:	e8 68 fd ff ff       	call   10cc0 <__c_putchar_at>
   10f58:	83 c4 10             	add    $0x10,%esp
   10f5b:	a1 10 d7 01 00       	mov    0x1d710,%eax
   10f60:	83 c0 01             	add    $0x1,%eax
   10f63:	a3 10 d7 01 00       	mov    %eax,0x1d710
   10f68:	8b 15 10 d7 01 00    	mov    0x1d710,%edx
   10f6e:	a1 08 d7 01 00       	mov    0x1d708,%eax
   10f73:	39 c2                	cmp    %eax,%edx
   10f75:	76 17                	jbe    10f8e <__cio_putchar+0xf5>
   10f77:	a1 00 d7 01 00       	mov    0x1d700,%eax
   10f7c:	a3 10 d7 01 00       	mov    %eax,0x1d710
   10f81:	a1 14 d7 01 00       	mov    0x1d714,%eax
   10f86:	83 c0 01             	add    $0x1,%eax
   10f89:	a3 14 d7 01 00       	mov    %eax,0x1d714
   10f8e:	90                   	nop
   10f8f:	e8 9b fc ff ff       	call   10c2f <__c_setcursor>
   10f94:	90                   	nop
   10f95:	c9                   	leave  
   10f96:	c3                   	ret    

00010f97 <__cio_puts_at>:
   10f97:	55                   	push   %ebp
   10f98:	89 e5                	mov    %esp,%ebp
   10f9a:	83 ec 10             	sub    $0x10,%esp
   10f9d:	eb 15                	jmp    10fb4 <__cio_puts_at+0x1d>
   10f9f:	ff 75 fc             	pushl  -0x4(%ebp)
   10fa2:	ff 75 0c             	pushl  0xc(%ebp)
   10fa5:	ff 75 08             	pushl  0x8(%ebp)
   10fa8:	e8 74 fe ff ff       	call   10e21 <__cio_putchar_at>
   10fad:	83 c4 0c             	add    $0xc,%esp
   10fb0:	83 45 08 01          	addl   $0x1,0x8(%ebp)
   10fb4:	8b 45 10             	mov    0x10(%ebp),%eax
   10fb7:	8d 50 01             	lea    0x1(%eax),%edx
   10fba:	89 55 10             	mov    %edx,0x10(%ebp)
   10fbd:	0f b6 00             	movzbl (%eax),%eax
   10fc0:	0f be c0             	movsbl %al,%eax
   10fc3:	89 45 fc             	mov    %eax,-0x4(%ebp)
   10fc6:	83 7d fc 00          	cmpl   $0x0,-0x4(%ebp)
   10fca:	74 0a                	je     10fd6 <__cio_puts_at+0x3f>
   10fcc:	a1 20 d7 01 00       	mov    0x1d720,%eax
   10fd1:	39 45 08             	cmp    %eax,0x8(%ebp)
   10fd4:	76 c9                	jbe    10f9f <__cio_puts_at+0x8>
   10fd6:	90                   	nop
   10fd7:	c9                   	leave  
   10fd8:	c3                   	ret    

00010fd9 <__cio_puts>:
   10fd9:	55                   	push   %ebp
   10fda:	89 e5                	mov    %esp,%ebp
   10fdc:	83 ec 18             	sub    $0x18,%esp
   10fdf:	eb 0e                	jmp    10fef <__cio_puts+0x16>
   10fe1:	83 ec 0c             	sub    $0xc,%esp
   10fe4:	ff 75 f4             	pushl  -0xc(%ebp)
   10fe7:	e8 ad fe ff ff       	call   10e99 <__cio_putchar>
   10fec:	83 c4 10             	add    $0x10,%esp
   10fef:	8b 45 08             	mov    0x8(%ebp),%eax
   10ff2:	8d 50 01             	lea    0x1(%eax),%edx
   10ff5:	89 55 08             	mov    %edx,0x8(%ebp)
   10ff8:	0f b6 00             	movzbl (%eax),%eax
   10ffb:	0f be c0             	movsbl %al,%eax
   10ffe:	89 45 f4             	mov    %eax,-0xc(%ebp)
   11001:	83 7d f4 00          	cmpl   $0x0,-0xc(%ebp)
   11005:	75 da                	jne    10fe1 <__cio_puts+0x8>
   11007:	90                   	nop
   11008:	c9                   	leave  
   11009:	c3                   	ret    

0001100a <__cio_write>:
   1100a:	55                   	push   %ebp
   1100b:	89 e5                	mov    %esp,%ebp
   1100d:	83 ec 18             	sub    $0x18,%esp
   11010:	c7 45 f4 00 00 00 00 	movl   $0x0,-0xc(%ebp)
   11017:	eb 1e                	jmp    11037 <__cio_write+0x2d>
   11019:	8b 55 f4             	mov    -0xc(%ebp),%edx
   1101c:	8b 45 08             	mov    0x8(%ebp),%eax
   1101f:	01 d0                	add    %edx,%eax
   11021:	0f b6 00             	movzbl (%eax),%eax
   11024:	0f be c0             	movsbl %al,%eax
   11027:	83 ec 0c             	sub    $0xc,%esp
   1102a:	50                   	push   %eax
   1102b:	e8 69 fe ff ff       	call   10e99 <__cio_putchar>
   11030:	83 c4 10             	add    $0x10,%esp
   11033:	83 45 f4 01          	addl   $0x1,-0xc(%ebp)
   11037:	8b 45 f4             	mov    -0xc(%ebp),%eax
   1103a:	3b 45 0c             	cmp    0xc(%ebp),%eax
   1103d:	7c da                	jl     11019 <__cio_write+0xf>
   1103f:	90                   	nop
   11040:	c9                   	leave  
   11041:	c3                   	ret    

00011042 <__cio_clearscroll>:
   11042:	55                   	push   %ebp
   11043:	89 e5                	mov    %esp,%ebp
   11045:	83 ec 10             	sub    $0x10,%esp
   11048:	8b 15 08 d7 01 00    	mov    0x1d708,%edx
   1104e:	a1 00 d7 01 00       	mov    0x1d700,%eax
   11053:	29 c2                	sub    %eax,%edx
   11055:	89 d0                	mov    %edx,%eax
   11057:	83 c0 01             	add    $0x1,%eax
   1105a:	89 45 f0             	mov    %eax,-0x10(%ebp)
   1105d:	a1 04 d7 01 00       	mov    0x1d704,%eax
   11062:	89 45 fc             	mov    %eax,-0x4(%ebp)
   11065:	eb 47                	jmp    110ae <__cio_clearscroll+0x6c>
   11067:	8b 55 fc             	mov    -0x4(%ebp),%edx
   1106a:	89 d0                	mov    %edx,%eax
   1106c:	c1 e0 02             	shl    $0x2,%eax
   1106f:	01 d0                	add    %edx,%eax
   11071:	c1 e0 04             	shl    $0x4,%eax
   11074:	89 c2                	mov    %eax,%edx
   11076:	a1 00 d7 01 00       	mov    0x1d700,%eax
   1107b:	01 d0                	add    %edx,%eax
   1107d:	05 00 c0 05 00       	add    $0x5c000,%eax
   11082:	01 c0                	add    %eax,%eax
   11084:	89 45 f4             	mov    %eax,-0xc(%ebp)
   11087:	c7 45 f8 00 00 00 00 	movl   $0x0,-0x8(%ebp)
   1108e:	eb 12                	jmp    110a2 <__cio_clearscroll+0x60>
   11090:	8b 45 f4             	mov    -0xc(%ebp),%eax
   11093:	8d 50 02             	lea    0x2(%eax),%edx
   11096:	89 55 f4             	mov    %edx,-0xc(%ebp)
   11099:	66 c7 00 20 07       	movw   $0x720,(%eax)
   1109e:	83 45 f8 01          	addl   $0x1,-0x8(%ebp)
   110a2:	8b 45 f8             	mov    -0x8(%ebp),%eax
   110a5:	3b 45 f0             	cmp    -0x10(%ebp),%eax
   110a8:	72 e6                	jb     11090 <__cio_clearscroll+0x4e>
   110aa:	83 45 fc 01          	addl   $0x1,-0x4(%ebp)
   110ae:	a1 0c d7 01 00       	mov    0x1d70c,%eax
   110b3:	39 45 fc             	cmp    %eax,-0x4(%ebp)
   110b6:	76 af                	jbe    11067 <__cio_clearscroll+0x25>
   110b8:	90                   	nop
   110b9:	c9                   	leave  
   110ba:	c3                   	ret    

000110bb <__cio_clearscreen>:
   110bb:	55                   	push   %ebp
   110bc:	89 e5                	mov    %esp,%ebp
   110be:	83 ec 10             	sub    $0x10,%esp
   110c1:	8b 15 1c d7 01 00    	mov    0x1d71c,%edx
   110c7:	89 d0                	mov    %edx,%eax
   110c9:	c1 e0 02             	shl    $0x2,%eax
   110cc:	01 d0                	add    %edx,%eax
   110ce:	c1 e0 04             	shl    $0x4,%eax
   110d1:	89 c2                	mov    %eax,%edx
   110d3:	a1 18 d7 01 00       	mov    0x1d718,%eax
   110d8:	01 d0                	add    %edx,%eax
   110da:	05 00 c0 05 00       	add    $0x5c000,%eax
   110df:	01 c0                	add    %eax,%eax
   110e1:	89 45 fc             	mov    %eax,-0x4(%ebp)
   110e4:	8b 15 24 d7 01 00    	mov    0x1d724,%edx
   110ea:	a1 1c d7 01 00       	mov    0x1d71c,%eax
   110ef:	29 c2                	sub    %eax,%edx
   110f1:	89 d0                	mov    %edx,%eax
   110f3:	8d 48 01             	lea    0x1(%eax),%ecx
   110f6:	8b 15 20 d7 01 00    	mov    0x1d720,%edx
   110fc:	a1 18 d7 01 00       	mov    0x1d718,%eax
   11101:	29 c2                	sub    %eax,%edx
   11103:	89 d0                	mov    %edx,%eax
   11105:	83 c0 01             	add    $0x1,%eax
   11108:	0f af c1             	imul   %ecx,%eax
   1110b:	89 45 f8             	mov    %eax,-0x8(%ebp)
   1110e:	eb 12                	jmp    11122 <__cio_clearscreen+0x67>
   11110:	8b 45 fc             	mov    -0x4(%ebp),%eax
   11113:	8d 50 02             	lea    0x2(%eax),%edx
   11116:	89 55 fc             	mov    %edx,-0x4(%ebp)
   11119:	66 c7 00 20 07       	movw   $0x720,(%eax)
   1111e:	83 6d f8 01          	subl   $0x1,-0x8(%ebp)
   11122:	83 7d f8 00          	cmpl   $0x0,-0x8(%ebp)
   11126:	75 e8                	jne    11110 <__cio_clearscreen+0x55>
   11128:	90                   	nop
   11129:	c9                   	leave  
   1112a:	c3                   	ret    

0001112b <__cio_scroll>:
   1112b:	55                   	push   %ebp
   1112c:	89 e5                	mov    %esp,%ebp
   1112e:	83 ec 28             	sub    $0x28,%esp
   11131:	8b 15 08 d7 01 00    	mov    0x1d708,%edx
   11137:	a1 00 d7 01 00       	mov    0x1d700,%eax
   1113c:	29 c2                	sub    %eax,%edx
   1113e:	89 d0                	mov    %edx,%eax
   11140:	83 c0 01             	add    $0x1,%eax
   11143:	89 45 e4             	mov    %eax,-0x1c(%ebp)
   11146:	8b 15 0c d7 01 00    	mov    0x1d70c,%edx
   1114c:	a1 04 d7 01 00       	mov    0x1d704,%eax
   11151:	29 c2                	sub    %eax,%edx
   11153:	89 d0                	mov    %edx,%eax
   11155:	39 45 08             	cmp    %eax,0x8(%ebp)
   11158:	76 23                	jbe    1117d <__cio_scroll+0x52>
   1115a:	e8 e3 fe ff ff       	call   11042 <__cio_clearscroll>
   1115f:	a1 00 d7 01 00       	mov    0x1d700,%eax
   11164:	a3 10 d7 01 00       	mov    %eax,0x1d710
   11169:	a1 04 d7 01 00       	mov    0x1d704,%eax
   1116e:	a3 14 d7 01 00       	mov    %eax,0x1d714
   11173:	e8 b7 fa ff ff       	call   10c2f <__c_setcursor>
   11178:	e9 ea 00 00 00       	jmp    11267 <__cio_scroll+0x13c>
   1117d:	a1 04 d7 01 00       	mov    0x1d704,%eax
   11182:	89 45 ec             	mov    %eax,-0x14(%ebp)
   11185:	eb 76                	jmp    111fd <__cio_scroll+0xd2>
   11187:	8b 55 ec             	mov    -0x14(%ebp),%edx
   1118a:	8b 45 08             	mov    0x8(%ebp),%eax
   1118d:	01 c2                	add    %eax,%edx
   1118f:	89 d0                	mov    %edx,%eax
   11191:	c1 e0 02             	shl    $0x2,%eax
   11194:	01 d0                	add    %edx,%eax
   11196:	c1 e0 04             	shl    $0x4,%eax
   11199:	89 c2                	mov    %eax,%edx
   1119b:	a1 00 d7 01 00       	mov    0x1d700,%eax
   111a0:	01 d0                	add    %edx,%eax
   111a2:	05 00 c0 05 00       	add    $0x5c000,%eax
   111a7:	01 c0                	add    %eax,%eax
   111a9:	89 45 f4             	mov    %eax,-0xc(%ebp)
   111ac:	8b 55 ec             	mov    -0x14(%ebp),%edx
   111af:	89 d0                	mov    %edx,%eax
   111b1:	c1 e0 02             	shl    $0x2,%eax
   111b4:	01 d0                	add    %edx,%eax
   111b6:	c1 e0 04             	shl    $0x4,%eax
   111b9:	89 c2                	mov    %eax,%edx
   111bb:	a1 00 d7 01 00       	mov    0x1d700,%eax
   111c0:	01 d0                	add    %edx,%eax
   111c2:	05 00 c0 05 00       	add    $0x5c000,%eax
   111c7:	01 c0                	add    %eax,%eax
   111c9:	89 45 f0             	mov    %eax,-0x10(%ebp)
   111cc:	c7 45 e8 00 00 00 00 	movl   $0x0,-0x18(%ebp)
   111d3:	eb 1c                	jmp    111f1 <__cio_scroll+0xc6>
   111d5:	8b 55 f4             	mov    -0xc(%ebp),%edx
   111d8:	8d 42 02             	lea    0x2(%edx),%eax
   111db:	89 45 f4             	mov    %eax,-0xc(%ebp)
   111de:	8b 45 f0             	mov    -0x10(%ebp),%eax
   111e1:	8d 48 02             	lea    0x2(%eax),%ecx
   111e4:	89 4d f0             	mov    %ecx,-0x10(%ebp)
   111e7:	0f b7 12             	movzwl (%edx),%edx
   111ea:	66 89 10             	mov    %dx,(%eax)
   111ed:	83 45 e8 01          	addl   $0x1,-0x18(%ebp)
   111f1:	8b 45 e8             	mov    -0x18(%ebp),%eax
   111f4:	3b 45 e4             	cmp    -0x1c(%ebp),%eax
   111f7:	7c dc                	jl     111d5 <__cio_scroll+0xaa>
   111f9:	83 45 ec 01          	addl   $0x1,-0x14(%ebp)
   111fd:	a1 0c d7 01 00       	mov    0x1d70c,%eax
   11202:	2b 45 08             	sub    0x8(%ebp),%eax
   11205:	89 c2                	mov    %eax,%edx
   11207:	8b 45 ec             	mov    -0x14(%ebp),%eax
   1120a:	39 c2                	cmp    %eax,%edx
   1120c:	0f 83 75 ff ff ff    	jae    11187 <__cio_scroll+0x5c>
   11212:	eb 47                	jmp    1125b <__cio_scroll+0x130>
   11214:	8b 55 ec             	mov    -0x14(%ebp),%edx
   11217:	89 d0                	mov    %edx,%eax
   11219:	c1 e0 02             	shl    $0x2,%eax
   1121c:	01 d0                	add    %edx,%eax
   1121e:	c1 e0 04             	shl    $0x4,%eax
   11221:	89 c2                	mov    %eax,%edx
   11223:	a1 00 d7 01 00       	mov    0x1d700,%eax
   11228:	01 d0                	add    %edx,%eax
   1122a:	05 00 c0 05 00       	add    $0x5c000,%eax
   1122f:	01 c0                	add    %eax,%eax
   11231:	89 45 f0             	mov    %eax,-0x10(%ebp)
   11234:	c7 45 e8 00 00 00 00 	movl   $0x0,-0x18(%ebp)
   1123b:	eb 12                	jmp    1124f <__cio_scroll+0x124>
   1123d:	8b 45 f0             	mov    -0x10(%ebp),%eax
   11240:	8d 50 02             	lea    0x2(%eax),%edx
   11243:	89 55 f0             	mov    %edx,-0x10(%ebp)
   11246:	66 c7 00 20 07       	movw   $0x720,(%eax)
   1124b:	83 45 e8 01          	addl   $0x1,-0x18(%ebp)
   1124f:	8b 45 e8             	mov    -0x18(%ebp),%eax
   11252:	3b 45 e4             	cmp    -0x1c(%ebp),%eax
   11255:	7c e6                	jl     1123d <__cio_scroll+0x112>
   11257:	83 45 ec 01          	addl   $0x1,-0x14(%ebp)
   1125b:	8b 55 ec             	mov    -0x14(%ebp),%edx
   1125e:	a1 0c d7 01 00       	mov    0x1d70c,%eax
   11263:	39 c2                	cmp    %eax,%edx
   11265:	76 ad                	jbe    11214 <__cio_scroll+0xe9>
   11267:	c9                   	leave  
   11268:	c3                   	ret    

00011269 <pad>:
   11269:	55                   	push   %ebp
   1126a:	89 e5                	mov    %esp,%ebp
   1126c:	83 ec 08             	sub    $0x8,%esp
   1126f:	eb 39                	jmp    112aa <pad+0x41>
   11271:	83 7d 08 ff          	cmpl   $0xffffffff,0x8(%ebp)
   11275:	75 06                	jne    1127d <pad+0x14>
   11277:	83 7d 0c ff          	cmpl   $0xffffffff,0xc(%ebp)
   1127b:	74 1a                	je     11297 <pad+0x2e>
   1127d:	8b 4d 14             	mov    0x14(%ebp),%ecx
   11280:	8b 55 0c             	mov    0xc(%ebp),%edx
   11283:	8b 45 08             	mov    0x8(%ebp),%eax
   11286:	51                   	push   %ecx
   11287:	52                   	push   %edx
   11288:	50                   	push   %eax
   11289:	e8 93 fb ff ff       	call   10e21 <__cio_putchar_at>
   1128e:	83 c4 0c             	add    $0xc,%esp
   11291:	83 45 08 01          	addl   $0x1,0x8(%ebp)
   11295:	eb 0f                	jmp    112a6 <pad+0x3d>
   11297:	8b 45 14             	mov    0x14(%ebp),%eax
   1129a:	83 ec 0c             	sub    $0xc,%esp
   1129d:	50                   	push   %eax
   1129e:	e8 f6 fb ff ff       	call   10e99 <__cio_putchar>
   112a3:	83 c4 10             	add    $0x10,%esp
   112a6:	83 6d 10 01          	subl   $0x1,0x10(%ebp)
   112aa:	83 7d 10 00          	cmpl   $0x0,0x10(%ebp)
   112ae:	7f c1                	jg     11271 <pad+0x8>
   112b0:	8b 45 08             	mov    0x8(%ebp),%eax
   112b3:	c9                   	leave  
   112b4:	c3                   	ret    

000112b5 <padstr>:
   112b5:	55                   	push   %ebp
   112b6:	89 e5                	mov    %esp,%ebp
   112b8:	83 ec 18             	sub    $0x18,%esp
   112bb:	83 7d 14 00          	cmpl   $0x0,0x14(%ebp)
   112bf:	79 11                	jns    112d2 <padstr+0x1d>
   112c1:	83 ec 0c             	sub    $0xc,%esp
   112c4:	ff 75 10             	pushl  0x10(%ebp)
   112c7:	e8 75 07 00 00       	call   11a41 <__strlen>
   112cc:	83 c4 10             	add    $0x10,%esp
   112cf:	89 45 14             	mov    %eax,0x14(%ebp)
   112d2:	8b 45 18             	mov    0x18(%ebp),%eax
   112d5:	2b 45 14             	sub    0x14(%ebp),%eax
   112d8:	89 45 f4             	mov    %eax,-0xc(%ebp)
   112db:	83 7d f4 00          	cmpl   $0x0,-0xc(%ebp)
   112df:	7e 1d                	jle    112fe <padstr+0x49>
   112e1:	83 7d 1c 00          	cmpl   $0x0,0x1c(%ebp)
   112e5:	75 17                	jne    112fe <padstr+0x49>
   112e7:	ff 75 20             	pushl  0x20(%ebp)
   112ea:	ff 75 f4             	pushl  -0xc(%ebp)
   112ed:	ff 75 0c             	pushl  0xc(%ebp)
   112f0:	ff 75 08             	pushl  0x8(%ebp)
   112f3:	e8 71 ff ff ff       	call   11269 <pad>
   112f8:	83 c4 10             	add    $0x10,%esp
   112fb:	89 45 08             	mov    %eax,0x8(%ebp)
   112fe:	83 7d 08 ff          	cmpl   $0xffffffff,0x8(%ebp)
   11302:	75 06                	jne    1130a <padstr+0x55>
   11304:	83 7d 0c ff          	cmpl   $0xffffffff,0xc(%ebp)
   11308:	74 1e                	je     11328 <padstr+0x73>
   1130a:	8b 55 0c             	mov    0xc(%ebp),%edx
   1130d:	8b 45 08             	mov    0x8(%ebp),%eax
   11310:	83 ec 04             	sub    $0x4,%esp
   11313:	ff 75 10             	pushl  0x10(%ebp)
   11316:	52                   	push   %edx
   11317:	50                   	push   %eax
   11318:	e8 7a fc ff ff       	call   10f97 <__cio_puts_at>
   1131d:	83 c4 10             	add    $0x10,%esp
   11320:	8b 45 14             	mov    0x14(%ebp),%eax
   11323:	01 45 08             	add    %eax,0x8(%ebp)
   11326:	eb 0e                	jmp    11336 <padstr+0x81>
   11328:	83 ec 0c             	sub    $0xc,%esp
   1132b:	ff 75 10             	pushl  0x10(%ebp)
   1132e:	e8 a6 fc ff ff       	call   10fd9 <__cio_puts>
   11333:	83 c4 10             	add    $0x10,%esp
   11336:	83 7d f4 00          	cmpl   $0x0,-0xc(%ebp)
   1133a:	7e 1d                	jle    11359 <padstr+0xa4>
   1133c:	83 7d 1c 00          	cmpl   $0x0,0x1c(%ebp)
   11340:	74 17                	je     11359 <padstr+0xa4>
   11342:	ff 75 20             	pushl  0x20(%ebp)
   11345:	ff 75 f4             	pushl  -0xc(%ebp)
   11348:	ff 75 0c             	pushl  0xc(%ebp)
   1134b:	ff 75 08             	pushl  0x8(%ebp)
   1134e:	e8 16 ff ff ff       	call   11269 <pad>
   11353:	83 c4 10             	add    $0x10,%esp
   11356:	89 45 08             	mov    %eax,0x8(%ebp)
   11359:	8b 45 08             	mov    0x8(%ebp),%eax
   1135c:	c9                   	leave  
   1135d:	c3                   	ret    

0001135e <__c_do_printf>:
   1135e:	55                   	push   %ebp
   1135f:	89 e5                	mov    %esp,%ebp
   11361:	83 ec 38             	sub    $0x38,%esp
   11364:	8b 45 10             	mov    0x10(%ebp),%eax
   11367:	8b 00                	mov    (%eax),%eax
   11369:	89 45 f4             	mov    %eax,-0xc(%ebp)
   1136c:	8b 45 10             	mov    0x10(%ebp),%eax
   1136f:	83 c0 04             	add    $0x4,%eax
   11372:	89 45 f0             	mov    %eax,-0x10(%ebp)
   11375:	e9 9d 02 00 00       	jmp    11617 <__c_do_printf+0x2b9>
   1137a:	80 7d ef 25          	cmpb   $0x25,-0x11(%ebp)
   1137e:	0f 85 3b 02 00 00    	jne    115bf <__c_do_printf+0x261>
   11384:	c7 45 e8 00 00 00 00 	movl   $0x0,-0x18(%ebp)
   1138b:	c7 45 e0 20 00 00 00 	movl   $0x20,-0x20(%ebp)
   11392:	c7 45 e4 00 00 00 00 	movl   $0x0,-0x1c(%ebp)
   11399:	8b 45 f4             	mov    -0xc(%ebp),%eax
   1139c:	8d 50 01             	lea    0x1(%eax),%edx
   1139f:	89 55 f4             	mov    %edx,-0xc(%ebp)
   113a2:	0f b6 00             	movzbl (%eax),%eax
   113a5:	88 45 ef             	mov    %al,-0x11(%ebp)
   113a8:	80 7d ef 2d          	cmpb   $0x2d,-0x11(%ebp)
   113ac:	75 16                	jne    113c4 <__c_do_printf+0x66>
   113ae:	c7 45 e8 01 00 00 00 	movl   $0x1,-0x18(%ebp)
   113b5:	8b 45 f4             	mov    -0xc(%ebp),%eax
   113b8:	8d 50 01             	lea    0x1(%eax),%edx
   113bb:	89 55 f4             	mov    %edx,-0xc(%ebp)
   113be:	0f b6 00             	movzbl (%eax),%eax
   113c1:	88 45 ef             	mov    %al,-0x11(%ebp)
   113c4:	80 7d ef 30          	cmpb   $0x30,-0x11(%ebp)
   113c8:	75 40                	jne    1140a <__c_do_printf+0xac>
   113ca:	c7 45 e0 30 00 00 00 	movl   $0x30,-0x20(%ebp)
   113d1:	8b 45 f4             	mov    -0xc(%ebp),%eax
   113d4:	8d 50 01             	lea    0x1(%eax),%edx
   113d7:	89 55 f4             	mov    %edx,-0xc(%ebp)
   113da:	0f b6 00             	movzbl (%eax),%eax
   113dd:	88 45 ef             	mov    %al,-0x11(%ebp)
   113e0:	eb 28                	jmp    1140a <__c_do_printf+0xac>
   113e2:	8b 55 e4             	mov    -0x1c(%ebp),%edx
   113e5:	89 d0                	mov    %edx,%eax
   113e7:	c1 e0 02             	shl    $0x2,%eax
   113ea:	01 d0                	add    %edx,%eax
   113ec:	01 c0                	add    %eax,%eax
   113ee:	89 45 e4             	mov    %eax,-0x1c(%ebp)
   113f1:	0f be 45 ef          	movsbl -0x11(%ebp),%eax
   113f5:	83 e8 30             	sub    $0x30,%eax
   113f8:	01 45 e4             	add    %eax,-0x1c(%ebp)
   113fb:	8b 45 f4             	mov    -0xc(%ebp),%eax
   113fe:	8d 50 01             	lea    0x1(%eax),%edx
   11401:	89 55 f4             	mov    %edx,-0xc(%ebp)
   11404:	0f b6 00             	movzbl (%eax),%eax
   11407:	88 45 ef             	mov    %al,-0x11(%ebp)
   1140a:	80 7d ef 2f          	cmpb   $0x2f,-0x11(%ebp)
   1140e:	7e 06                	jle    11416 <__c_do_printf+0xb8>
   11410:	80 7d ef 39          	cmpb   $0x39,-0x11(%ebp)
   11414:	7e cc                	jle    113e2 <__c_do_printf+0x84>
   11416:	0f be 45 ef          	movsbl -0x11(%ebp),%eax
   1141a:	83 e8 63             	sub    $0x63,%eax
   1141d:	83 f8 15             	cmp    $0x15,%eax
   11420:	0f 87 f1 01 00 00    	ja     11617 <__c_do_printf+0x2b9>
   11426:	8b 04 85 38 92 01 00 	mov    0x19238(,%eax,4),%eax
   1142d:	ff e0                	jmp    *%eax
   1142f:	8b 45 f0             	mov    -0x10(%ebp),%eax
   11432:	8d 50 04             	lea    0x4(%eax),%edx
   11435:	89 55 f0             	mov    %edx,-0x10(%ebp)
   11438:	8b 00                	mov    (%eax),%eax
   1143a:	88 45 ef             	mov    %al,-0x11(%ebp)
   1143d:	0f b6 45 ef          	movzbl -0x11(%ebp),%eax
   11441:	88 45 cc             	mov    %al,-0x34(%ebp)
   11444:	c6 45 cd 00          	movb   $0x0,-0x33(%ebp)
   11448:	83 ec 04             	sub    $0x4,%esp
   1144b:	ff 75 e0             	pushl  -0x20(%ebp)
   1144e:	ff 75 e8             	pushl  -0x18(%ebp)
   11451:	ff 75 e4             	pushl  -0x1c(%ebp)
   11454:	6a 01                	push   $0x1
   11456:	8d 45 cc             	lea    -0x34(%ebp),%eax
   11459:	50                   	push   %eax
   1145a:	ff 75 0c             	pushl  0xc(%ebp)
   1145d:	ff 75 08             	pushl  0x8(%ebp)
   11460:	e8 50 fe ff ff       	call   112b5 <padstr>
   11465:	83 c4 20             	add    $0x20,%esp
   11468:	89 45 08             	mov    %eax,0x8(%ebp)
   1146b:	e9 a7 01 00 00       	jmp    11617 <__c_do_printf+0x2b9>
   11470:	8b 45 f0             	mov    -0x10(%ebp),%eax
   11473:	8d 50 04             	lea    0x4(%eax),%edx
   11476:	89 55 f0             	mov    %edx,-0x10(%ebp)
   11479:	8b 00                	mov    (%eax),%eax
   1147b:	83 ec 08             	sub    $0x8,%esp
   1147e:	50                   	push   %eax
   1147f:	8d 45 cc             	lea    -0x34(%ebp),%eax
   11482:	50                   	push   %eax
   11483:	e8 8e 0a 00 00       	call   11f16 <__cvtdec>
   11488:	83 c4 10             	add    $0x10,%esp
   1148b:	89 45 dc             	mov    %eax,-0x24(%ebp)
   1148e:	83 ec 04             	sub    $0x4,%esp
   11491:	ff 75 e0             	pushl  -0x20(%ebp)
   11494:	ff 75 e8             	pushl  -0x18(%ebp)
   11497:	ff 75 e4             	pushl  -0x1c(%ebp)
   1149a:	ff 75 dc             	pushl  -0x24(%ebp)
   1149d:	8d 45 cc             	lea    -0x34(%ebp),%eax
   114a0:	50                   	push   %eax
   114a1:	ff 75 0c             	pushl  0xc(%ebp)
   114a4:	ff 75 08             	pushl  0x8(%ebp)
   114a7:	e8 09 fe ff ff       	call   112b5 <padstr>
   114ac:	83 c4 20             	add    $0x20,%esp
   114af:	89 45 08             	mov    %eax,0x8(%ebp)
   114b2:	e9 60 01 00 00       	jmp    11617 <__c_do_printf+0x2b9>
   114b7:	8b 45 f0             	mov    -0x10(%ebp),%eax
   114ba:	8d 50 04             	lea    0x4(%eax),%edx
   114bd:	89 55 f0             	mov    %edx,-0x10(%ebp)
   114c0:	8b 00                	mov    (%eax),%eax
   114c2:	89 45 d8             	mov    %eax,-0x28(%ebp)
   114c5:	83 ec 04             	sub    $0x4,%esp
   114c8:	ff 75 e0             	pushl  -0x20(%ebp)
   114cb:	ff 75 e8             	pushl  -0x18(%ebp)
   114ce:	ff 75 e4             	pushl  -0x1c(%ebp)
   114d1:	6a ff                	push   $0xffffffff
   114d3:	ff 75 d8             	pushl  -0x28(%ebp)
   114d6:	ff 75 0c             	pushl  0xc(%ebp)
   114d9:	ff 75 08             	pushl  0x8(%ebp)
   114dc:	e8 d4 fd ff ff       	call   112b5 <padstr>
   114e1:	83 c4 20             	add    $0x20,%esp
   114e4:	89 45 08             	mov    %eax,0x8(%ebp)
   114e7:	e9 2b 01 00 00       	jmp    11617 <__c_do_printf+0x2b9>
   114ec:	8b 45 f0             	mov    -0x10(%ebp),%eax
   114ef:	8d 50 04             	lea    0x4(%eax),%edx
   114f2:	89 55 f0             	mov    %edx,-0x10(%ebp)
   114f5:	8b 00                	mov    (%eax),%eax
   114f7:	83 ec 08             	sub    $0x8,%esp
   114fa:	50                   	push   %eax
   114fb:	8d 45 cc             	lea    -0x34(%ebp),%eax
   114fe:	50                   	push   %eax
   114ff:	e8 8b 0a 00 00       	call   11f8f <__cvthex>
   11504:	83 c4 10             	add    $0x10,%esp
   11507:	89 45 dc             	mov    %eax,-0x24(%ebp)
   1150a:	83 ec 04             	sub    $0x4,%esp
   1150d:	ff 75 e0             	pushl  -0x20(%ebp)
   11510:	ff 75 e8             	pushl  -0x18(%ebp)
   11513:	ff 75 e4             	pushl  -0x1c(%ebp)
   11516:	ff 75 dc             	pushl  -0x24(%ebp)
   11519:	8d 45 cc             	lea    -0x34(%ebp),%eax
   1151c:	50                   	push   %eax
   1151d:	ff 75 0c             	pushl  0xc(%ebp)
   11520:	ff 75 08             	pushl  0x8(%ebp)
   11523:	e8 8d fd ff ff       	call   112b5 <padstr>
   11528:	83 c4 20             	add    $0x20,%esp
   1152b:	89 45 08             	mov    %eax,0x8(%ebp)
   1152e:	e9 e4 00 00 00       	jmp    11617 <__c_do_printf+0x2b9>
   11533:	8b 45 f0             	mov    -0x10(%ebp),%eax
   11536:	8d 50 04             	lea    0x4(%eax),%edx
   11539:	89 55 f0             	mov    %edx,-0x10(%ebp)
   1153c:	8b 00                	mov    (%eax),%eax
   1153e:	83 ec 08             	sub    $0x8,%esp
   11541:	50                   	push   %eax
   11542:	8d 45 cc             	lea    -0x34(%ebp),%eax
   11545:	50                   	push   %eax
   11546:	e8 c3 0a 00 00       	call   1200e <__cvtoct>
   1154b:	83 c4 10             	add    $0x10,%esp
   1154e:	89 45 dc             	mov    %eax,-0x24(%ebp)
   11551:	83 ec 04             	sub    $0x4,%esp
   11554:	ff 75 e0             	pushl  -0x20(%ebp)
   11557:	ff 75 e8             	pushl  -0x18(%ebp)
   1155a:	ff 75 e4             	pushl  -0x1c(%ebp)
   1155d:	ff 75 dc             	pushl  -0x24(%ebp)
   11560:	8d 45 cc             	lea    -0x34(%ebp),%eax
   11563:	50                   	push   %eax
   11564:	ff 75 0c             	pushl  0xc(%ebp)
   11567:	ff 75 08             	pushl  0x8(%ebp)
   1156a:	e8 46 fd ff ff       	call   112b5 <padstr>
   1156f:	83 c4 20             	add    $0x20,%esp
   11572:	89 45 08             	mov    %eax,0x8(%ebp)
   11575:	e9 9d 00 00 00       	jmp    11617 <__c_do_printf+0x2b9>
   1157a:	8b 45 f0             	mov    -0x10(%ebp),%eax
   1157d:	8d 50 04             	lea    0x4(%eax),%edx
   11580:	89 55 f0             	mov    %edx,-0x10(%ebp)
   11583:	8b 00                	mov    (%eax),%eax
   11585:	83 ec 08             	sub    $0x8,%esp
   11588:	50                   	push   %eax
   11589:	8d 45 cc             	lea    -0x34(%ebp),%eax
   1158c:	50                   	push   %eax
   1158d:	e8 cb 09 00 00       	call   11f5d <__cvtuns>
   11592:	83 c4 10             	add    $0x10,%esp
   11595:	89 45 dc             	mov    %eax,-0x24(%ebp)
   11598:	83 ec 04             	sub    $0x4,%esp
   1159b:	ff 75 e0             	pushl  -0x20(%ebp)
   1159e:	ff 75 e8             	pushl  -0x18(%ebp)
   115a1:	ff 75 e4             	pushl  -0x1c(%ebp)
   115a4:	ff 75 dc             	pushl  -0x24(%ebp)
   115a7:	8d 45 cc             	lea    -0x34(%ebp),%eax
   115aa:	50                   	push   %eax
   115ab:	ff 75 0c             	pushl  0xc(%ebp)
   115ae:	ff 75 08             	pushl  0x8(%ebp)
   115b1:	e8 ff fc ff ff       	call   112b5 <padstr>
   115b6:	83 c4 20             	add    $0x20,%esp
   115b9:	89 45 08             	mov    %eax,0x8(%ebp)
   115bc:	90                   	nop
   115bd:	eb 58                	jmp    11617 <__c_do_printf+0x2b9>
   115bf:	83 7d 08 ff          	cmpl   $0xffffffff,0x8(%ebp)
   115c3:	75 06                	jne    115cb <__c_do_printf+0x26d>
   115c5:	83 7d 0c ff          	cmpl   $0xffffffff,0xc(%ebp)
   115c9:	74 3c                	je     11607 <__c_do_printf+0x2a9>
   115cb:	0f be 4d ef          	movsbl -0x11(%ebp),%ecx
   115cf:	8b 55 0c             	mov    0xc(%ebp),%edx
   115d2:	8b 45 08             	mov    0x8(%ebp),%eax
   115d5:	83 ec 04             	sub    $0x4,%esp
   115d8:	51                   	push   %ecx
   115d9:	52                   	push   %edx
   115da:	50                   	push   %eax
   115db:	e8 41 f8 ff ff       	call   10e21 <__cio_putchar_at>
   115e0:	83 c4 10             	add    $0x10,%esp
   115e3:	0f be 45 ef          	movsbl -0x11(%ebp),%eax
   115e7:	83 f8 0a             	cmp    $0xa,%eax
   115ea:	74 07                	je     115f3 <__c_do_printf+0x295>
   115ec:	83 f8 0d             	cmp    $0xd,%eax
   115ef:	74 06                	je     115f7 <__c_do_printf+0x299>
   115f1:	eb 0e                	jmp    11601 <__c_do_printf+0x2a3>
   115f3:	83 45 0c 01          	addl   $0x1,0xc(%ebp)
   115f7:	a1 00 d7 01 00       	mov    0x1d700,%eax
   115fc:	89 45 08             	mov    %eax,0x8(%ebp)
   115ff:	eb 04                	jmp    11605 <__c_do_printf+0x2a7>
   11601:	83 45 08 01          	addl   $0x1,0x8(%ebp)
   11605:	eb 10                	jmp    11617 <__c_do_printf+0x2b9>
   11607:	0f be 45 ef          	movsbl -0x11(%ebp),%eax
   1160b:	83 ec 0c             	sub    $0xc,%esp
   1160e:	50                   	push   %eax
   1160f:	e8 85 f8 ff ff       	call   10e99 <__cio_putchar>
   11614:	83 c4 10             	add    $0x10,%esp
   11617:	8b 45 f4             	mov    -0xc(%ebp),%eax
   1161a:	8d 50 01             	lea    0x1(%eax),%edx
   1161d:	89 55 f4             	mov    %edx,-0xc(%ebp)
   11620:	0f b6 00             	movzbl (%eax),%eax
   11623:	88 45 ef             	mov    %al,-0x11(%ebp)
   11626:	80 7d ef 00          	cmpb   $0x0,-0x11(%ebp)
   1162a:	0f 85 4a fd ff ff    	jne    1137a <__c_do_printf+0x1c>
   11630:	90                   	nop
   11631:	c9                   	leave  
   11632:	c3                   	ret    

00011633 <__cio_printf_at>:
   11633:	55                   	push   %ebp
   11634:	89 e5                	mov    %esp,%ebp
   11636:	83 ec 08             	sub    $0x8,%esp
   11639:	8b 55 0c             	mov    0xc(%ebp),%edx
   1163c:	8b 45 08             	mov    0x8(%ebp),%eax
   1163f:	83 ec 04             	sub    $0x4,%esp
   11642:	8d 4d 10             	lea    0x10(%ebp),%ecx
   11645:	51                   	push   %ecx
   11646:	52                   	push   %edx
   11647:	50                   	push   %eax
   11648:	e8 11 fd ff ff       	call   1135e <__c_do_printf>
   1164d:	83 c4 10             	add    $0x10,%esp
   11650:	90                   	nop
   11651:	c9                   	leave  
   11652:	c3                   	ret    

00011653 <__cio_printf>:
   11653:	55                   	push   %ebp
   11654:	89 e5                	mov    %esp,%ebp
   11656:	83 ec 08             	sub    $0x8,%esp
   11659:	83 ec 04             	sub    $0x4,%esp
   1165c:	8d 45 08             	lea    0x8(%ebp),%eax
   1165f:	50                   	push   %eax
   11660:	6a ff                	push   $0xffffffff
   11662:	6a ff                	push   $0xffffffff
   11664:	e8 f5 fc ff ff       	call   1135e <__c_do_printf>
   11669:	83 c4 10             	add    $0x10,%esp
   1166c:	90                   	nop
   1166d:	c9                   	leave  
   1166e:	c3                   	ret    

0001166f <__c_increment>:
   1166f:	55                   	push   %ebp
   11670:	89 e5                	mov    %esp,%ebp
   11672:	83 45 08 01          	addl   $0x1,0x8(%ebp)
   11676:	b8 08 d8 01 00       	mov    $0x1d808,%eax
   1167b:	39 45 08             	cmp    %eax,0x8(%ebp)
   1167e:	72 07                	jb     11687 <__c_increment+0x18>
   11680:	c7 45 08 40 d7 01 00 	movl   $0x1d740,0x8(%ebp)
   11687:	8b 45 08             	mov    0x8(%ebp),%eax
   1168a:	5d                   	pop    %ebp
   1168b:	c3                   	ret    

0001168c <__c_input_scan_code>:
   1168c:	55                   	push   %ebp
   1168d:	89 e5                	mov    %esp,%ebp
   1168f:	83 ec 10             	sub    $0x10,%esp
   11692:	c7 45 fc ff ff ff ff 	movl   $0xffffffff,-0x4(%ebp)
   11699:	81 65 08 ff 00 00 00 	andl   $0xff,0x8(%ebp)
   116a0:	8b 45 08             	mov    0x8(%ebp),%eax
   116a3:	83 f8 36             	cmp    $0x36,%eax
   116a6:	74 28                	je     116d0 <__c_input_scan_code+0x44>
   116a8:	83 f8 36             	cmp    $0x36,%eax
   116ab:	7f 0c                	jg     116b9 <__c_input_scan_code+0x2d>
   116ad:	83 f8 1d             	cmp    $0x1d,%eax
   116b0:	74 3c                	je     116ee <__c_input_scan_code+0x62>
   116b2:	83 f8 2a             	cmp    $0x2a,%eax
   116b5:	74 19                	je     116d0 <__c_input_scan_code+0x44>
   116b7:	eb 4d                	jmp    11706 <__c_input_scan_code+0x7a>
   116b9:	3d aa 00 00 00       	cmp    $0xaa,%eax
   116be:	74 1f                	je     116df <__c_input_scan_code+0x53>
   116c0:	3d b6 00 00 00       	cmp    $0xb6,%eax
   116c5:	74 18                	je     116df <__c_input_scan_code+0x53>
   116c7:	3d 9d 00 00 00       	cmp    $0x9d,%eax
   116cc:	74 2c                	je     116fa <__c_input_scan_code+0x6e>
   116ce:	eb 36                	jmp    11706 <__c_input_scan_code+0x7a>
   116d0:	c7 05 08 d8 01 00 01 	movl   $0x1,0x1d808
   116d7:	00 00 00 
   116da:	e9 99 00 00 00       	jmp    11778 <__c_input_scan_code+0xec>
   116df:	c7 05 08 d8 01 00 00 	movl   $0x0,0x1d808
   116e6:	00 00 00 
   116e9:	e9 8a 00 00 00       	jmp    11778 <__c_input_scan_code+0xec>
   116ee:	c7 05 08 d5 01 00 1f 	movl   $0x1f,0x1d508
   116f5:	00 00 00 
   116f8:	eb 7e                	jmp    11778 <__c_input_scan_code+0xec>
   116fa:	c7 05 08 d5 01 00 ff 	movl   $0xff,0x1d508
   11701:	00 00 00 
   11704:	eb 72                	jmp    11778 <__c_input_scan_code+0xec>
   11706:	8b 45 08             	mov    0x8(%ebp),%eax
   11709:	25 80 00 00 00       	and    $0x80,%eax
   1170e:	85 c0                	test   %eax,%eax
   11710:	75 66                	jne    11778 <__c_input_scan_code+0xec>
   11712:	a1 08 d8 01 00       	mov    0x1d808,%eax
   11717:	c1 e0 07             	shl    $0x7,%eax
   1171a:	89 c2                	mov    %eax,%edx
   1171c:	8b 45 08             	mov    0x8(%ebp),%eax
   1171f:	01 d0                	add    %edx,%eax
   11721:	05 00 d4 01 00       	add    $0x1d400,%eax
   11726:	0f b6 00             	movzbl (%eax),%eax
   11729:	0f b6 c0             	movzbl %al,%eax
   1172c:	89 45 08             	mov    %eax,0x8(%ebp)
   1172f:	83 7d 08 ff          	cmpl   $0xffffffff,0x8(%ebp)
   11733:	74 43                	je     11778 <__c_input_scan_code+0xec>
   11735:	a1 04 d5 01 00       	mov    0x1d504,%eax
   1173a:	50                   	push   %eax
   1173b:	e8 2f ff ff ff       	call   1166f <__c_increment>
   11740:	83 c4 04             	add    $0x4,%esp
   11743:	89 45 f8             	mov    %eax,-0x8(%ebp)
   11746:	a1 08 d5 01 00       	mov    0x1d508,%eax
   1174b:	23 45 08             	and    0x8(%ebp),%eax
   1174e:	89 45 fc             	mov    %eax,-0x4(%ebp)
   11751:	a1 00 d5 01 00       	mov    0x1d500,%eax
   11756:	39 45 f8             	cmp    %eax,-0x8(%ebp)
   11759:	74 1d                	je     11778 <__c_input_scan_code+0xec>
   1175b:	8b 45 08             	mov    0x8(%ebp),%eax
   1175e:	89 c1                	mov    %eax,%ecx
   11760:	a1 08 d5 01 00       	mov    0x1d508,%eax
   11765:	89 c2                	mov    %eax,%edx
   11767:	a1 04 d5 01 00       	mov    0x1d504,%eax
   1176c:	21 ca                	and    %ecx,%edx
   1176e:	88 10                	mov    %dl,(%eax)
   11770:	8b 45 f8             	mov    -0x8(%ebp),%eax
   11773:	a3 04 d5 01 00       	mov    %eax,0x1d504
   11778:	8b 45 fc             	mov    -0x4(%ebp),%eax
   1177b:	c9                   	leave  
   1177c:	c3                   	ret    

0001177d <__c_keyboard_isr>:
   1177d:	55                   	push   %ebp
   1177e:	89 e5                	mov    %esp,%ebp
   11780:	83 ec 18             	sub    $0x18,%esp
   11783:	83 ec 0c             	sub    $0xc,%esp
   11786:	6a 60                	push   $0x60
   11788:	e8 46 f4 ff ff       	call   10bd3 <__inb>
   1178d:	83 c4 10             	add    $0x10,%esp
   11790:	89 45 f4             	mov    %eax,-0xc(%ebp)
   11793:	83 ec 0c             	sub    $0xc,%esp
   11796:	ff 75 f4             	pushl  -0xc(%ebp)
   11799:	e8 ee fe ff ff       	call   1168c <__c_input_scan_code>
   1179e:	83 c4 10             	add    $0x10,%esp
   117a1:	89 45 f0             	mov    %eax,-0x10(%ebp)
   117a4:	83 7d f0 ff          	cmpl   $0xffffffff,-0x10(%ebp)
   117a8:	74 19                	je     117c3 <__c_keyboard_isr+0x46>
   117aa:	a1 28 d7 01 00       	mov    0x1d728,%eax
   117af:	85 c0                	test   %eax,%eax
   117b1:	74 10                	je     117c3 <__c_keyboard_isr+0x46>
   117b3:	a1 28 d7 01 00       	mov    0x1d728,%eax
   117b8:	83 ec 0c             	sub    $0xc,%esp
   117bb:	ff 75 f0             	pushl  -0x10(%ebp)
   117be:	ff d0                	call   *%eax
   117c0:	83 c4 10             	add    $0x10,%esp
   117c3:	83 ec 08             	sub    $0x8,%esp
   117c6:	6a 20                	push   $0x20
   117c8:	6a 20                	push   $0x20
   117ca:	e8 29 f4 ff ff       	call   10bf8 <__outb>
   117cf:	83 c4 10             	add    $0x10,%esp
   117d2:	90                   	nop
   117d3:	c9                   	leave  
   117d4:	c3                   	ret    

000117d5 <__cio_getchar>:
   117d5:	55                   	push   %ebp
   117d6:	89 e5                	mov    %esp,%ebp
   117d8:	83 ec 18             	sub    $0x18,%esp
   117db:	e8 40 f4 ff ff       	call   10c20 <__get_flags>
   117e0:	25 00 02 00 00       	and    $0x200,%eax
   117e5:	89 45 f4             	mov    %eax,-0xc(%ebp)
   117e8:	eb 34                	jmp    1181e <__cio_getchar+0x49>
   117ea:	83 7d f4 00          	cmpl   $0x0,-0xc(%ebp)
   117ee:	75 2e                	jne    1181e <__cio_getchar+0x49>
   117f0:	90                   	nop
   117f1:	83 ec 0c             	sub    $0xc,%esp
   117f4:	6a 64                	push   $0x64
   117f6:	e8 d8 f3 ff ff       	call   10bd3 <__inb>
   117fb:	83 c4 10             	add    $0x10,%esp
   117fe:	83 e0 01             	and    $0x1,%eax
   11801:	85 c0                	test   %eax,%eax
   11803:	74 ec                	je     117f1 <__cio_getchar+0x1c>
   11805:	83 ec 0c             	sub    $0xc,%esp
   11808:	6a 60                	push   $0x60
   1180a:	e8 c4 f3 ff ff       	call   10bd3 <__inb>
   1180f:	83 c4 10             	add    $0x10,%esp
   11812:	83 ec 0c             	sub    $0xc,%esp
   11815:	50                   	push   %eax
   11816:	e8 71 fe ff ff       	call   1168c <__c_input_scan_code>
   1181b:	83 c4 10             	add    $0x10,%esp
   1181e:	8b 15 00 d5 01 00    	mov    0x1d500,%edx
   11824:	a1 04 d5 01 00       	mov    0x1d504,%eax
   11829:	39 c2                	cmp    %eax,%edx
   1182b:	74 bd                	je     117ea <__cio_getchar+0x15>
   1182d:	a1 00 d5 01 00       	mov    0x1d500,%eax
   11832:	0f b6 00             	movzbl (%eax),%eax
   11835:	88 45 f3             	mov    %al,-0xd(%ebp)
   11838:	a1 00 d5 01 00       	mov    0x1d500,%eax
   1183d:	83 ec 0c             	sub    $0xc,%esp
   11840:	50                   	push   %eax
   11841:	e8 29 fe ff ff       	call   1166f <__c_increment>
   11846:	83 c4 10             	add    $0x10,%esp
   11849:	a3 00 d5 01 00       	mov    %eax,0x1d500
   1184e:	80 7d f3 04          	cmpb   $0x4,-0xd(%ebp)
   11852:	74 10                	je     11864 <__cio_getchar+0x8f>
   11854:	0f be 45 f3          	movsbl -0xd(%ebp),%eax
   11858:	83 ec 0c             	sub    $0xc,%esp
   1185b:	50                   	push   %eax
   1185c:	e8 38 f6 ff ff       	call   10e99 <__cio_putchar>
   11861:	83 c4 10             	add    $0x10,%esp
   11864:	0f be 45 f3          	movsbl -0xd(%ebp),%eax
   11868:	c9                   	leave  
   11869:	c3                   	ret    

0001186a <__cio_gets>:
   1186a:	55                   	push   %ebp
   1186b:	89 e5                	mov    %esp,%ebp
   1186d:	83 ec 18             	sub    $0x18,%esp
   11870:	c7 45 f4 00 00 00 00 	movl   $0x0,-0xc(%ebp)
   11877:	eb 2b                	jmp    118a4 <__cio_gets+0x3a>
   11879:	e8 57 ff ff ff       	call   117d5 <__cio_getchar>
   1187e:	88 45 f3             	mov    %al,-0xd(%ebp)
   11881:	80 7d f3 04          	cmpb   $0x4,-0xd(%ebp)
   11885:	74 25                	je     118ac <__cio_gets+0x42>
   11887:	8b 45 08             	mov    0x8(%ebp),%eax
   1188a:	8d 50 01             	lea    0x1(%eax),%edx
   1188d:	89 55 08             	mov    %edx,0x8(%ebp)
   11890:	0f b6 55 f3          	movzbl -0xd(%ebp),%edx
   11894:	88 10                	mov    %dl,(%eax)
   11896:	83 45 f4 01          	addl   $0x1,-0xc(%ebp)
   1189a:	83 6d 0c 01          	subl   $0x1,0xc(%ebp)
   1189e:	80 7d f3 0a          	cmpb   $0xa,-0xd(%ebp)
   118a2:	74 0b                	je     118af <__cio_gets+0x45>
   118a4:	83 7d 0c 01          	cmpl   $0x1,0xc(%ebp)
   118a8:	77 cf                	ja     11879 <__cio_gets+0xf>
   118aa:	eb 04                	jmp    118b0 <__cio_gets+0x46>
   118ac:	90                   	nop
   118ad:	eb 01                	jmp    118b0 <__cio_gets+0x46>
   118af:	90                   	nop
   118b0:	8b 45 08             	mov    0x8(%ebp),%eax
   118b3:	c6 00 00             	movb   $0x0,(%eax)
   118b6:	8b 45 f4             	mov    -0xc(%ebp),%eax
   118b9:	c9                   	leave  
   118ba:	c3                   	ret    

000118bb <__cio_input_queue>:
   118bb:	55                   	push   %ebp
   118bc:	89 e5                	mov    %esp,%ebp
   118be:	83 ec 10             	sub    $0x10,%esp
   118c1:	a1 04 d5 01 00       	mov    0x1d504,%eax
   118c6:	89 c2                	mov    %eax,%edx
   118c8:	a1 00 d5 01 00       	mov    0x1d500,%eax
   118cd:	29 c2                	sub    %eax,%edx
   118cf:	89 d0                	mov    %edx,%eax
   118d1:	89 45 fc             	mov    %eax,-0x4(%ebp)
   118d4:	83 7d fc 00          	cmpl   $0x0,-0x4(%ebp)
   118d8:	79 07                	jns    118e1 <__cio_input_queue+0x26>
   118da:	81 45 fc c8 00 00 00 	addl   $0xc8,-0x4(%ebp)
   118e1:	8b 45 fc             	mov    -0x4(%ebp),%eax
   118e4:	c9                   	leave  
   118e5:	c3                   	ret    

000118e6 <__cio_init>:
   118e6:	55                   	push   %ebp
   118e7:	89 e5                	mov    %esp,%ebp
   118e9:	83 ec 08             	sub    $0x8,%esp
   118ec:	c7 05 18 d7 01 00 00 	movl   $0x0,0x1d718
   118f3:	00 00 00 
   118f6:	c7 05 1c d7 01 00 00 	movl   $0x0,0x1d71c
   118fd:	00 00 00 
   11900:	c7 05 20 d7 01 00 4f 	movl   $0x4f,0x1d720
   11907:	00 00 00 
   1190a:	c7 05 24 d7 01 00 18 	movl   $0x18,0x1d724
   11911:	00 00 00 
   11914:	c7 05 00 d7 01 00 00 	movl   $0x0,0x1d700
   1191b:	00 00 00 
   1191e:	c7 05 04 d7 01 00 00 	movl   $0x0,0x1d704
   11925:	00 00 00 
   11928:	c7 05 08 d7 01 00 4f 	movl   $0x4f,0x1d708
   1192f:	00 00 00 
   11932:	c7 05 0c d7 01 00 18 	movl   $0x18,0x1d70c
   11939:	00 00 00 
   1193c:	a1 1c d7 01 00       	mov    0x1d71c,%eax
   11941:	a3 14 d7 01 00       	mov    %eax,0x1d714
   11946:	a1 18 d7 01 00       	mov    0x1d718,%eax
   1194b:	a3 10 d7 01 00       	mov    %eax,0x1d710
   11950:	e8 da f2 ff ff       	call   10c2f <__c_setcursor>
   11955:	8b 45 08             	mov    0x8(%ebp),%eax
   11958:	a3 28 d7 01 00       	mov    %eax,0x1d728
   1195d:	83 ec 08             	sub    $0x8,%esp
   11960:	68 7d 17 01 00       	push   $0x1177d
   11965:	6a 21                	push   $0x21
   11967:	e8 4d 09 00 00       	call   122b9 <__install_isr>
   1196c:	83 c4 10             	add    $0x10,%esp
   1196f:	90                   	nop
   11970:	c9                   	leave  
   11971:	c3                   	ret    

00011972 <__put_char_or_code>:
   11972:	55                   	push   %ebp
   11973:	89 e5                	mov    %esp,%ebp
   11975:	83 ec 08             	sub    $0x8,%esp
   11978:	83 7d 08 1f          	cmpl   $0x1f,0x8(%ebp)
   1197c:	7e 17                	jle    11995 <__put_char_or_code+0x23>
   1197e:	83 7d 08 7e          	cmpl   $0x7e,0x8(%ebp)
   11982:	7f 11                	jg     11995 <__put_char_or_code+0x23>
   11984:	8b 45 08             	mov    0x8(%ebp),%eax
   11987:	83 ec 0c             	sub    $0xc,%esp
   1198a:	50                   	push   %eax
   1198b:	e8 09 f5 ff ff       	call   10e99 <__cio_putchar>
   11990:	83 c4 10             	add    $0x10,%esp
   11993:	eb 13                	jmp    119a8 <__put_char_or_code+0x36>
   11995:	83 ec 08             	sub    $0x8,%esp
   11998:	ff 75 08             	pushl  0x8(%ebp)
   1199b:	68 90 92 01 00       	push   $0x19290
   119a0:	e8 ae fc ff ff       	call   11653 <__cio_printf>
   119a5:	83 c4 10             	add    $0x10,%esp
   119a8:	90                   	nop
   119a9:	c9                   	leave  
   119aa:	c3                   	ret    

000119ab <__bound>:
   119ab:	55                   	push   %ebp
   119ac:	89 e5                	mov    %esp,%ebp
   119ae:	8b 45 0c             	mov    0xc(%ebp),%eax
   119b1:	3b 45 08             	cmp    0x8(%ebp),%eax
   119b4:	73 06                	jae    119bc <__bound+0x11>
   119b6:	8b 45 08             	mov    0x8(%ebp),%eax
   119b9:	89 45 0c             	mov    %eax,0xc(%ebp)
   119bc:	8b 45 0c             	mov    0xc(%ebp),%eax
   119bf:	3b 45 10             	cmp    0x10(%ebp),%eax
   119c2:	76 06                	jbe    119ca <__bound+0x1f>
   119c4:	8b 45 10             	mov    0x10(%ebp),%eax
   119c7:	89 45 0c             	mov    %eax,0xc(%ebp)
   119ca:	8b 45 0c             	mov    0xc(%ebp),%eax
   119cd:	5d                   	pop    %ebp
   119ce:	c3                   	ret    

000119cf <__memset>:
   119cf:	55                   	push   %ebp
   119d0:	89 e5                	mov    %esp,%ebp
   119d2:	53                   	push   %ebx
   119d3:	8b 4d 0c             	mov    0xc(%ebp),%ecx
   119d6:	8b 5d 08             	mov    0x8(%ebp),%ebx
   119d9:	eb 0b                	jmp    119e6 <__memset+0x17>
   119db:	89 d8                	mov    %ebx,%eax
   119dd:	8d 58 01             	lea    0x1(%eax),%ebx
   119e0:	0f b6 55 10          	movzbl 0x10(%ebp),%edx
   119e4:	88 10                	mov    %dl,(%eax)
   119e6:	89 c8                	mov    %ecx,%eax
   119e8:	8d 48 ff             	lea    -0x1(%eax),%ecx
   119eb:	85 c0                	test   %eax,%eax
   119ed:	75 ec                	jne    119db <__memset+0xc>
   119ef:	90                   	nop
   119f0:	5b                   	pop    %ebx
   119f1:	5d                   	pop    %ebp
   119f2:	c3                   	ret    

000119f3 <__memclr>:
   119f3:	55                   	push   %ebp
   119f4:	89 e5                	mov    %esp,%ebp
   119f6:	53                   	push   %ebx
   119f7:	8b 55 0c             	mov    0xc(%ebp),%edx
   119fa:	8b 5d 08             	mov    0x8(%ebp),%ebx
   119fd:	eb 08                	jmp    11a07 <__memclr+0x14>
   119ff:	89 d8                	mov    %ebx,%eax
   11a01:	8d 58 01             	lea    0x1(%eax),%ebx
   11a04:	c6 00 00             	movb   $0x0,(%eax)
   11a07:	89 d0                	mov    %edx,%eax
   11a09:	8d 50 ff             	lea    -0x1(%eax),%edx
   11a0c:	85 c0                	test   %eax,%eax
   11a0e:	75 ef                	jne    119ff <__memclr+0xc>
   11a10:	90                   	nop
   11a11:	5b                   	pop    %ebx
   11a12:	5d                   	pop    %ebp
   11a13:	c3                   	ret    

00011a14 <__memcpy>:
   11a14:	55                   	push   %ebp
   11a15:	89 e5                	mov    %esp,%ebp
   11a17:	56                   	push   %esi
   11a18:	53                   	push   %ebx
   11a19:	8b 4d 10             	mov    0x10(%ebp),%ecx
   11a1c:	8b 5d 08             	mov    0x8(%ebp),%ebx
   11a1f:	8b 75 0c             	mov    0xc(%ebp),%esi
   11a22:	eb 0f                	jmp    11a33 <__memcpy+0x1f>
   11a24:	89 f2                	mov    %esi,%edx
   11a26:	8d 72 01             	lea    0x1(%edx),%esi
   11a29:	89 d8                	mov    %ebx,%eax
   11a2b:	8d 58 01             	lea    0x1(%eax),%ebx
   11a2e:	0f b6 12             	movzbl (%edx),%edx
   11a31:	88 10                	mov    %dl,(%eax)
   11a33:	89 c8                	mov    %ecx,%eax
   11a35:	8d 48 ff             	lea    -0x1(%eax),%ecx
   11a38:	85 c0                	test   %eax,%eax
   11a3a:	75 e8                	jne    11a24 <__memcpy+0x10>
   11a3c:	90                   	nop
   11a3d:	5b                   	pop    %ebx
   11a3e:	5e                   	pop    %esi
   11a3f:	5d                   	pop    %ebp
   11a40:	c3                   	ret    

00011a41 <__strlen>:
   11a41:	55                   	push   %ebp
   11a42:	89 e5                	mov    %esp,%ebp
   11a44:	53                   	push   %ebx
   11a45:	8b 55 08             	mov    0x8(%ebp),%edx
   11a48:	bb 00 00 00 00       	mov    $0x0,%ebx
   11a4d:	eb 03                	jmp    11a52 <__strlen+0x11>
   11a4f:	83 c3 01             	add    $0x1,%ebx
   11a52:	89 d0                	mov    %edx,%eax
   11a54:	8d 50 01             	lea    0x1(%eax),%edx
   11a57:	0f b6 00             	movzbl (%eax),%eax
   11a5a:	84 c0                	test   %al,%al
   11a5c:	75 f1                	jne    11a4f <__strlen+0xe>
   11a5e:	89 d8                	mov    %ebx,%eax
   11a60:	5b                   	pop    %ebx
   11a61:	5d                   	pop    %ebp
   11a62:	c3                   	ret    

00011a63 <__strcmp>:
   11a63:	55                   	push   %ebp
   11a64:	89 e5                	mov    %esp,%ebp
   11a66:	53                   	push   %ebx
   11a67:	8b 45 08             	mov    0x8(%ebp),%eax
   11a6a:	8b 55 0c             	mov    0xc(%ebp),%edx
   11a6d:	eb 06                	jmp    11a75 <__strcmp+0x12>
   11a6f:	83 c0 01             	add    $0x1,%eax
   11a72:	83 c2 01             	add    $0x1,%edx
   11a75:	0f b6 08             	movzbl (%eax),%ecx
   11a78:	84 c9                	test   %cl,%cl
   11a7a:	74 0a                	je     11a86 <__strcmp+0x23>
   11a7c:	0f b6 18             	movzbl (%eax),%ebx
   11a7f:	0f b6 0a             	movzbl (%edx),%ecx
   11a82:	38 cb                	cmp    %cl,%bl
   11a84:	74 e9                	je     11a6f <__strcmp+0xc>
   11a86:	0f b6 00             	movzbl (%eax),%eax
   11a89:	0f be c8             	movsbl %al,%ecx
   11a8c:	0f b6 02             	movzbl (%edx),%eax
   11a8f:	0f be c0             	movsbl %al,%eax
   11a92:	29 c1                	sub    %eax,%ecx
   11a94:	89 c8                	mov    %ecx,%eax
   11a96:	5b                   	pop    %ebx
   11a97:	5d                   	pop    %ebp
   11a98:	c3                   	ret    

00011a99 <__strcpy>:
   11a99:	55                   	push   %ebp
   11a9a:	89 e5                	mov    %esp,%ebp
   11a9c:	53                   	push   %ebx
   11a9d:	83 ec 10             	sub    $0x10,%esp
   11aa0:	8b 55 08             	mov    0x8(%ebp),%edx
   11aa3:	8b 5d 0c             	mov    0xc(%ebp),%ebx
   11aa6:	89 55 f8             	mov    %edx,-0x8(%ebp)
   11aa9:	90                   	nop
   11aaa:	89 d9                	mov    %ebx,%ecx
   11aac:	8d 59 01             	lea    0x1(%ecx),%ebx
   11aaf:	89 d0                	mov    %edx,%eax
   11ab1:	8d 50 01             	lea    0x1(%eax),%edx
   11ab4:	0f b6 09             	movzbl (%ecx),%ecx
   11ab7:	88 08                	mov    %cl,(%eax)
   11ab9:	0f b6 00             	movzbl (%eax),%eax
   11abc:	84 c0                	test   %al,%al
   11abe:	75 ea                	jne    11aaa <__strcpy+0x11>
   11ac0:	8b 45 f8             	mov    -0x8(%ebp),%eax
   11ac3:	83 c4 10             	add    $0x10,%esp
   11ac6:	5b                   	pop    %ebx
   11ac7:	5d                   	pop    %ebp
   11ac8:	c3                   	ret    

00011ac9 <__strcat>:
   11ac9:	55                   	push   %ebp
   11aca:	89 e5                	mov    %esp,%ebp
   11acc:	56                   	push   %esi
   11acd:	53                   	push   %ebx
   11ace:	8b 45 08             	mov    0x8(%ebp),%eax
   11ad1:	8b 75 0c             	mov    0xc(%ebp),%esi
   11ad4:	89 c3                	mov    %eax,%ebx
   11ad6:	eb 03                	jmp    11adb <__strcat+0x12>
   11ad8:	83 c0 01             	add    $0x1,%eax
   11adb:	0f b6 10             	movzbl (%eax),%edx
   11ade:	84 d2                	test   %dl,%dl
   11ae0:	75 f6                	jne    11ad8 <__strcat+0xf>
   11ae2:	90                   	nop
   11ae3:	89 f1                	mov    %esi,%ecx
   11ae5:	8d 71 01             	lea    0x1(%ecx),%esi
   11ae8:	89 c2                	mov    %eax,%edx
   11aea:	8d 42 01             	lea    0x1(%edx),%eax
   11aed:	0f b6 09             	movzbl (%ecx),%ecx
   11af0:	88 0a                	mov    %cl,(%edx)
   11af2:	0f b6 12             	movzbl (%edx),%edx
   11af5:	84 d2                	test   %dl,%dl
   11af7:	75 ea                	jne    11ae3 <__strcat+0x1a>
   11af9:	89 d8                	mov    %ebx,%eax
   11afb:	5b                   	pop    %ebx
   11afc:	5e                   	pop    %esi
   11afd:	5d                   	pop    %ebp
   11afe:	c3                   	ret    

00011aff <__pad>:
   11aff:	55                   	push   %ebp
   11b00:	89 e5                	mov    %esp,%ebp
   11b02:	eb 12                	jmp    11b16 <__pad+0x17>
   11b04:	8b 45 08             	mov    0x8(%ebp),%eax
   11b07:	8d 50 01             	lea    0x1(%eax),%edx
   11b0a:	89 55 08             	mov    %edx,0x8(%ebp)
   11b0d:	8b 55 10             	mov    0x10(%ebp),%edx
   11b10:	88 10                	mov    %dl,(%eax)
   11b12:	83 6d 0c 01          	subl   $0x1,0xc(%ebp)
   11b16:	83 7d 0c 00          	cmpl   $0x0,0xc(%ebp)
   11b1a:	7f e8                	jg     11b04 <__pad+0x5>
   11b1c:	8b 45 08             	mov    0x8(%ebp),%eax
   11b1f:	5d                   	pop    %ebp
   11b20:	c3                   	ret    

00011b21 <__padstr>:
   11b21:	55                   	push   %ebp
   11b22:	89 e5                	mov    %esp,%ebp
   11b24:	83 ec 10             	sub    $0x10,%esp
   11b27:	83 7d 10 00          	cmpl   $0x0,0x10(%ebp)
   11b2b:	79 0e                	jns    11b3b <__padstr+0x1a>
   11b2d:	ff 75 0c             	pushl  0xc(%ebp)
   11b30:	e8 0c ff ff ff       	call   11a41 <__strlen>
   11b35:	83 c4 04             	add    $0x4,%esp
   11b38:	89 45 10             	mov    %eax,0x10(%ebp)
   11b3b:	8b 45 14             	mov    0x14(%ebp),%eax
   11b3e:	2b 45 10             	sub    0x10(%ebp),%eax
   11b41:	89 45 f8             	mov    %eax,-0x8(%ebp)
   11b44:	83 7d f8 00          	cmpl   $0x0,-0x8(%ebp)
   11b48:	7e 1a                	jle    11b64 <__padstr+0x43>
   11b4a:	83 7d 18 00          	cmpl   $0x0,0x18(%ebp)
   11b4e:	75 14                	jne    11b64 <__padstr+0x43>
   11b50:	ff 75 1c             	pushl  0x1c(%ebp)
   11b53:	ff 75 f8             	pushl  -0x8(%ebp)
   11b56:	ff 75 08             	pushl  0x8(%ebp)
   11b59:	e8 a1 ff ff ff       	call   11aff <__pad>
   11b5e:	83 c4 0c             	add    $0xc,%esp
   11b61:	89 45 08             	mov    %eax,0x8(%ebp)
   11b64:	c7 45 fc 00 00 00 00 	movl   $0x0,-0x4(%ebp)
   11b6b:	eb 1b                	jmp    11b88 <__padstr+0x67>
   11b6d:	8b 55 fc             	mov    -0x4(%ebp),%edx
   11b70:	8b 45 0c             	mov    0xc(%ebp),%eax
   11b73:	8d 0c 02             	lea    (%edx,%eax,1),%ecx
   11b76:	8b 45 08             	mov    0x8(%ebp),%eax
   11b79:	8d 50 01             	lea    0x1(%eax),%edx
   11b7c:	89 55 08             	mov    %edx,0x8(%ebp)
   11b7f:	0f b6 11             	movzbl (%ecx),%edx
   11b82:	88 10                	mov    %dl,(%eax)
   11b84:	83 45 fc 01          	addl   $0x1,-0x4(%ebp)
   11b88:	8b 45 fc             	mov    -0x4(%ebp),%eax
   11b8b:	3b 45 10             	cmp    0x10(%ebp),%eax
   11b8e:	7c dd                	jl     11b6d <__padstr+0x4c>
   11b90:	83 7d f8 00          	cmpl   $0x0,-0x8(%ebp)
   11b94:	7e 1a                	jle    11bb0 <__padstr+0x8f>
   11b96:	83 7d 18 00          	cmpl   $0x0,0x18(%ebp)
   11b9a:	74 14                	je     11bb0 <__padstr+0x8f>
   11b9c:	ff 75 1c             	pushl  0x1c(%ebp)
   11b9f:	ff 75 f8             	pushl  -0x8(%ebp)
   11ba2:	ff 75 08             	pushl  0x8(%ebp)
   11ba5:	e8 55 ff ff ff       	call   11aff <__pad>
   11baa:	83 c4 0c             	add    $0xc,%esp
   11bad:	89 45 08             	mov    %eax,0x8(%ebp)
   11bb0:	8b 45 08             	mov    0x8(%ebp),%eax
   11bb3:	c9                   	leave  
   11bb4:	c3                   	ret    

00011bb5 <__sprint>:
   11bb5:	55                   	push   %ebp
   11bb6:	89 e5                	mov    %esp,%ebp
   11bb8:	83 ec 38             	sub    $0x38,%esp
   11bbb:	8d 45 0c             	lea    0xc(%ebp),%eax
   11bbe:	83 c0 04             	add    $0x4,%eax
   11bc1:	89 45 f4             	mov    %eax,-0xc(%ebp)
   11bc4:	e9 3c 02 00 00       	jmp    11e05 <__sprint+0x250>
   11bc9:	80 7d f3 25          	cmpb   $0x25,-0xd(%ebp)
   11bcd:	0f 85 23 02 00 00    	jne    11df6 <__sprint+0x241>
   11bd3:	c7 45 ec 00 00 00 00 	movl   $0x0,-0x14(%ebp)
   11bda:	c7 45 e4 20 00 00 00 	movl   $0x20,-0x1c(%ebp)
   11be1:	c7 45 e8 00 00 00 00 	movl   $0x0,-0x18(%ebp)
   11be8:	8b 45 0c             	mov    0xc(%ebp),%eax
   11beb:	8d 50 01             	lea    0x1(%eax),%edx
   11bee:	89 55 0c             	mov    %edx,0xc(%ebp)
   11bf1:	0f b6 00             	movzbl (%eax),%eax
   11bf4:	88 45 f3             	mov    %al,-0xd(%ebp)
   11bf7:	80 7d f3 2d          	cmpb   $0x2d,-0xd(%ebp)
   11bfb:	75 16                	jne    11c13 <__sprint+0x5e>
   11bfd:	c7 45 ec 01 00 00 00 	movl   $0x1,-0x14(%ebp)
   11c04:	8b 45 0c             	mov    0xc(%ebp),%eax
   11c07:	8d 50 01             	lea    0x1(%eax),%edx
   11c0a:	89 55 0c             	mov    %edx,0xc(%ebp)
   11c0d:	0f b6 00             	movzbl (%eax),%eax
   11c10:	88 45 f3             	mov    %al,-0xd(%ebp)
   11c13:	80 7d f3 30          	cmpb   $0x30,-0xd(%ebp)
   11c17:	75 40                	jne    11c59 <__sprint+0xa4>
   11c19:	c7 45 e4 30 00 00 00 	movl   $0x30,-0x1c(%ebp)
   11c20:	8b 45 0c             	mov    0xc(%ebp),%eax
   11c23:	8d 50 01             	lea    0x1(%eax),%edx
   11c26:	89 55 0c             	mov    %edx,0xc(%ebp)
   11c29:	0f b6 00             	movzbl (%eax),%eax
   11c2c:	88 45 f3             	mov    %al,-0xd(%ebp)
   11c2f:	eb 28                	jmp    11c59 <__sprint+0xa4>
   11c31:	8b 55 e8             	mov    -0x18(%ebp),%edx
   11c34:	89 d0                	mov    %edx,%eax
   11c36:	c1 e0 02             	shl    $0x2,%eax
   11c39:	01 d0                	add    %edx,%eax
   11c3b:	01 c0                	add    %eax,%eax
   11c3d:	89 45 e8             	mov    %eax,-0x18(%ebp)
   11c40:	0f be 45 f3          	movsbl -0xd(%ebp),%eax
   11c44:	83 e8 30             	sub    $0x30,%eax
   11c47:	01 45 e8             	add    %eax,-0x18(%ebp)
   11c4a:	8b 45 0c             	mov    0xc(%ebp),%eax
   11c4d:	8d 50 01             	lea    0x1(%eax),%edx
   11c50:	89 55 0c             	mov    %edx,0xc(%ebp)
   11c53:	0f b6 00             	movzbl (%eax),%eax
   11c56:	88 45 f3             	mov    %al,-0xd(%ebp)
   11c59:	80 7d f3 2f          	cmpb   $0x2f,-0xd(%ebp)
   11c5d:	7e 06                	jle    11c65 <__sprint+0xb0>
   11c5f:	80 7d f3 39          	cmpb   $0x39,-0xd(%ebp)
   11c63:	7e cc                	jle    11c31 <__sprint+0x7c>
   11c65:	0f be 45 f3          	movsbl -0xd(%ebp),%eax
   11c69:	83 e8 63             	sub    $0x63,%eax
   11c6c:	83 f8 15             	cmp    $0x15,%eax
   11c6f:	0f 87 90 01 00 00    	ja     11e05 <__sprint+0x250>
   11c75:	8b 04 85 98 92 01 00 	mov    0x19298(,%eax,4),%eax
   11c7c:	ff e0                	jmp    *%eax
   11c7e:	8b 45 f4             	mov    -0xc(%ebp),%eax
   11c81:	8d 50 04             	lea    0x4(%eax),%edx
   11c84:	89 55 f4             	mov    %edx,-0xc(%ebp)
   11c87:	8b 00                	mov    (%eax),%eax
   11c89:	88 45 f3             	mov    %al,-0xd(%ebp)
   11c8c:	0f b6 45 f3          	movzbl -0xd(%ebp),%eax
   11c90:	88 45 d0             	mov    %al,-0x30(%ebp)
   11c93:	c6 45 d1 00          	movb   $0x0,-0x2f(%ebp)
   11c97:	ff 75 e4             	pushl  -0x1c(%ebp)
   11c9a:	ff 75 ec             	pushl  -0x14(%ebp)
   11c9d:	ff 75 e8             	pushl  -0x18(%ebp)
   11ca0:	6a 01                	push   $0x1
   11ca2:	8d 45 d0             	lea    -0x30(%ebp),%eax
   11ca5:	50                   	push   %eax
   11ca6:	ff 75 08             	pushl  0x8(%ebp)
   11ca9:	e8 73 fe ff ff       	call   11b21 <__padstr>
   11cae:	83 c4 18             	add    $0x18,%esp
   11cb1:	89 45 08             	mov    %eax,0x8(%ebp)
   11cb4:	e9 4c 01 00 00       	jmp    11e05 <__sprint+0x250>
   11cb9:	8b 45 f4             	mov    -0xc(%ebp),%eax
   11cbc:	8d 50 04             	lea    0x4(%eax),%edx
   11cbf:	89 55 f4             	mov    %edx,-0xc(%ebp)
   11cc2:	8b 00                	mov    (%eax),%eax
   11cc4:	83 ec 08             	sub    $0x8,%esp
   11cc7:	50                   	push   %eax
   11cc8:	8d 45 d0             	lea    -0x30(%ebp),%eax
   11ccb:	50                   	push   %eax
   11ccc:	e8 45 02 00 00       	call   11f16 <__cvtdec>
   11cd1:	83 c4 10             	add    $0x10,%esp
   11cd4:	89 45 e0             	mov    %eax,-0x20(%ebp)
   11cd7:	83 ec 08             	sub    $0x8,%esp
   11cda:	ff 75 e4             	pushl  -0x1c(%ebp)
   11cdd:	ff 75 ec             	pushl  -0x14(%ebp)
   11ce0:	ff 75 e8             	pushl  -0x18(%ebp)
   11ce3:	ff 75 e0             	pushl  -0x20(%ebp)
   11ce6:	8d 45 d0             	lea    -0x30(%ebp),%eax
   11ce9:	50                   	push   %eax
   11cea:	ff 75 08             	pushl  0x8(%ebp)
   11ced:	e8 2f fe ff ff       	call   11b21 <__padstr>
   11cf2:	83 c4 20             	add    $0x20,%esp
   11cf5:	89 45 08             	mov    %eax,0x8(%ebp)
   11cf8:	e9 08 01 00 00       	jmp    11e05 <__sprint+0x250>
   11cfd:	8b 45 f4             	mov    -0xc(%ebp),%eax
   11d00:	8d 50 04             	lea    0x4(%eax),%edx
   11d03:	89 55 f4             	mov    %edx,-0xc(%ebp)
   11d06:	8b 00                	mov    (%eax),%eax
   11d08:	89 45 dc             	mov    %eax,-0x24(%ebp)
   11d0b:	83 ec 08             	sub    $0x8,%esp
   11d0e:	ff 75 e4             	pushl  -0x1c(%ebp)
   11d11:	ff 75 ec             	pushl  -0x14(%ebp)
   11d14:	ff 75 e8             	pushl  -0x18(%ebp)
   11d17:	6a ff                	push   $0xffffffff
   11d19:	ff 75 dc             	pushl  -0x24(%ebp)
   11d1c:	ff 75 08             	pushl  0x8(%ebp)
   11d1f:	e8 fd fd ff ff       	call   11b21 <__padstr>
   11d24:	83 c4 20             	add    $0x20,%esp
   11d27:	89 45 08             	mov    %eax,0x8(%ebp)
   11d2a:	e9 d6 00 00 00       	jmp    11e05 <__sprint+0x250>
   11d2f:	8b 45 f4             	mov    -0xc(%ebp),%eax
   11d32:	8d 50 04             	lea    0x4(%eax),%edx
   11d35:	89 55 f4             	mov    %edx,-0xc(%ebp)
   11d38:	8b 00                	mov    (%eax),%eax
   11d3a:	83 ec 08             	sub    $0x8,%esp
   11d3d:	50                   	push   %eax
   11d3e:	8d 45 d0             	lea    -0x30(%ebp),%eax
   11d41:	50                   	push   %eax
   11d42:	e8 48 02 00 00       	call   11f8f <__cvthex>
   11d47:	83 c4 10             	add    $0x10,%esp
   11d4a:	89 45 e0             	mov    %eax,-0x20(%ebp)
   11d4d:	83 ec 08             	sub    $0x8,%esp
   11d50:	ff 75 e4             	pushl  -0x1c(%ebp)
   11d53:	ff 75 ec             	pushl  -0x14(%ebp)
   11d56:	ff 75 e8             	pushl  -0x18(%ebp)
   11d59:	ff 75 e0             	pushl  -0x20(%ebp)
   11d5c:	8d 45 d0             	lea    -0x30(%ebp),%eax
   11d5f:	50                   	push   %eax
   11d60:	ff 75 08             	pushl  0x8(%ebp)
   11d63:	e8 b9 fd ff ff       	call   11b21 <__padstr>
   11d68:	83 c4 20             	add    $0x20,%esp
   11d6b:	89 45 08             	mov    %eax,0x8(%ebp)
   11d6e:	e9 92 00 00 00       	jmp    11e05 <__sprint+0x250>
   11d73:	8b 45 f4             	mov    -0xc(%ebp),%eax
   11d76:	8d 50 04             	lea    0x4(%eax),%edx
   11d79:	89 55 f4             	mov    %edx,-0xc(%ebp)
   11d7c:	8b 00                	mov    (%eax),%eax
   11d7e:	83 ec 08             	sub    $0x8,%esp
   11d81:	50                   	push   %eax
   11d82:	8d 45 d0             	lea    -0x30(%ebp),%eax
   11d85:	50                   	push   %eax
   11d86:	e8 83 02 00 00       	call   1200e <__cvtoct>
   11d8b:	83 c4 10             	add    $0x10,%esp
   11d8e:	89 45 e0             	mov    %eax,-0x20(%ebp)
   11d91:	83 ec 08             	sub    $0x8,%esp
   11d94:	ff 75 e4             	pushl  -0x1c(%ebp)
   11d97:	ff 75 ec             	pushl  -0x14(%ebp)
   11d9a:	ff 75 e8             	pushl  -0x18(%ebp)
   11d9d:	ff 75 e0             	pushl  -0x20(%ebp)
   11da0:	8d 45 d0             	lea    -0x30(%ebp),%eax
   11da3:	50                   	push   %eax
   11da4:	ff 75 08             	pushl  0x8(%ebp)
   11da7:	e8 75 fd ff ff       	call   11b21 <__padstr>
   11dac:	83 c4 20             	add    $0x20,%esp
   11daf:	89 45 08             	mov    %eax,0x8(%ebp)
   11db2:	eb 51                	jmp    11e05 <__sprint+0x250>
   11db4:	8b 45 f4             	mov    -0xc(%ebp),%eax
   11db7:	8d 50 04             	lea    0x4(%eax),%edx
   11dba:	89 55 f4             	mov    %edx,-0xc(%ebp)
   11dbd:	8b 00                	mov    (%eax),%eax
   11dbf:	83 ec 08             	sub    $0x8,%esp
   11dc2:	50                   	push   %eax
   11dc3:	8d 45 d0             	lea    -0x30(%ebp),%eax
   11dc6:	50                   	push   %eax
   11dc7:	e8 91 01 00 00       	call   11f5d <__cvtuns>
   11dcc:	83 c4 10             	add    $0x10,%esp
   11dcf:	89 45 e0             	mov    %eax,-0x20(%ebp)
   11dd2:	83 ec 08             	sub    $0x8,%esp
   11dd5:	ff 75 e4             	pushl  -0x1c(%ebp)
   11dd8:	ff 75 ec             	pushl  -0x14(%ebp)
   11ddb:	ff 75 e8             	pushl  -0x18(%ebp)
   11dde:	ff 75 e0             	pushl  -0x20(%ebp)
   11de1:	8d 45 d0             	lea    -0x30(%ebp),%eax
   11de4:	50                   	push   %eax
   11de5:	ff 75 08             	pushl  0x8(%ebp)
   11de8:	e8 34 fd ff ff       	call   11b21 <__padstr>
   11ded:	83 c4 20             	add    $0x20,%esp
   11df0:	89 45 08             	mov    %eax,0x8(%ebp)
   11df3:	90                   	nop
   11df4:	eb 0f                	jmp    11e05 <__sprint+0x250>
   11df6:	8b 45 08             	mov    0x8(%ebp),%eax
   11df9:	8d 50 01             	lea    0x1(%eax),%edx
   11dfc:	89 55 08             	mov    %edx,0x8(%ebp)
   11dff:	0f b6 55 f3          	movzbl -0xd(%ebp),%edx
   11e03:	88 10                	mov    %dl,(%eax)
   11e05:	8b 45 0c             	mov    0xc(%ebp),%eax
   11e08:	8d 50 01             	lea    0x1(%eax),%edx
   11e0b:	89 55 0c             	mov    %edx,0xc(%ebp)
   11e0e:	0f b6 00             	movzbl (%eax),%eax
   11e11:	88 45 f3             	mov    %al,-0xd(%ebp)
   11e14:	80 7d f3 00          	cmpb   $0x0,-0xd(%ebp)
   11e18:	0f 85 ab fd ff ff    	jne    11bc9 <__sprint+0x14>
   11e1e:	8b 45 08             	mov    0x8(%ebp),%eax
   11e21:	c6 00 00             	movb   $0x0,(%eax)
   11e24:	90                   	nop
   11e25:	c9                   	leave  
   11e26:	c3                   	ret    

00011e27 <__cvtdec0>:
   11e27:	55                   	push   %ebp
   11e28:	89 e5                	mov    %esp,%ebp
   11e2a:	83 ec 18             	sub    $0x18,%esp
   11e2d:	8b 4d 0c             	mov    0xc(%ebp),%ecx
   11e30:	ba 67 66 66 66       	mov    $0x66666667,%edx
   11e35:	89 c8                	mov    %ecx,%eax
   11e37:	f7 ea                	imul   %edx
   11e39:	c1 fa 02             	sar    $0x2,%edx
   11e3c:	89 c8                	mov    %ecx,%eax
   11e3e:	c1 f8 1f             	sar    $0x1f,%eax
   11e41:	29 c2                	sub    %eax,%edx
   11e43:	89 d0                	mov    %edx,%eax
   11e45:	89 45 f4             	mov    %eax,-0xc(%ebp)
   11e48:	83 7d f4 00          	cmpl   $0x0,-0xc(%ebp)
   11e4c:	79 0e                	jns    11e5c <__cvtdec0+0x35>
   11e4e:	c7 45 f4 cc cc cc 0c 	movl   $0xccccccc,-0xc(%ebp)
   11e55:	c7 45 0c 08 00 00 00 	movl   $0x8,0xc(%ebp)
   11e5c:	83 7d f4 00          	cmpl   $0x0,-0xc(%ebp)
   11e60:	74 14                	je     11e76 <__cvtdec0+0x4f>
   11e62:	83 ec 08             	sub    $0x8,%esp
   11e65:	ff 75 f4             	pushl  -0xc(%ebp)
   11e68:	ff 75 08             	pushl  0x8(%ebp)
   11e6b:	e8 b7 ff ff ff       	call   11e27 <__cvtdec0>
   11e70:	83 c4 10             	add    $0x10,%esp
   11e73:	89 45 08             	mov    %eax,0x8(%ebp)
   11e76:	8b 4d 0c             	mov    0xc(%ebp),%ecx
   11e79:	ba 67 66 66 66       	mov    $0x66666667,%edx
   11e7e:	89 c8                	mov    %ecx,%eax
   11e80:	f7 ea                	imul   %edx
   11e82:	c1 fa 02             	sar    $0x2,%edx
   11e85:	89 c8                	mov    %ecx,%eax
   11e87:	c1 f8 1f             	sar    $0x1f,%eax
   11e8a:	29 c2                	sub    %eax,%edx
   11e8c:	89 d0                	mov    %edx,%eax
   11e8e:	c1 e0 02             	shl    $0x2,%eax
   11e91:	01 d0                	add    %edx,%eax
   11e93:	01 c0                	add    %eax,%eax
   11e95:	29 c1                	sub    %eax,%ecx
   11e97:	89 ca                	mov    %ecx,%edx
   11e99:	89 d0                	mov    %edx,%eax
   11e9b:	8d 48 30             	lea    0x30(%eax),%ecx
   11e9e:	8b 45 08             	mov    0x8(%ebp),%eax
   11ea1:	8d 50 01             	lea    0x1(%eax),%edx
   11ea4:	89 55 08             	mov    %edx,0x8(%ebp)
   11ea7:	89 ca                	mov    %ecx,%edx
   11ea9:	88 10                	mov    %dl,(%eax)
   11eab:	8b 45 08             	mov    0x8(%ebp),%eax
   11eae:	c9                   	leave  
   11eaf:	c3                   	ret    

00011eb0 <__cvtuns0>:
   11eb0:	55                   	push   %ebp
   11eb1:	89 e5                	mov    %esp,%ebp
   11eb3:	83 ec 18             	sub    $0x18,%esp
   11eb6:	8b 45 0c             	mov    0xc(%ebp),%eax
   11eb9:	ba cd cc cc cc       	mov    $0xcccccccd,%edx
   11ebe:	f7 e2                	mul    %edx
   11ec0:	89 d0                	mov    %edx,%eax
   11ec2:	c1 e8 03             	shr    $0x3,%eax
   11ec5:	89 45 f4             	mov    %eax,-0xc(%ebp)
   11ec8:	83 7d f4 00          	cmpl   $0x0,-0xc(%ebp)
   11ecc:	74 15                	je     11ee3 <__cvtuns0+0x33>
   11ece:	8b 45 f4             	mov    -0xc(%ebp),%eax
   11ed1:	83 ec 08             	sub    $0x8,%esp
   11ed4:	50                   	push   %eax
   11ed5:	ff 75 08             	pushl  0x8(%ebp)
   11ed8:	e8 4a ff ff ff       	call   11e27 <__cvtdec0>
   11edd:	83 c4 10             	add    $0x10,%esp
   11ee0:	89 45 08             	mov    %eax,0x8(%ebp)
   11ee3:	8b 4d 0c             	mov    0xc(%ebp),%ecx
   11ee6:	ba cd cc cc cc       	mov    $0xcccccccd,%edx
   11eeb:	89 c8                	mov    %ecx,%eax
   11eed:	f7 e2                	mul    %edx
   11eef:	c1 ea 03             	shr    $0x3,%edx
   11ef2:	89 d0                	mov    %edx,%eax
   11ef4:	c1 e0 02             	shl    $0x2,%eax
   11ef7:	01 d0                	add    %edx,%eax
   11ef9:	01 c0                	add    %eax,%eax
   11efb:	29 c1                	sub    %eax,%ecx
   11efd:	89 ca                	mov    %ecx,%edx
   11eff:	89 d0                	mov    %edx,%eax
   11f01:	8d 48 30             	lea    0x30(%eax),%ecx
   11f04:	8b 45 08             	mov    0x8(%ebp),%eax
   11f07:	8d 50 01             	lea    0x1(%eax),%edx
   11f0a:	89 55 08             	mov    %edx,0x8(%ebp)
   11f0d:	89 ca                	mov    %ecx,%edx
   11f0f:	88 10                	mov    %dl,(%eax)
   11f11:	8b 45 08             	mov    0x8(%ebp),%eax
   11f14:	c9                   	leave  
   11f15:	c3                   	ret    

00011f16 <__cvtdec>:
   11f16:	55                   	push   %ebp
   11f17:	89 e5                	mov    %esp,%ebp
   11f19:	83 ec 18             	sub    $0x18,%esp
   11f1c:	8b 45 08             	mov    0x8(%ebp),%eax
   11f1f:	89 45 f4             	mov    %eax,-0xc(%ebp)
   11f22:	83 7d 0c 00          	cmpl   $0x0,0xc(%ebp)
   11f26:	79 0f                	jns    11f37 <__cvtdec+0x21>
   11f28:	8b 45 f4             	mov    -0xc(%ebp),%eax
   11f2b:	8d 50 01             	lea    0x1(%eax),%edx
   11f2e:	89 55 f4             	mov    %edx,-0xc(%ebp)
   11f31:	c6 00 2d             	movb   $0x2d,(%eax)
   11f34:	f7 5d 0c             	negl   0xc(%ebp)
   11f37:	83 ec 08             	sub    $0x8,%esp
   11f3a:	ff 75 0c             	pushl  0xc(%ebp)
   11f3d:	ff 75 f4             	pushl  -0xc(%ebp)
   11f40:	e8 e2 fe ff ff       	call   11e27 <__cvtdec0>
   11f45:	83 c4 10             	add    $0x10,%esp
   11f48:	89 45 f4             	mov    %eax,-0xc(%ebp)
   11f4b:	8b 45 f4             	mov    -0xc(%ebp),%eax
   11f4e:	c6 00 00             	movb   $0x0,(%eax)
   11f51:	8b 55 f4             	mov    -0xc(%ebp),%edx
   11f54:	8b 45 08             	mov    0x8(%ebp),%eax
   11f57:	29 c2                	sub    %eax,%edx
   11f59:	89 d0                	mov    %edx,%eax
   11f5b:	c9                   	leave  
   11f5c:	c3                   	ret    

00011f5d <__cvtuns>:
   11f5d:	55                   	push   %ebp
   11f5e:	89 e5                	mov    %esp,%ebp
   11f60:	83 ec 18             	sub    $0x18,%esp
   11f63:	8b 45 08             	mov    0x8(%ebp),%eax
   11f66:	89 45 f4             	mov    %eax,-0xc(%ebp)
   11f69:	83 ec 08             	sub    $0x8,%esp
   11f6c:	ff 75 0c             	pushl  0xc(%ebp)
   11f6f:	ff 75 f4             	pushl  -0xc(%ebp)
   11f72:	e8 39 ff ff ff       	call   11eb0 <__cvtuns0>
   11f77:	83 c4 10             	add    $0x10,%esp
   11f7a:	89 45 f4             	mov    %eax,-0xc(%ebp)
   11f7d:	8b 45 f4             	mov    -0xc(%ebp),%eax
   11f80:	c6 00 00             	movb   $0x0,(%eax)
   11f83:	8b 55 f4             	mov    -0xc(%ebp),%edx
   11f86:	8b 45 08             	mov    0x8(%ebp),%eax
   11f89:	29 c2                	sub    %eax,%edx
   11f8b:	89 d0                	mov    %edx,%eax
   11f8d:	c9                   	leave  
   11f8e:	c3                   	ret    

00011f8f <__cvthex>:
   11f8f:	55                   	push   %ebp
   11f90:	89 e5                	mov    %esp,%ebp
   11f92:	83 ec 10             	sub    $0x10,%esp
   11f95:	c7 45 f8 00 00 00 00 	movl   $0x0,-0x8(%ebp)
   11f9c:	8b 45 08             	mov    0x8(%ebp),%eax
   11f9f:	89 45 f4             	mov    %eax,-0xc(%ebp)
   11fa2:	c7 45 fc 00 00 00 00 	movl   $0x0,-0x4(%ebp)
   11fa9:	eb 4b                	jmp    11ff6 <__cvthex+0x67>
   11fab:	8b 45 0c             	mov    0xc(%ebp),%eax
   11fae:	25 00 00 00 f0       	and    $0xf0000000,%eax
   11fb3:	89 45 f0             	mov    %eax,-0x10(%ebp)
   11fb6:	83 7d fc 07          	cmpl   $0x7,-0x4(%ebp)
   11fba:	74 0c                	je     11fc8 <__cvthex+0x39>
   11fbc:	83 7d f0 00          	cmpl   $0x0,-0x10(%ebp)
   11fc0:	75 06                	jne    11fc8 <__cvthex+0x39>
   11fc2:	83 7d f8 00          	cmpl   $0x0,-0x8(%ebp)
   11fc6:	74 26                	je     11fee <__cvthex+0x5f>
   11fc8:	c7 45 f8 01 00 00 00 	movl   $0x1,-0x8(%ebp)
   11fcf:	c1 7d f0 1c          	sarl   $0x1c,-0x10(%ebp)
   11fd3:	83 65 f0 0f          	andl   $0xf,-0x10(%ebp)
   11fd7:	8b 45 f4             	mov    -0xc(%ebp),%eax
   11fda:	8d 50 01             	lea    0x1(%eax),%edx
   11fdd:	89 55 f4             	mov    %edx,-0xc(%ebp)
   11fe0:	8b 55 f0             	mov    -0x10(%ebp),%edx
   11fe3:	81 c2 0c d5 01 00    	add    $0x1d50c,%edx
   11fe9:	0f b6 12             	movzbl (%edx),%edx
   11fec:	88 10                	mov    %dl,(%eax)
   11fee:	c1 65 0c 04          	shll   $0x4,0xc(%ebp)
   11ff2:	83 45 fc 01          	addl   $0x1,-0x4(%ebp)
   11ff6:	83 7d fc 07          	cmpl   $0x7,-0x4(%ebp)
   11ffa:	7e af                	jle    11fab <__cvthex+0x1c>
   11ffc:	8b 45 f4             	mov    -0xc(%ebp),%eax
   11fff:	c6 00 00             	movb   $0x0,(%eax)
   12002:	8b 55 f4             	mov    -0xc(%ebp),%edx
   12005:	8b 45 08             	mov    0x8(%ebp),%eax
   12008:	29 c2                	sub    %eax,%edx
   1200a:	89 d0                	mov    %edx,%eax
   1200c:	c9                   	leave  
   1200d:	c3                   	ret    

0001200e <__cvtoct>:
   1200e:	55                   	push   %ebp
   1200f:	89 e5                	mov    %esp,%ebp
   12011:	83 ec 10             	sub    $0x10,%esp
   12014:	c7 45 f8 00 00 00 00 	movl   $0x0,-0x8(%ebp)
   1201b:	8b 45 08             	mov    0x8(%ebp),%eax
   1201e:	89 45 f4             	mov    %eax,-0xc(%ebp)
   12021:	8b 45 0c             	mov    0xc(%ebp),%eax
   12024:	25 00 00 00 c0       	and    $0xc0000000,%eax
   12029:	89 45 f0             	mov    %eax,-0x10(%ebp)
   1202c:	c1 7d f0 1e          	sarl   $0x1e,-0x10(%ebp)
   12030:	c7 45 fc 00 00 00 00 	movl   $0x0,-0x4(%ebp)
   12037:	eb 4b                	jmp    12084 <__cvtoct+0x76>
   12039:	83 7d fc 0a          	cmpl   $0xa,-0x4(%ebp)
   1203d:	74 0c                	je     1204b <__cvtoct+0x3d>
   1203f:	83 7d f0 00          	cmpl   $0x0,-0x10(%ebp)
   12043:	75 06                	jne    1204b <__cvtoct+0x3d>
   12045:	83 7d f8 00          	cmpl   $0x0,-0x8(%ebp)
   12049:	74 22                	je     1206d <__cvtoct+0x5f>
   1204b:	c7 45 f8 01 00 00 00 	movl   $0x1,-0x8(%ebp)
   12052:	83 65 f0 07          	andl   $0x7,-0x10(%ebp)
   12056:	8b 45 f4             	mov    -0xc(%ebp),%eax
   12059:	8d 50 01             	lea    0x1(%eax),%edx
   1205c:	89 55 f4             	mov    %edx,-0xc(%ebp)
   1205f:	8b 55 f0             	mov    -0x10(%ebp),%edx
   12062:	81 c2 0c d5 01 00    	add    $0x1d50c,%edx
   12068:	0f b6 12             	movzbl (%edx),%edx
   1206b:	88 10                	mov    %dl,(%eax)
   1206d:	c1 65 0c 03          	shll   $0x3,0xc(%ebp)
   12071:	8b 45 0c             	mov    0xc(%ebp),%eax
   12074:	25 00 00 00 e0       	and    $0xe0000000,%eax
   12079:	89 45 f0             	mov    %eax,-0x10(%ebp)
   1207c:	c1 7d f0 1d          	sarl   $0x1d,-0x10(%ebp)
   12080:	83 45 fc 01          	addl   $0x1,-0x4(%ebp)
   12084:	83 7d fc 0a          	cmpl   $0xa,-0x4(%ebp)
   12088:	7e af                	jle    12039 <__cvtoct+0x2b>
   1208a:	8b 45 f4             	mov    -0xc(%ebp),%eax
   1208d:	c6 00 00             	movb   $0x0,(%eax)
   12090:	8b 55 f4             	mov    -0xc(%ebp),%edx
   12093:	8b 45 08             	mov    0x8(%ebp),%eax
   12096:	29 c2                	sub    %eax,%edx
   12098:	89 d0                	mov    %edx,%eax
   1209a:	c9                   	leave  
   1209b:	c3                   	ret    

0001209c <__default_unexpected_handler>:
   1209c:	55                   	push   %ebp
   1209d:	89 e5                	mov    %esp,%ebp
   1209f:	83 ec 08             	sub    $0x8,%esp
   120a2:	83 ec 0c             	sub    $0xc,%esp
   120a5:	68 f0 92 01 00       	push   $0x192f0
   120aa:	e8 db 01 00 00       	call   1228a <__panic>
   120af:	83 c4 10             	add    $0x10,%esp
   120b2:	90                   	nop
   120b3:	c9                   	leave  
   120b4:	c3                   	ret    

000120b5 <__default_expected_handler>:
   120b5:	55                   	push   %ebp
   120b6:	89 e5                	mov    %esp,%ebp
   120b8:	83 ec 08             	sub    $0x8,%esp
   120bb:	83 7d 08 1f          	cmpl   $0x1f,0x8(%ebp)
   120bf:	7e 2f                	jle    120f0 <__default_expected_handler+0x3b>
   120c1:	83 7d 08 2f          	cmpl   $0x2f,0x8(%ebp)
   120c5:	7f 29                	jg     120f0 <__default_expected_handler+0x3b>
   120c7:	83 ec 08             	sub    $0x8,%esp
   120ca:	6a 20                	push   $0x20
   120cc:	6a 20                	push   $0x20
   120ce:	e8 25 eb ff ff       	call   10bf8 <__outb>
   120d3:	83 c4 10             	add    $0x10,%esp
   120d6:	83 7d 08 27          	cmpl   $0x27,0x8(%ebp)
   120da:	7e 24                	jle    12100 <__default_expected_handler+0x4b>
   120dc:	83 ec 08             	sub    $0x8,%esp
   120df:	6a 20                	push   $0x20
   120e1:	68 a0 00 00 00       	push   $0xa0
   120e6:	e8 0d eb ff ff       	call   10bf8 <__outb>
   120eb:	83 c4 10             	add    $0x10,%esp
   120ee:	eb 10                	jmp    12100 <__default_expected_handler+0x4b>
   120f0:	83 ec 0c             	sub    $0xc,%esp
   120f3:	68 08 93 01 00       	push   $0x19308
   120f8:	e8 8d 01 00 00       	call   1228a <__panic>
   120fd:	83 c4 10             	add    $0x10,%esp
   12100:	90                   	nop
   12101:	c9                   	leave  
   12102:	c3                   	ret    

00012103 <__default_mystery_handler>:
   12103:	55                   	push   %ebp
   12104:	89 e5                	mov    %esp,%ebp
   12106:	83 ec 08             	sub    $0x8,%esp
   12109:	83 ec 08             	sub    $0x8,%esp
   1210c:	6a 20                	push   $0x20
   1210e:	6a 20                	push   $0x20
   12110:	e8 e3 ea ff ff       	call   10bf8 <__outb>
   12115:	83 c4 10             	add    $0x10,%esp
   12118:	90                   	nop
   12119:	c9                   	leave  
   1211a:	c3                   	ret    

0001211b <init_pic>:
   1211b:	55                   	push   %ebp
   1211c:	89 e5                	mov    %esp,%ebp
   1211e:	83 ec 08             	sub    $0x8,%esp
   12121:	83 ec 08             	sub    $0x8,%esp
   12124:	6a 11                	push   $0x11
   12126:	6a 20                	push   $0x20
   12128:	e8 cb ea ff ff       	call   10bf8 <__outb>
   1212d:	83 c4 10             	add    $0x10,%esp
   12130:	83 ec 08             	sub    $0x8,%esp
   12133:	6a 11                	push   $0x11
   12135:	68 a0 00 00 00       	push   $0xa0
   1213a:	e8 b9 ea ff ff       	call   10bf8 <__outb>
   1213f:	83 c4 10             	add    $0x10,%esp
   12142:	83 ec 08             	sub    $0x8,%esp
   12145:	6a 20                	push   $0x20
   12147:	6a 21                	push   $0x21
   12149:	e8 aa ea ff ff       	call   10bf8 <__outb>
   1214e:	83 c4 10             	add    $0x10,%esp
   12151:	83 ec 08             	sub    $0x8,%esp
   12154:	6a 28                	push   $0x28
   12156:	68 a1 00 00 00       	push   $0xa1
   1215b:	e8 98 ea ff ff       	call   10bf8 <__outb>
   12160:	83 c4 10             	add    $0x10,%esp
   12163:	83 ec 08             	sub    $0x8,%esp
   12166:	6a 04                	push   $0x4
   12168:	6a 21                	push   $0x21
   1216a:	e8 89 ea ff ff       	call   10bf8 <__outb>
   1216f:	83 c4 10             	add    $0x10,%esp
   12172:	83 ec 08             	sub    $0x8,%esp
   12175:	6a 02                	push   $0x2
   12177:	68 a1 00 00 00       	push   $0xa1
   1217c:	e8 77 ea ff ff       	call   10bf8 <__outb>
   12181:	83 c4 10             	add    $0x10,%esp
   12184:	83 ec 08             	sub    $0x8,%esp
   12187:	6a 01                	push   $0x1
   12189:	6a 21                	push   $0x21
   1218b:	e8 68 ea ff ff       	call   10bf8 <__outb>
   12190:	83 c4 10             	add    $0x10,%esp
   12193:	83 ec 08             	sub    $0x8,%esp
   12196:	6a 01                	push   $0x1
   12198:	68 a1 00 00 00       	push   $0xa1
   1219d:	e8 56 ea ff ff       	call   10bf8 <__outb>
   121a2:	83 c4 10             	add    $0x10,%esp
   121a5:	83 ec 08             	sub    $0x8,%esp
   121a8:	6a 00                	push   $0x0
   121aa:	6a 21                	push   $0x21
   121ac:	e8 47 ea ff ff       	call   10bf8 <__outb>
   121b1:	83 c4 10             	add    $0x10,%esp
   121b4:	83 ec 08             	sub    $0x8,%esp
   121b7:	6a 00                	push   $0x0
   121b9:	68 a1 00 00 00       	push   $0xa1
   121be:	e8 35 ea ff ff       	call   10bf8 <__outb>
   121c3:	83 c4 10             	add    $0x10,%esp
   121c6:	90                   	nop
   121c7:	c9                   	leave  
   121c8:	c3                   	ret    

000121c9 <set_idt_entry>:
   121c9:	55                   	push   %ebp
   121ca:	89 e5                	mov    %esp,%ebp
   121cc:	83 ec 10             	sub    $0x10,%esp
   121cf:	8b 45 08             	mov    0x8(%ebp),%eax
   121d2:	c1 e0 03             	shl    $0x3,%eax
   121d5:	05 00 25 00 00       	add    $0x2500,%eax
   121da:	89 45 fc             	mov    %eax,-0x4(%ebp)
   121dd:	8b 45 0c             	mov    0xc(%ebp),%eax
   121e0:	89 c2                	mov    %eax,%edx
   121e2:	8b 45 fc             	mov    -0x4(%ebp),%eax
   121e5:	66 89 10             	mov    %dx,(%eax)
   121e8:	8b 45 fc             	mov    -0x4(%ebp),%eax
   121eb:	66 c7 40 02 10 00    	movw   $0x10,0x2(%eax)
   121f1:	8b 45 fc             	mov    -0x4(%ebp),%eax
   121f4:	66 c7 40 04 00 8e    	movw   $0x8e00,0x4(%eax)
   121fa:	8b 45 0c             	mov    0xc(%ebp),%eax
   121fd:	c1 e8 10             	shr    $0x10,%eax
   12200:	89 c2                	mov    %eax,%edx
   12202:	8b 45 fc             	mov    -0x4(%ebp),%eax
   12205:	66 89 50 06          	mov    %dx,0x6(%eax)
   12209:	90                   	nop
   1220a:	c9                   	leave  
   1220b:	c3                   	ret    

0001220c <init_idt>:
   1220c:	55                   	push   %ebp
   1220d:	89 e5                	mov    %esp,%ebp
   1220f:	83 ec 18             	sub    $0x18,%esp
   12212:	c7 45 f4 00 00 00 00 	movl   $0x0,-0xc(%ebp)
   12219:	eb 2d                	jmp    12248 <init_idt+0x3c>
   1221b:	8b 45 f4             	mov    -0xc(%ebp),%eax
   1221e:	8b 04 85 00 d0 01 00 	mov    0x1d000(,%eax,4),%eax
   12225:	50                   	push   %eax
   12226:	ff 75 f4             	pushl  -0xc(%ebp)
   12229:	e8 9b ff ff ff       	call   121c9 <set_idt_entry>
   1222e:	83 c4 08             	add    $0x8,%esp
   12231:	83 ec 08             	sub    $0x8,%esp
   12234:	68 9c 20 01 00       	push   $0x1209c
   12239:	ff 75 f4             	pushl  -0xc(%ebp)
   1223c:	e8 78 00 00 00       	call   122b9 <__install_isr>
   12241:	83 c4 10             	add    $0x10,%esp
   12244:	83 45 f4 01          	addl   $0x1,-0xc(%ebp)
   12248:	81 7d f4 ff 00 00 00 	cmpl   $0xff,-0xc(%ebp)
   1224f:	7e ca                	jle    1221b <init_idt+0xf>
   12251:	83 ec 08             	sub    $0x8,%esp
   12254:	68 b5 20 01 00       	push   $0x120b5
   12259:	6a 21                	push   $0x21
   1225b:	e8 59 00 00 00       	call   122b9 <__install_isr>
   12260:	83 c4 10             	add    $0x10,%esp
   12263:	83 ec 08             	sub    $0x8,%esp
   12266:	68 b5 20 01 00       	push   $0x120b5
   1226b:	6a 20                	push   $0x20
   1226d:	e8 47 00 00 00       	call   122b9 <__install_isr>
   12272:	83 c4 10             	add    $0x10,%esp
   12275:	83 ec 08             	sub    $0x8,%esp
   12278:	68 03 21 01 00       	push   $0x12103
   1227d:	6a 27                	push   $0x27
   1227f:	e8 35 00 00 00       	call   122b9 <__install_isr>
   12284:	83 c4 10             	add    $0x10,%esp
   12287:	90                   	nop
   12288:	c9                   	leave  
   12289:	c3                   	ret    

0001228a <__panic>:
   1228a:	55                   	push   %ebp
   1228b:	89 e5                	mov    %esp,%ebp
   1228d:	83 ec 08             	sub    $0x8,%esp
   12290:	fa                   	cli    
   12291:	83 ec 08             	sub    $0x8,%esp
   12294:	ff 75 08             	pushl  0x8(%ebp)
   12297:	68 29 93 01 00       	push   $0x19329
   1229c:	e8 b2 f3 ff ff       	call   11653 <__cio_printf>
   122a1:	83 c4 10             	add    $0x10,%esp
   122a4:	eb fe                	jmp    122a4 <__panic+0x1a>

000122a6 <__init_interrupts>:
   122a6:	55                   	push   %ebp
   122a7:	89 e5                	mov    %esp,%ebp
   122a9:	83 ec 08             	sub    $0x8,%esp
   122ac:	e8 5b ff ff ff       	call   1220c <init_idt>
   122b1:	e8 65 fe ff ff       	call   1211b <init_pic>
   122b6:	90                   	nop
   122b7:	c9                   	leave  
   122b8:	c3                   	ret    

000122b9 <__install_isr>:
   122b9:	55                   	push   %ebp
   122ba:	89 e5                	mov    %esp,%ebp
   122bc:	83 ec 10             	sub    $0x10,%esp
   122bf:	8b 45 08             	mov    0x8(%ebp),%eax
   122c2:	8b 04 85 c0 f4 01 00 	mov    0x1f4c0(,%eax,4),%eax
   122c9:	89 45 fc             	mov    %eax,-0x4(%ebp)
   122cc:	8b 45 08             	mov    0x8(%ebp),%eax
   122cf:	8b 55 0c             	mov    0xc(%ebp),%edx
   122d2:	89 14 85 c0 f4 01 00 	mov    %edx,0x1f4c0(,%eax,4)
   122d9:	8b 45 fc             	mov    -0x4(%ebp),%eax
   122dc:	c9                   	leave  
   122dd:	c3                   	ret    

000122de <__delay>:
   122de:	55                   	push   %ebp
   122df:	89 e5                	mov    %esp,%ebp
   122e1:	83 ec 10             	sub    $0x10,%esp
   122e4:	eb 16                	jmp    122fc <__delay+0x1e>
   122e6:	c7 45 fc 00 00 00 00 	movl   $0x0,-0x4(%ebp)
   122ed:	eb 04                	jmp    122f3 <__delay+0x15>
   122ef:	83 45 fc 01          	addl   $0x1,-0x4(%ebp)
   122f3:	81 7d fc 7f 96 98 00 	cmpl   $0x98967f,-0x4(%ebp)
   122fa:	7e f3                	jle    122ef <__delay+0x11>
   122fc:	83 6d 08 01          	subl   $0x1,0x8(%ebp)
   12300:	83 7d 08 00          	cmpl   $0x0,0x8(%ebp)
   12304:	79 e0                	jns    122e6 <__delay+0x8>
   12306:	90                   	nop
   12307:	c9                   	leave  
   12308:	c3                   	ret    

00012309 <_clk_isr>:
   12309:	55                   	push   %ebp
   1230a:	89 e5                	mov    %esp,%ebp
   1230c:	57                   	push   %edi
   1230d:	56                   	push   %esi
   1230e:	53                   	push   %ebx
   1230f:	83 ec 5c             	sub    $0x5c,%esp
   12312:	a1 0c d8 01 00       	mov    0x1d80c,%eax
   12317:	83 c0 01             	add    $0x1,%eax
   1231a:	a3 0c d8 01 00       	mov    %eax,0x1d80c
   1231f:	a1 0c d8 01 00       	mov    0x1d80c,%eax
   12324:	83 f8 64             	cmp    $0x64,%eax
   12327:	75 39                	jne    12362 <_clk_isr+0x59>
   12329:	c7 05 0c d8 01 00 00 	movl   $0x0,0x1d80c
   12330:	00 00 00 
   12333:	a1 10 d8 01 00       	mov    0x1d810,%eax
   12338:	83 c0 01             	add    $0x1,%eax
   1233b:	a3 10 d8 01 00       	mov    %eax,0x1d810
   12340:	a1 10 d8 01 00       	mov    0x1d810,%eax
   12345:	83 e0 03             	and    $0x3,%eax
   12348:	0f b6 80 cd 93 01 00 	movzbl 0x193cd(%eax),%eax
   1234f:	0f be c0             	movsbl %al,%eax
   12352:	83 ec 04             	sub    $0x4,%esp
   12355:	50                   	push   %eax
   12356:	6a 00                	push   $0x0
   12358:	6a 00                	push   $0x0
   1235a:	e8 c2 ea ff ff       	call   10e21 <__cio_putchar_at>
   1235f:	83 c4 10             	add    $0x10,%esp
   12362:	8b 0d c0 f8 01 00    	mov    0x1f8c0,%ecx
   12368:	ba f1 19 76 05       	mov    $0x57619f1,%edx
   1236d:	89 c8                	mov    %ecx,%eax
   1236f:	f7 e2                	mul    %edx
   12371:	89 d0                	mov    %edx,%eax
   12373:	c1 e8 06             	shr    $0x6,%eax
   12376:	69 c0 b8 0b 00 00    	imul   $0xbb8,%eax,%eax
   1237c:	29 c1                	sub    %eax,%ecx
   1237e:	89 c8                	mov    %ecx,%eax
   12380:	85 c0                	test   %eax,%eax
   12382:	0f 85 9e 00 00 00    	jne    12426 <_clk_isr+0x11d>
   12388:	83 ec 0c             	sub    $0xc,%esp
   1238b:	8d 45 c0             	lea    -0x40(%ebp),%eax
   1238e:	50                   	push   %eax
   1238f:	e8 de 11 00 00       	call   13572 <_pcount>
   12394:	83 c4 10             	add    $0x10,%esp
   12397:	a1 a4 fc 01 00       	mov    0x1fca4,%eax
   1239c:	83 ec 0c             	sub    $0xc,%esp
   1239f:	50                   	push   %eax
   123a0:	e8 bf 19 00 00       	call   13d64 <_q_length>
   123a5:	83 c4 10             	add    $0x10,%esp
   123a8:	89 c6                	mov    %eax,%esi
   123aa:	a1 a8 fc 01 00       	mov    0x1fca8,%eax
   123af:	83 ec 0c             	sub    $0xc,%esp
   123b2:	50                   	push   %eax
   123b3:	e8 ac 19 00 00       	call   13d64 <_q_length>
   123b8:	83 c4 10             	add    $0x10,%esp
   123bb:	89 45 b4             	mov    %eax,-0x4c(%ebp)
   123be:	8b 1d 90 fc 01 00    	mov    0x1fc90,%ebx
   123c4:	8b 3d 8c fc 01 00    	mov    0x1fc8c,%edi
   123ca:	89 7d b0             	mov    %edi,-0x50(%ebp)
   123cd:	8b 0d 88 fc 01 00    	mov    0x1fc88,%ecx
   123d3:	89 4d ac             	mov    %ecx,-0x54(%ebp)
   123d6:	8b 55 e0             	mov    -0x20(%ebp),%edx
   123d9:	89 55 a8             	mov    %edx,-0x58(%ebp)
   123dc:	8b 45 dc             	mov    -0x24(%ebp),%eax
   123df:	89 45 a4             	mov    %eax,-0x5c(%ebp)
   123e2:	8b 7d d8             	mov    -0x28(%ebp),%edi
   123e5:	89 7d a0             	mov    %edi,-0x60(%ebp)
   123e8:	8b 4d d4             	mov    -0x2c(%ebp),%ecx
   123eb:	89 4d 9c             	mov    %ecx,-0x64(%ebp)
   123ee:	8b 7d d0             	mov    -0x30(%ebp),%edi
   123f1:	8b 4d cc             	mov    -0x34(%ebp),%ecx
   123f4:	8b 55 c8             	mov    -0x38(%ebp),%edx
   123f7:	8b 45 c4             	mov    -0x3c(%ebp),%eax
   123fa:	56                   	push   %esi
   123fb:	ff 75 b4             	pushl  -0x4c(%ebp)
   123fe:	53                   	push   %ebx
   123ff:	ff 75 b0             	pushl  -0x50(%ebp)
   12402:	ff 75 ac             	pushl  -0x54(%ebp)
   12405:	ff 75 a8             	pushl  -0x58(%ebp)
   12408:	ff 75 a4             	pushl  -0x5c(%ebp)
   1240b:	ff 75 a0             	pushl  -0x60(%ebp)
   1240e:	ff 75 9c             	pushl  -0x64(%ebp)
   12411:	57                   	push   %edi
   12412:	51                   	push   %ecx
   12413:	52                   	push   %edx
   12414:	50                   	push   %eax
   12415:	68 40 93 01 00       	push   $0x19340
   1241a:	6a 00                	push   $0x0
   1241c:	6a 02                	push   $0x2
   1241e:	e8 10 f2 ff ff       	call   11633 <__cio_printf_at>
   12423:	83 c4 40             	add    $0x40,%esp
   12426:	a1 c0 f8 01 00       	mov    0x1f8c0,%eax
   1242b:	83 c0 01             	add    $0x1,%eax
   1242e:	a3 c0 f8 01 00       	mov    %eax,0x1f8c0
   12433:	a1 a8 fc 01 00       	mov    0x1fca8,%eax
   12438:	83 ec 04             	sub    $0x4,%esp
   1243b:	6a 00                	push   $0x0
   1243d:	6a 00                	push   $0x0
   1243f:	50                   	push   %eax
   12440:	e8 e3 1a 00 00       	call   13f28 <_q_find>
   12445:	83 c4 10             	add    $0x10,%esp
   12448:	89 45 e4             	mov    %eax,-0x1c(%ebp)
   1244b:	83 7d e4 00          	cmpl   $0x0,-0x1c(%ebp)
   1244f:	74 7c                	je     124cd <_clk_isr+0x1c4>
   12451:	8b 45 e4             	mov    -0x1c(%ebp),%eax
   12454:	8b 00                	mov    (%eax),%eax
   12456:	85 c0                	test   %eax,%eax
   12458:	74 73                	je     124cd <_clk_isr+0x1c4>
   1245a:	8b 45 e4             	mov    -0x1c(%ebp),%eax
   1245d:	8b 10                	mov    (%eax),%edx
   1245f:	a1 c0 f8 01 00       	mov    0x1f8c0,%eax
   12464:	39 c2                	cmp    %eax,%edx
   12466:	77 65                	ja     124cd <_clk_isr+0x1c4>
   12468:	a1 a8 fc 01 00       	mov    0x1fca8,%eax
   1246d:	83 ec 08             	sub    $0x8,%esp
   12470:	8d 55 b8             	lea    -0x48(%ebp),%edx
   12473:	52                   	push   %edx
   12474:	50                   	push   %eax
   12475:	e8 1f 1b 00 00       	call   13f99 <_q_remove>
   1247a:	83 c4 10             	add    $0x10,%esp
   1247d:	84 c0                	test   %al,%al
   1247f:	75 38                	jne    124b9 <_clk_isr+0x1b0>
   12481:	83 ec 04             	sub    $0x4,%esp
   12484:	68 8d 93 01 00       	push   $0x1938d
   12489:	6a 01                	push   $0x1
   1248b:	6a 7b                	push   $0x7b
   1248d:	68 a8 93 01 00       	push   $0x193a8
   12492:	68 dc 93 01 00       	push   $0x193dc
   12497:	68 b0 93 01 00       	push   $0x193b0
   1249c:	68 e0 f8 01 00       	push   $0x1f8e0
   124a1:	e8 0f f7 ff ff       	call   11bb5 <__sprint>
   124a6:	83 c4 20             	add    $0x20,%esp
   124a9:	83 ec 0c             	sub    $0xc,%esp
   124ac:	68 e0 f8 01 00       	push   $0x1f8e0
   124b1:	e8 da 04 00 00       	call   12990 <_kpanic>
   124b6:	83 c4 10             	add    $0x10,%esp
   124b9:	8b 45 bc             	mov    -0x44(%ebp),%eax
   124bc:	83 ec 0c             	sub    $0xc,%esp
   124bf:	50                   	push   %eax
   124c0:	e8 85 1e 00 00       	call   1434a <_schedule>
   124c5:	83 c4 10             	add    $0x10,%esp
   124c8:	e9 66 ff ff ff       	jmp    12433 <_clk_isr+0x12a>
   124cd:	a1 94 fc 01 00       	mov    0x1fc94,%eax
   124d2:	0f b6 50 1a          	movzbl 0x1a(%eax),%edx
   124d6:	a1 94 fc 01 00       	mov    0x1fc94,%eax
   124db:	83 ea 01             	sub    $0x1,%edx
   124de:	88 50 1a             	mov    %dl,0x1a(%eax)
   124e1:	a1 94 fc 01 00       	mov    0x1fc94,%eax
   124e6:	0f b6 40 1a          	movzbl 0x1a(%eax),%eax
   124ea:	84 c0                	test   %al,%al
   124ec:	75 16                	jne    12504 <_clk_isr+0x1fb>
   124ee:	a1 94 fc 01 00       	mov    0x1fc94,%eax
   124f3:	83 ec 0c             	sub    $0xc,%esp
   124f6:	50                   	push   %eax
   124f7:	e8 4e 1e 00 00       	call   1434a <_schedule>
   124fc:	83 c4 10             	add    $0x10,%esp
   124ff:	e8 34 1f 00 00       	call   14438 <_dispatch>
   12504:	83 ec 08             	sub    $0x8,%esp
   12507:	6a 20                	push   $0x20
   12509:	6a 20                	push   $0x20
   1250b:	e8 e8 e6 ff ff       	call   10bf8 <__outb>
   12510:	83 c4 10             	add    $0x10,%esp
   12513:	90                   	nop
   12514:	8d 65 f4             	lea    -0xc(%ebp),%esp
   12517:	5b                   	pop    %ebx
   12518:	5e                   	pop    %esi
   12519:	5f                   	pop    %edi
   1251a:	5d                   	pop    %ebp
   1251b:	c3                   	ret    

0001251c <_clk_init>:
   1251c:	55                   	push   %ebp
   1251d:	89 e5                	mov    %esp,%ebp
   1251f:	83 ec 18             	sub    $0x18,%esp
   12522:	83 ec 0c             	sub    $0xc,%esp
   12525:	68 d2 93 01 00       	push   $0x193d2
   1252a:	e8 aa ea ff ff       	call   10fd9 <__cio_puts>
   1252f:	83 c4 10             	add    $0x10,%esp
   12532:	c7 05 0c d8 01 00 63 	movl   $0x63,0x1d80c
   12539:	00 00 00 
   1253c:	c7 05 10 d8 01 00 00 	movl   $0x0,0x1d810
   12543:	00 00 00 
   12546:	c7 05 c0 f8 01 00 00 	movl   $0x0,0x1f8c0
   1254d:	00 00 00 
   12550:	c7 45 f4 a9 04 00 00 	movl   $0x4a9,-0xc(%ebp)
   12557:	83 ec 08             	sub    $0x8,%esp
   1255a:	6a 36                	push   $0x36
   1255c:	6a 43                	push   $0x43
   1255e:	e8 95 e6 ff ff       	call   10bf8 <__outb>
   12563:	83 c4 10             	add    $0x10,%esp
   12566:	8b 45 f4             	mov    -0xc(%ebp),%eax
   12569:	0f b6 c0             	movzbl %al,%eax
   1256c:	83 ec 08             	sub    $0x8,%esp
   1256f:	50                   	push   %eax
   12570:	6a 40                	push   $0x40
   12572:	e8 81 e6 ff ff       	call   10bf8 <__outb>
   12577:	83 c4 10             	add    $0x10,%esp
   1257a:	8b 45 f4             	mov    -0xc(%ebp),%eax
   1257d:	c1 e8 08             	shr    $0x8,%eax
   12580:	0f b6 c0             	movzbl %al,%eax
   12583:	83 ec 08             	sub    $0x8,%esp
   12586:	50                   	push   %eax
   12587:	6a 40                	push   $0x40
   12589:	e8 6a e6 ff ff       	call   10bf8 <__outb>
   1258e:	83 c4 10             	add    $0x10,%esp
   12591:	83 ec 08             	sub    $0x8,%esp
   12594:	68 09 23 01 00       	push   $0x12309
   12599:	6a 20                	push   $0x20
   1259b:	e8 19 fd ff ff       	call   122b9 <__install_isr>
   125a0:	83 c4 10             	add    $0x10,%esp
   125a3:	90                   	nop
   125a4:	c9                   	leave  
   125a5:	c3                   	ret    

000125a6 <_kreport>:
   125a6:	55                   	push   %ebp
   125a7:	89 e5                	mov    %esp,%ebp
   125a9:	83 ec 18             	sub    $0x18,%esp
   125ac:	8b 45 08             	mov    0x8(%ebp),%eax
   125af:	88 45 f4             	mov    %al,-0xc(%ebp)
   125b2:	83 ec 0c             	sub    $0xc,%esp
   125b5:	68 5c 94 01 00       	push   $0x1945c
   125ba:	e8 1a ea ff ff       	call   10fd9 <__cio_puts>
   125bf:	83 c4 10             	add    $0x10,%esp
   125c2:	83 ec 08             	sub    $0x8,%esp
   125c5:	6a 19                	push   $0x19
   125c7:	68 7e 94 01 00       	push   $0x1947e
   125cc:	e8 82 f0 ff ff       	call   11653 <__cio_printf>
   125d1:	83 c4 10             	add    $0x10,%esp
   125d4:	83 ec 08             	sub    $0x8,%esp
   125d7:	6a 03                	push   $0x3
   125d9:	68 96 94 01 00       	push   $0x19496
   125de:	e8 70 f0 ff ff       	call   11653 <__cio_printf>
   125e3:	83 c4 10             	add    $0x10,%esp
   125e6:	83 ec 08             	sub    $0x8,%esp
   125e9:	6a 09                	push   $0x9
   125eb:	68 a4 94 01 00       	push   $0x194a4
   125f0:	e8 5e f0 ff ff       	call   11653 <__cio_printf>
   125f5:	83 c4 10             	add    $0x10,%esp
   125f8:	83 ec 08             	sub    $0x8,%esp
   125fb:	68 e8 03 00 00       	push   $0x3e8
   12600:	68 b3 94 01 00       	push   $0x194b3
   12605:	e8 49 f0 ff ff       	call   11653 <__cio_printf>
   1260a:	83 c4 10             	add    $0x10,%esp
   1260d:	83 ec 0c             	sub    $0xc,%esp
   12610:	68 c2 94 01 00       	push   $0x194c2
   12615:	e8 bf e9 ff ff       	call   10fd9 <__cio_puts>
   1261a:	83 c4 10             	add    $0x10,%esp
   1261d:	83 ec 0c             	sub    $0xc,%esp
   12620:	68 cc 94 01 00       	push   $0x194cc
   12625:	e8 af e9 ff ff       	call   10fd9 <__cio_puts>
   1262a:	83 c4 10             	add    $0x10,%esp
   1262d:	83 ec 08             	sub    $0x8,%esp
   12630:	68 0f 27 00 00       	push   $0x270f
   12635:	68 d0 94 01 00       	push   $0x194d0
   1263a:	e8 14 f0 ff ff       	call   11653 <__cio_printf>
   1263f:	83 c4 10             	add    $0x10,%esp
   12642:	83 ec 08             	sub    $0x8,%esp
   12645:	6a 03                	push   $0x3
   12647:	68 dd 94 01 00       	push   $0x194dd
   1264c:	e8 02 f0 ff ff       	call   11653 <__cio_printf>
   12651:	83 c4 10             	add    $0x10,%esp
   12654:	83 ec 0c             	sub    $0xc,%esp
   12657:	68 5c 94 01 00       	push   $0x1945c
   1265c:	e8 78 e9 ff ff       	call   10fd9 <__cio_puts>
   12661:	83 c4 10             	add    $0x10,%esp
   12664:	90                   	nop
   12665:	c9                   	leave  
   12666:	c3                   	ret    

00012667 <_kinit>:
   12667:	55                   	push   %ebp
   12668:	89 e5                	mov    %esp,%ebp
   1266a:	83 ec 18             	sub    $0x18,%esp
   1266d:	e8 34 fc ff ff       	call   122a6 <__init_interrupts>
   12672:	83 ec 0c             	sub    $0xc,%esp
   12675:	6a 00                	push   $0x0
   12677:	e8 6a f2 ff ff       	call   118e6 <__cio_init>
   1267c:	83 c4 10             	add    $0x10,%esp
   1267f:	6a 63                	push   $0x63
   12681:	6a 63                	push   $0x63
   12683:	6a 07                	push   $0x7
   12685:	6a 00                	push   $0x0
   12687:	e8 93 e6 ff ff       	call   10d1f <__cio_setscroll>
   1268c:	83 c4 10             	add    $0x10,%esp
   1268f:	83 ec 04             	sub    $0x4,%esp
   12692:	68 ec 94 01 00       	push   $0x194ec
   12697:	6a 00                	push   $0x0
   12699:	6a 00                	push   $0x0
   1269b:	e8 f7 e8 ff ff       	call   10f97 <__cio_puts_at>
   126a0:	83 c4 10             	add    $0x10,%esp
   126a3:	83 ec 04             	sub    $0x4,%esp
   126a6:	68 40 95 01 00       	push   $0x19540
   126ab:	6a 06                	push   $0x6
   126ad:	6a 00                	push   $0x0
   126af:	e8 e3 e8 ff ff       	call   10f97 <__cio_puts_at>
   126b4:	83 c4 10             	add    $0x10,%esp
   126b7:	83 ec 0c             	sub    $0xc,%esp
   126ba:	68 94 95 01 00       	push   $0x19594
   126bf:	e8 15 e9 ff ff       	call   10fd9 <__cio_puts>
   126c4:	83 c4 10             	add    $0x10,%esp
   126c7:	83 ec 0c             	sub    $0xc,%esp
   126ca:	68 b8 95 01 00       	push   $0x195b8
   126cf:	e8 05 e9 ff ff       	call   10fd9 <__cio_puts>
   126d4:	83 c4 10             	add    $0x10,%esp
   126d7:	83 ec 0c             	sub    $0xc,%esp
   126da:	68 d9 95 01 00       	push   $0x195d9
   126df:	e8 f5 e8 ff ff       	call   10fd9 <__cio_puts>
   126e4:	83 c4 10             	add    $0x10,%esp
   126e7:	e8 05 04 00 00       	call   12af1 <_km_init>
   126ec:	e8 a8 14 00 00       	call   13b99 <_q_init>
   126f1:	e8 26 fe ff ff       	call   1251c <_clk_init>
   126f6:	e8 78 0a 00 00       	call   13173 <_pcb_init>
   126fb:	e8 a7 1b 00 00       	call   142a7 <_sched_init>
   12700:	e8 af 27 00 00       	call   14eb4 <_stk_init>
   12705:	e8 68 21 00 00       	call   14872 <_sio_init>
   1270a:	e8 ab 35 00 00       	call   15cba <_sys_init>
   1270f:	83 ec 0c             	sub    $0xc,%esp
   12712:	68 e4 95 01 00       	push   $0x195e4
   12717:	e8 bd e8 ff ff       	call   10fd9 <__cio_puts>
   1271c:	83 c4 10             	add    $0x10,%esp
   1271f:	83 ec 0c             	sub    $0xc,%esp
   12722:	68 b8 95 01 00       	push   $0x195b8
   12727:	e8 ad e8 ff ff       	call   10fd9 <__cio_puts>
   1272c:	83 c4 10             	add    $0x10,%esp
   1272f:	83 ec 0c             	sub    $0xc,%esp
   12732:	6a 01                	push   $0x1
   12734:	e8 6d fe ff ff       	call   125a6 <_kreport>
   12739:	83 c4 10             	add    $0x10,%esp
   1273c:	83 ec 0c             	sub    $0xc,%esp
   1273f:	6a 64                	push   $0x64
   12741:	e8 98 fb ff ff       	call   122de <__delay>
   12746:	83 c4 10             	add    $0x10,%esp
   12749:	e8 c1 0a 00 00       	call   1320f <_pcb_alloc>
   1274e:	89 45 f4             	mov    %eax,-0xc(%ebp)
   12751:	83 7d f4 00          	cmpl   $0x0,-0xc(%ebp)
   12755:	75 3b                	jne    12792 <_kinit+0x12b>
   12757:	83 ec 04             	sub    $0x4,%esp
   1275a:	68 06 96 01 00       	push   $0x19606
   1275f:	6a 00                	push   $0x0
   12761:	68 9d 01 00 00       	push   $0x19d
   12766:	68 0f 96 01 00       	push   $0x1960f
   1276b:	68 c8 96 01 00       	push   $0x196c8
   12770:	68 18 96 01 00       	push   $0x19618
   12775:	68 e0 f8 01 00       	push   $0x1f8e0
   1277a:	e8 36 f4 ff ff       	call   11bb5 <__sprint>
   1277f:	83 c4 20             	add    $0x20,%esp
   12782:	83 ec 0c             	sub    $0xc,%esp
   12785:	68 e0 f8 01 00       	push   $0x1f8e0
   1278a:	e8 01 02 00 00       	call   12990 <_kpanic>
   1278f:	83 c4 10             	add    $0x10,%esp
   12792:	e8 a3 27 00 00       	call   14f3a <_stk_alloc>
   12797:	89 c2                	mov    %eax,%edx
   12799:	8b 45 f4             	mov    -0xc(%ebp),%eax
   1279c:	89 50 04             	mov    %edx,0x4(%eax)
   1279f:	8b 45 f4             	mov    -0xc(%ebp),%eax
   127a2:	8b 40 04             	mov    0x4(%eax),%eax
   127a5:	85 c0                	test   %eax,%eax
   127a7:	75 3b                	jne    127e4 <_kinit+0x17d>
   127a9:	83 ec 04             	sub    $0x4,%esp
   127ac:	68 35 96 01 00       	push   $0x19635
   127b1:	6a 00                	push   $0x0
   127b3:	68 a0 01 00 00       	push   $0x1a0
   127b8:	68 0f 96 01 00       	push   $0x1960f
   127bd:	68 c8 96 01 00       	push   $0x196c8
   127c2:	68 18 96 01 00       	push   $0x19618
   127c7:	68 e0 f8 01 00       	push   $0x1f8e0
   127cc:	e8 e4 f3 ff ff       	call   11bb5 <__sprint>
   127d1:	83 c4 20             	add    $0x20,%esp
   127d4:	83 ec 0c             	sub    $0xc,%esp
   127d7:	68 e0 f8 01 00       	push   $0x1f8e0
   127dc:	e8 af 01 00 00       	call   12990 <_kpanic>
   127e1:	83 c4 10             	add    $0x10,%esp
   127e4:	8b 45 f4             	mov    -0xc(%ebp),%eax
   127e7:	66 c7 40 16 01 00    	movw   $0x1,0x16(%eax)
   127ed:	8b 45 f4             	mov    -0xc(%ebp),%eax
   127f0:	0f b7 50 16          	movzwl 0x16(%eax),%edx
   127f4:	8b 45 f4             	mov    -0xc(%ebp),%eax
   127f7:	66 89 50 14          	mov    %dx,0x14(%eax)
   127fb:	8b 45 f4             	mov    -0xc(%ebp),%eax
   127fe:	c6 40 18 01          	movb   $0x1,0x18(%eax)
   12802:	8b 45 f4             	mov    -0xc(%ebp),%eax
   12805:	c6 40 19 00          	movb   $0x0,0x19(%eax)
   12809:	8b 45 f4             	mov    -0xc(%ebp),%eax
   1280c:	8b 40 04             	mov    0x4(%eax),%eax
   1280f:	83 ec 04             	sub    $0x4,%esp
   12812:	68 45 96 01 00       	push   $0x19645
   12817:	6a 07                	push   $0x7
   12819:	50                   	push   %eax
   1281a:	e8 8d 27 00 00       	call   14fac <_stk_setup>
   1281f:	83 c4 10             	add    $0x10,%esp
   12822:	89 45 f0             	mov    %eax,-0x10(%ebp)
   12825:	83 7d f0 00          	cmpl   $0x0,-0x10(%ebp)
   12829:	75 3b                	jne    12866 <_kinit+0x1ff>
   1282b:	83 ec 04             	sub    $0x4,%esp
   1282e:	68 4c 96 01 00       	push   $0x1964c
   12833:	6a 00                	push   $0x0
   12835:	68 ad 01 00 00       	push   $0x1ad
   1283a:	68 0f 96 01 00       	push   $0x1960f
   1283f:	68 c8 96 01 00       	push   $0x196c8
   12844:	68 18 96 01 00       	push   $0x19618
   12849:	68 e0 f8 01 00       	push   $0x1f8e0
   1284e:	e8 62 f3 ff ff       	call   11bb5 <__sprint>
   12853:	83 c4 20             	add    $0x20,%esp
   12856:	83 ec 0c             	sub    $0xc,%esp
   12859:	68 e0 f8 01 00       	push   $0x1f8e0
   1285e:	e8 2d 01 00 00       	call   12990 <_kpanic>
   12863:	83 c4 10             	add    $0x10,%esp
   12866:	8b 45 f4             	mov    -0xc(%ebp),%eax
   12869:	8b 55 f0             	mov    -0x10(%ebp),%edx
   1286c:	89 10                	mov    %edx,(%eax)
   1286e:	83 ec 08             	sub    $0x8,%esp
   12871:	6a 48                	push   $0x48
   12873:	ff 75 f0             	pushl  -0x10(%ebp)
   12876:	e8 78 f1 ff ff       	call   119f3 <__memclr>
   1287b:	83 c4 10             	add    $0x10,%esp
   1287e:	8b 45 f0             	mov    -0x10(%ebp),%eax
   12881:	c7 40 44 02 02 00 00 	movl   $0x202,0x44(%eax)
   12888:	8b 45 f0             	mov    -0x10(%ebp),%eax
   1288b:	83 c0 48             	add    $0x48,%eax
   1288e:	89 c2                	mov    %eax,%edx
   12890:	8b 45 f0             	mov    -0x10(%ebp),%eax
   12893:	89 50 20             	mov    %edx,0x20(%eax)
   12896:	ba 66 84 01 00       	mov    $0x18466,%edx
   1289b:	8b 45 f0             	mov    -0x10(%ebp),%eax
   1289e:	89 50 3c             	mov    %edx,0x3c(%eax)
   128a1:	8b 45 f0             	mov    -0x10(%ebp),%eax
   128a4:	c7 40 40 10 00 00 00 	movl   $0x10,0x40(%eax)
   128ab:	8b 45 f0             	mov    -0x10(%ebp),%eax
   128ae:	c7 00 20 00 00 00    	movl   $0x20,(%eax)
   128b4:	8b 45 f0             	mov    -0x10(%ebp),%eax
   128b7:	c7 40 04 18 00 00 00 	movl   $0x18,0x4(%eax)
   128be:	8b 45 f0             	mov    -0x10(%ebp),%eax
   128c1:	8b 50 04             	mov    0x4(%eax),%edx
   128c4:	8b 45 f0             	mov    -0x10(%ebp),%eax
   128c7:	89 50 08             	mov    %edx,0x8(%eax)
   128ca:	8b 45 f0             	mov    -0x10(%ebp),%eax
   128cd:	8b 50 08             	mov    0x8(%eax),%edx
   128d0:	8b 45 f0             	mov    -0x10(%ebp),%eax
   128d3:	89 50 0c             	mov    %edx,0xc(%eax)
   128d6:	8b 45 f0             	mov    -0x10(%ebp),%eax
   128d9:	8b 50 0c             	mov    0xc(%eax),%edx
   128dc:	8b 45 f0             	mov    -0x10(%ebp),%eax
   128df:	89 50 10             	mov    %edx,0x10(%eax)
   128e2:	8b 45 f4             	mov    -0xc(%ebp),%eax
   128e5:	a3 20 fc 01 00       	mov    %eax,0x1fc20
   128ea:	c7 05 00 fc 01 00 01 	movl   $0x1,0x1fc00
   128f1:	00 00 00 
   128f4:	83 ec 0c             	sub    $0xc,%esp
   128f7:	ff 75 f4             	pushl  -0xc(%ebp)
   128fa:	e8 4b 1a 00 00       	call   1434a <_schedule>
   128ff:	83 c4 10             	add    $0x10,%esp
   12902:	e8 31 1b 00 00       	call   14438 <_dispatch>
   12907:	83 ec 0c             	sub    $0xc,%esp
   1290a:	68 58 96 01 00       	push   $0x19658
   1290f:	e8 c5 e6 ff ff       	call   10fd9 <__cio_puts>
   12914:	83 c4 10             	add    $0x10,%esp
   12917:	83 ec 0c             	sub    $0xc,%esp
   1291a:	68 b8 95 01 00       	push   $0x195b8
   1291f:	e8 b5 e6 ff ff       	call   10fd9 <__cio_puts>
   12924:	83 c4 10             	add    $0x10,%esp
   12927:	83 ec 0c             	sub    $0xc,%esp
   1292a:	6a 02                	push   $0x2
   1292c:	e8 be 20 00 00       	call   149ef <_sio_enable>
   12931:	83 c4 10             	add    $0x10,%esp
   12934:	90                   	nop
   12935:	c9                   	leave  
   12936:	c3                   	ret    

00012937 <_grow_list>:
   12937:	55                   	push   %ebp
   12938:	89 e5                	mov    %esp,%ebp
   1293a:	83 ec 18             	sub    $0x18,%esp
   1293d:	e8 fd 06 00 00       	call   1303f <_km_slice_alloc>
   12942:	89 45 f4             	mov    %eax,-0xc(%ebp)
   12945:	83 7d f4 00          	cmpl   $0x0,-0xc(%ebp)
   12949:	75 07                	jne    12952 <_grow_list+0x1b>
   1294b:	b8 00 00 00 00       	mov    $0x0,%eax
   12950:	eb 3c                	jmp    1298e <_grow_list+0x57>
   12952:	c7 45 f0 00 00 00 00 	movl   $0x0,-0x10(%ebp)
   12959:	eb 18                	jmp    12973 <_grow_list+0x3c>
   1295b:	83 ec 0c             	sub    $0xc,%esp
   1295e:	ff 75 f4             	pushl  -0xc(%ebp)
   12961:	8b 45 0c             	mov    0xc(%ebp),%eax
   12964:	ff d0                	call   *%eax
   12966:	83 c4 10             	add    $0x10,%esp
   12969:	8b 45 08             	mov    0x8(%ebp),%eax
   1296c:	01 45 f4             	add    %eax,-0xc(%ebp)
   1296f:	83 45 f0 01          	addl   $0x1,-0x10(%ebp)
   12973:	b8 00 04 00 00       	mov    $0x400,%eax
   12978:	ba 00 00 00 00       	mov    $0x0,%edx
   1297d:	f7 75 08             	divl   0x8(%ebp)
   12980:	89 c2                	mov    %eax,%edx
   12982:	8b 45 f0             	mov    -0x10(%ebp),%eax
   12985:	39 c2                	cmp    %eax,%edx
   12987:	77 d2                	ja     1295b <_grow_list+0x24>
   12989:	b8 01 00 00 00       	mov    $0x1,%eax
   1298e:	c9                   	leave  
   1298f:	c3                   	ret    

00012990 <_kpanic>:
   12990:	55                   	push   %ebp
   12991:	89 e5                	mov    %esp,%ebp
   12993:	83 ec 08             	sub    $0x8,%esp
   12996:	83 ec 0c             	sub    $0xc,%esp
   12999:	68 79 96 01 00       	push   $0x19679
   1299e:	e8 36 e6 ff ff       	call   10fd9 <__cio_puts>
   129a3:	83 c4 10             	add    $0x10,%esp
   129a6:	83 7d 08 00          	cmpl   $0x0,0x8(%ebp)
   129aa:	74 05                	je     129b1 <_kpanic+0x21>
   129ac:	8b 45 08             	mov    0x8(%ebp),%eax
   129af:	eb 05                	jmp    129b6 <_kpanic+0x26>
   129b1:	b8 96 96 01 00       	mov    $0x19696,%eax
   129b6:	83 ec 08             	sub    $0x8,%esp
   129b9:	50                   	push   %eax
   129ba:	68 9d 96 01 00       	push   $0x1969d
   129bf:	e8 8f ec ff ff       	call   11653 <__cio_printf>
   129c4:	83 c4 10             	add    $0x10,%esp
   129c7:	a1 94 fc 01 00       	mov    0x1fc94,%eax
   129cc:	83 ec 08             	sub    $0x8,%esp
   129cf:	50                   	push   %eax
   129d0:	68 a6 96 01 00       	push   $0x196a6
   129d5:	e8 0f 0c 00 00       	call   135e9 <_pcb_dump>
   129da:	83 c4 10             	add    $0x10,%esp
   129dd:	83 ec 08             	sub    $0x8,%esp
   129e0:	6a 00                	push   $0x0
   129e2:	68 ae 96 01 00       	push   $0x196ae
   129e7:	e8 9b 0e 00 00       	call   13887 <_ptable_dump>
   129ec:	83 c4 10             	add    $0x10,%esp
   129ef:	83 ec 0c             	sub    $0xc,%esp
   129f2:	68 b8 96 01 00       	push   $0x196b8
   129f7:	e8 8e f8 ff ff       	call   1228a <__panic>
   129fc:	83 c4 10             	add    $0x10,%esp
   129ff:	90                   	nop
   12a00:	c9                   	leave  
   12a01:	c3                   	ret    

00012a02 <_add_block>:
   12a02:	55                   	push   %ebp
   12a03:	89 e5                	mov    %esp,%ebp
   12a05:	83 ec 18             	sub    $0x18,%esp
   12a08:	81 7d 0c ff 0f 00 00 	cmpl   $0xfff,0xc(%ebp)
   12a0f:	0f 86 d9 00 00 00    	jbe    12aee <_add_block+0xec>
   12a15:	8b 45 0c             	mov    0xc(%ebp),%eax
   12a18:	25 ff 0f 00 00       	and    $0xfff,%eax
   12a1d:	85 c0                	test   %eax,%eax
   12a1f:	74 07                	je     12a28 <_add_block+0x26>
   12a21:	81 65 0c 00 f0 ff ff 	andl   $0xfffff000,0xc(%ebp)
   12a28:	8b 45 08             	mov    0x8(%ebp),%eax
   12a2b:	89 45 ec             	mov    %eax,-0x14(%ebp)
   12a2e:	8b 45 0c             	mov    0xc(%ebp),%eax
   12a31:	c1 e8 0c             	shr    $0xc,%eax
   12a34:	89 c2                	mov    %eax,%edx
   12a36:	8b 45 ec             	mov    -0x14(%ebp),%eax
   12a39:	89 10                	mov    %edx,(%eax)
   12a3b:	8b 45 ec             	mov    -0x14(%ebp),%eax
   12a3e:	c7 40 04 00 00 00 00 	movl   $0x0,0x4(%eax)
   12a45:	a1 14 d8 01 00       	mov    0x1d814,%eax
   12a4a:	85 c0                	test   %eax,%eax
   12a4c:	75 0d                	jne    12a5b <_add_block+0x59>
   12a4e:	8b 45 ec             	mov    -0x14(%ebp),%eax
   12a51:	a3 14 d8 01 00       	mov    %eax,0x1d814
   12a56:	e9 94 00 00 00       	jmp    12aef <_add_block+0xed>
   12a5b:	c7 45 f4 00 00 00 00 	movl   $0x0,-0xc(%ebp)
   12a62:	a1 14 d8 01 00       	mov    0x1d814,%eax
   12a67:	89 45 f0             	mov    %eax,-0x10(%ebp)
   12a6a:	eb 0f                	jmp    12a7b <_add_block+0x79>
   12a6c:	8b 45 f0             	mov    -0x10(%ebp),%eax
   12a6f:	89 45 f4             	mov    %eax,-0xc(%ebp)
   12a72:	8b 45 f0             	mov    -0x10(%ebp),%eax
   12a75:	8b 40 04             	mov    0x4(%eax),%eax
   12a78:	89 45 f0             	mov    %eax,-0x10(%ebp)
   12a7b:	83 7d f0 00          	cmpl   $0x0,-0x10(%ebp)
   12a7f:	74 08                	je     12a89 <_add_block+0x87>
   12a81:	8b 45 f0             	mov    -0x10(%ebp),%eax
   12a84:	3b 45 ec             	cmp    -0x14(%ebp),%eax
   12a87:	72 e3                	jb     12a6c <_add_block+0x6a>
   12a89:	8b 45 ec             	mov    -0x14(%ebp),%eax
   12a8c:	8b 55 f0             	mov    -0x10(%ebp),%edx
   12a8f:	89 50 04             	mov    %edx,0x4(%eax)
   12a92:	83 7d f4 00          	cmpl   $0x0,-0xc(%ebp)
   12a96:	75 4b                	jne    12ae3 <_add_block+0xe1>
   12a98:	83 7d f0 00          	cmpl   $0x0,-0x10(%ebp)
   12a9c:	75 3b                	jne    12ad9 <_add_block+0xd7>
   12a9e:	83 ec 04             	sub    $0x4,%esp
   12aa1:	68 d0 96 01 00       	push   $0x196d0
   12aa6:	6a 00                	push   $0x0
   12aa8:	68 fc 00 00 00       	push   $0xfc
   12aad:	68 d5 96 01 00       	push   $0x196d5
   12ab2:	68 6c 97 01 00       	push   $0x1976c
   12ab7:	68 dc 96 01 00       	push   $0x196dc
   12abc:	68 e0 f8 01 00       	push   $0x1f8e0
   12ac1:	e8 ef f0 ff ff       	call   11bb5 <__sprint>
   12ac6:	83 c4 20             	add    $0x20,%esp
   12ac9:	83 ec 0c             	sub    $0xc,%esp
   12acc:	68 e0 f8 01 00       	push   $0x1f8e0
   12ad1:	e8 ba fe ff ff       	call   12990 <_kpanic>
   12ad6:	83 c4 10             	add    $0x10,%esp
   12ad9:	8b 45 ec             	mov    -0x14(%ebp),%eax
   12adc:	a3 14 d8 01 00       	mov    %eax,0x1d814
   12ae1:	eb 0c                	jmp    12aef <_add_block+0xed>
   12ae3:	8b 45 f4             	mov    -0xc(%ebp),%eax
   12ae6:	8b 55 ec             	mov    -0x14(%ebp),%edx
   12ae9:	89 50 04             	mov    %edx,0x4(%eax)
   12aec:	eb 01                	jmp    12aef <_add_block+0xed>
   12aee:	90                   	nop
   12aef:	c9                   	leave  
   12af0:	c3                   	ret    

00012af1 <_km_init>:
   12af1:	55                   	push   %ebp
   12af2:	89 e5                	mov    %esp,%ebp
   12af4:	56                   	push   %esi
   12af5:	53                   	push   %ebx
   12af6:	83 ec 60             	sub    $0x60,%esp
   12af9:	83 ec 0c             	sub    $0xc,%esp
   12afc:	68 f9 96 01 00       	push   $0x196f9
   12b01:	e8 d3 e4 ff ff       	call   10fd9 <__cio_puts>
   12b06:	83 c4 10             	add    $0x10,%esp
   12b09:	c7 05 18 d8 01 00 00 	movl   $0x0,0x1d818
   12b10:	00 00 00 
   12b13:	c7 05 14 d8 01 00 00 	movl   $0x0,0x1d814
   12b1a:	00 00 00 
   12b1d:	b8 ac fc 01 00       	mov    $0x1fcac,%eax
   12b22:	89 45 e8             	mov    %eax,-0x18(%ebp)
   12b25:	c7 45 ec 00 00 00 00 	movl   $0x0,-0x14(%ebp)
   12b2c:	8b 45 e8             	mov    -0x18(%ebp),%eax
   12b2f:	25 ff 0f 00 00       	and    $0xfff,%eax
   12b34:	89 45 a0             	mov    %eax,-0x60(%ebp)
   12b37:	8b 45 ec             	mov    -0x14(%ebp),%eax
   12b3a:	83 e0 00             	and    $0x0,%eax
   12b3d:	89 45 a4             	mov    %eax,-0x5c(%ebp)
   12b40:	8b 45 a0             	mov    -0x60(%ebp),%eax
   12b43:	8b 55 a4             	mov    -0x5c(%ebp),%edx
   12b46:	89 c1                	mov    %eax,%ecx
   12b48:	80 f5 00             	xor    $0x0,%ch
   12b4b:	89 cb                	mov    %ecx,%ebx
   12b4d:	89 d0                	mov    %edx,%eax
   12b4f:	80 f4 00             	xor    $0x0,%ah
   12b52:	89 c6                	mov    %eax,%esi
   12b54:	89 f0                	mov    %esi,%eax
   12b56:	09 d8                	or     %ebx,%eax
   12b58:	85 c0                	test   %eax,%eax
   12b5a:	74 16                	je     12b72 <_km_init+0x81>
   12b5c:	81 65 e8 00 f0 ff ff 	andl   $0xfffff000,-0x18(%ebp)
   12b63:	83 65 ec 00          	andl   $0x0,-0x14(%ebp)
   12b67:	81 45 e8 00 10 00 00 	addl   $0x1000,-0x18(%ebp)
   12b6e:	83 55 ec 00          	adcl   $0x0,-0x14(%ebp)
   12b72:	b8 00 2d 00 00       	mov    $0x2d00,%eax
   12b77:	8b 00                	mov    (%eax),%eax
   12b79:	89 45 cc             	mov    %eax,-0x34(%ebp)
   12b7c:	83 7d cc 00          	cmpl   $0x0,-0x34(%ebp)
   12b80:	0f 8e 9f 01 00 00    	jle    12d25 <_km_init+0x234>
   12b86:	c7 45 f4 04 2d 00 00 	movl   $0x2d04,-0xc(%ebp)
   12b8d:	c7 45 e4 00 00 00 00 	movl   $0x0,-0x1c(%ebp)
   12b94:	e9 74 01 00 00       	jmp    12d0d <_km_init+0x21c>
   12b99:	8b 45 f4             	mov    -0xc(%ebp),%eax
   12b9c:	8b 40 14             	mov    0x14(%eax),%eax
   12b9f:	83 e0 01             	and    $0x1,%eax
   12ba2:	85 c0                	test   %eax,%eax
   12ba4:	0f 84 45 01 00 00    	je     12cef <_km_init+0x1fe>
   12baa:	8b 45 f4             	mov    -0xc(%ebp),%eax
   12bad:	8b 40 14             	mov    0x14(%eax),%eax
   12bb0:	83 e0 02             	and    $0x2,%eax
   12bb3:	85 c0                	test   %eax,%eax
   12bb5:	0f 85 37 01 00 00    	jne    12cf2 <_km_init+0x201>
   12bbb:	8b 45 f4             	mov    -0xc(%ebp),%eax
   12bbe:	8b 40 10             	mov    0x10(%eax),%eax
   12bc1:	83 f8 01             	cmp    $0x1,%eax
   12bc4:	0f 85 2b 01 00 00    	jne    12cf5 <_km_init+0x204>
   12bca:	8b 45 f4             	mov    -0xc(%ebp),%eax
   12bcd:	8b 40 04             	mov    0x4(%eax),%eax
   12bd0:	85 c0                	test   %eax,%eax
   12bd2:	0f 85 20 01 00 00    	jne    12cf8 <_km_init+0x207>
   12bd8:	8b 45 f4             	mov    -0xc(%ebp),%eax
   12bdb:	8b 40 0c             	mov    0xc(%eax),%eax
   12bde:	85 c0                	test   %eax,%eax
   12be0:	0f 85 15 01 00 00    	jne    12cfb <_km_init+0x20a>
   12be6:	8b 45 f4             	mov    -0xc(%ebp),%eax
   12be9:	8b 00                	mov    (%eax),%eax
   12beb:	3d ff ff ff bf       	cmp    $0xbfffffff,%eax
   12bf0:	0f 87 08 01 00 00    	ja     12cfe <_km_init+0x20d>
   12bf6:	8b 45 f4             	mov    -0xc(%ebp),%eax
   12bf9:	8b 10                	mov    (%eax),%edx
   12bfb:	8b 45 f4             	mov    -0xc(%ebp),%eax
   12bfe:	8b 40 08             	mov    0x8(%eax),%eax
   12c01:	01 d0                	add    %edx,%eax
   12c03:	89 45 c8             	mov    %eax,-0x38(%ebp)
   12c06:	81 7d c8 ff ff ff bf 	cmpl   $0xbfffffff,-0x38(%ebp)
   12c0d:	0f 87 ee 00 00 00    	ja     12d01 <_km_init+0x210>
   12c13:	8b 45 f4             	mov    -0xc(%ebp),%eax
   12c16:	8b 50 04             	mov    0x4(%eax),%edx
   12c19:	8b 00                	mov    (%eax),%eax
   12c1b:	89 45 d8             	mov    %eax,-0x28(%ebp)
   12c1e:	89 55 dc             	mov    %edx,-0x24(%ebp)
   12c21:	8b 45 f4             	mov    -0xc(%ebp),%eax
   12c24:	8b 50 0c             	mov    0xc(%eax),%edx
   12c27:	8b 40 08             	mov    0x8(%eax),%eax
   12c2a:	89 45 d0             	mov    %eax,-0x30(%ebp)
   12c2d:	89 55 d4             	mov    %edx,-0x2c(%ebp)
   12c30:	8b 45 d8             	mov    -0x28(%ebp),%eax
   12c33:	8b 55 dc             	mov    -0x24(%ebp),%edx
   12c36:	3b 55 ec             	cmp    -0x14(%ebp),%edx
   12c39:	77 5b                	ja     12c96 <_km_init+0x1a5>
   12c3b:	3b 55 ec             	cmp    -0x14(%ebp),%edx
   12c3e:	72 05                	jb     12c45 <_km_init+0x154>
   12c40:	3b 45 e8             	cmp    -0x18(%ebp),%eax
   12c43:	73 51                	jae    12c96 <_km_init+0x1a5>
   12c45:	8b 4d d8             	mov    -0x28(%ebp),%ecx
   12c48:	8b 5d dc             	mov    -0x24(%ebp),%ebx
   12c4b:	8b 45 d0             	mov    -0x30(%ebp),%eax
   12c4e:	8b 55 d4             	mov    -0x2c(%ebp),%edx
   12c51:	01 c8                	add    %ecx,%eax
   12c53:	11 da                	adc    %ebx,%edx
   12c55:	39 55 ec             	cmp    %edx,-0x14(%ebp)
   12c58:	72 12                	jb     12c6c <_km_init+0x17b>
   12c5a:	39 55 ec             	cmp    %edx,-0x14(%ebp)
   12c5d:	0f 87 a1 00 00 00    	ja     12d04 <_km_init+0x213>
   12c63:	39 45 e8             	cmp    %eax,-0x18(%ebp)
   12c66:	0f 87 98 00 00 00    	ja     12d04 <_km_init+0x213>
   12c6c:	8b 45 e8             	mov    -0x18(%ebp),%eax
   12c6f:	8b 55 ec             	mov    -0x14(%ebp),%edx
   12c72:	2b 45 d8             	sub    -0x28(%ebp),%eax
   12c75:	1b 55 dc             	sbb    -0x24(%ebp),%edx
   12c78:	89 45 c0             	mov    %eax,-0x40(%ebp)
   12c7b:	89 55 c4             	mov    %edx,-0x3c(%ebp)
   12c7e:	8b 45 c0             	mov    -0x40(%ebp),%eax
   12c81:	8b 55 c4             	mov    -0x3c(%ebp),%edx
   12c84:	29 45 d0             	sub    %eax,-0x30(%ebp)
   12c87:	19 55 d4             	sbb    %edx,-0x2c(%ebp)
   12c8a:	8b 45 e8             	mov    -0x18(%ebp),%eax
   12c8d:	8b 55 ec             	mov    -0x14(%ebp),%edx
   12c90:	89 45 d8             	mov    %eax,-0x28(%ebp)
   12c93:	89 55 dc             	mov    %edx,-0x24(%ebp)
   12c96:	8b 4d d8             	mov    -0x28(%ebp),%ecx
   12c99:	8b 5d dc             	mov    -0x24(%ebp),%ebx
   12c9c:	8b 45 d0             	mov    -0x30(%ebp),%eax
   12c9f:	8b 55 d4             	mov    -0x2c(%ebp),%edx
   12ca2:	01 c8                	add    %ecx,%eax
   12ca4:	11 da                	adc    %ebx,%edx
   12ca6:	83 fa 00             	cmp    $0x0,%edx
   12ca9:	76 25                	jbe    12cd0 <_km_init+0x1df>
   12cab:	8b 4d d8             	mov    -0x28(%ebp),%ecx
   12cae:	8b 5d dc             	mov    -0x24(%ebp),%ebx
   12cb1:	8b 45 d0             	mov    -0x30(%ebp),%eax
   12cb4:	8b 55 d4             	mov    -0x2c(%ebp),%edx
   12cb7:	01 c8                	add    %ecx,%eax
   12cb9:	11 da                	adc    %ebx,%edx
   12cbb:	83 ea 01             	sub    $0x1,%edx
   12cbe:	89 45 b8             	mov    %eax,-0x48(%ebp)
   12cc1:	89 55 bc             	mov    %edx,-0x44(%ebp)
   12cc4:	8b 45 b8             	mov    -0x48(%ebp),%eax
   12cc7:	8b 55 bc             	mov    -0x44(%ebp),%edx
   12cca:	29 45 d0             	sub    %eax,-0x30(%ebp)
   12ccd:	19 55 d4             	sbb    %edx,-0x2c(%ebp)
   12cd0:	8b 45 d8             	mov    -0x28(%ebp),%eax
   12cd3:	89 45 b4             	mov    %eax,-0x4c(%ebp)
   12cd6:	8b 45 d0             	mov    -0x30(%ebp),%eax
   12cd9:	89 45 b0             	mov    %eax,-0x50(%ebp)
   12cdc:	83 ec 08             	sub    $0x8,%esp
   12cdf:	ff 75 b0             	pushl  -0x50(%ebp)
   12ce2:	ff 75 b4             	pushl  -0x4c(%ebp)
   12ce5:	e8 18 fd ff ff       	call   12a02 <_add_block>
   12cea:	83 c4 10             	add    $0x10,%esp
   12ced:	eb 16                	jmp    12d05 <_km_init+0x214>
   12cef:	90                   	nop
   12cf0:	eb 13                	jmp    12d05 <_km_init+0x214>
   12cf2:	90                   	nop
   12cf3:	eb 10                	jmp    12d05 <_km_init+0x214>
   12cf5:	90                   	nop
   12cf6:	eb 0d                	jmp    12d05 <_km_init+0x214>
   12cf8:	90                   	nop
   12cf9:	eb 0a                	jmp    12d05 <_km_init+0x214>
   12cfb:	90                   	nop
   12cfc:	eb 07                	jmp    12d05 <_km_init+0x214>
   12cfe:	90                   	nop
   12cff:	eb 04                	jmp    12d05 <_km_init+0x214>
   12d01:	90                   	nop
   12d02:	eb 01                	jmp    12d05 <_km_init+0x214>
   12d04:	90                   	nop
   12d05:	83 45 e4 01          	addl   $0x1,-0x1c(%ebp)
   12d09:	83 45 f4 18          	addl   $0x18,-0xc(%ebp)
   12d0d:	8b 45 e4             	mov    -0x1c(%ebp),%eax
   12d10:	3b 45 cc             	cmp    -0x34(%ebp),%eax
   12d13:	0f 8c 80 fe ff ff    	jl     12b99 <_km_init+0xa8>
   12d19:	c7 05 1c d8 01 00 01 	movl   $0x1,0x1d81c
   12d20:	00 00 00 
   12d23:	eb 01                	jmp    12d26 <_km_init+0x235>
   12d25:	90                   	nop
   12d26:	8d 65 f8             	lea    -0x8(%ebp),%esp
   12d29:	5b                   	pop    %ebx
   12d2a:	5e                   	pop    %esi
   12d2b:	5d                   	pop    %ebp
   12d2c:	c3                   	ret    

00012d2d <_km_dump>:
   12d2d:	55                   	push   %ebp
   12d2e:	89 e5                	mov    %esp,%ebp
   12d30:	83 ec 18             	sub    $0x18,%esp
   12d33:	83 ec 08             	sub    $0x8,%esp
   12d36:	68 14 d8 01 00       	push   $0x1d814
   12d3b:	68 ff 96 01 00       	push   $0x196ff
   12d40:	e8 0e e9 ff ff       	call   11653 <__cio_printf>
   12d45:	83 c4 10             	add    $0x10,%esp
   12d48:	a1 14 d8 01 00       	mov    0x1d814,%eax
   12d4d:	89 45 f4             	mov    %eax,-0xc(%ebp)
   12d50:	eb 39                	jmp    12d8b <_km_dump+0x5e>
   12d52:	8b 45 f4             	mov    -0xc(%ebp),%eax
   12d55:	8b 50 04             	mov    0x4(%eax),%edx
   12d58:	8b 45 f4             	mov    -0xc(%ebp),%eax
   12d5b:	8b 00                	mov    (%eax),%eax
   12d5d:	c1 e0 0c             	shl    $0xc,%eax
   12d60:	89 c1                	mov    %eax,%ecx
   12d62:	8b 45 f4             	mov    -0xc(%ebp),%eax
   12d65:	01 c1                	add    %eax,%ecx
   12d67:	8b 45 f4             	mov    -0xc(%ebp),%eax
   12d6a:	8b 00                	mov    (%eax),%eax
   12d6c:	83 ec 0c             	sub    $0xc,%esp
   12d6f:	52                   	push   %edx
   12d70:	51                   	push   %ecx
   12d71:	50                   	push   %eax
   12d72:	ff 75 f4             	pushl  -0xc(%ebp)
   12d75:	68 14 97 01 00       	push   $0x19714
   12d7a:	e8 d4 e8 ff ff       	call   11653 <__cio_printf>
   12d7f:	83 c4 20             	add    $0x20,%esp
   12d82:	8b 45 f4             	mov    -0xc(%ebp),%eax
   12d85:	8b 40 04             	mov    0x4(%eax),%eax
   12d88:	89 45 f4             	mov    %eax,-0xc(%ebp)
   12d8b:	83 7d f4 00          	cmpl   $0x0,-0xc(%ebp)
   12d8f:	75 c1                	jne    12d52 <_km_dump+0x25>
   12d91:	90                   	nop
   12d92:	c9                   	leave  
   12d93:	c3                   	ret    

00012d94 <_km_page_alloc>:
   12d94:	55                   	push   %ebp
   12d95:	89 e5                	mov    %esp,%ebp
   12d97:	83 ec 28             	sub    $0x28,%esp
   12d9a:	a1 1c d8 01 00       	mov    0x1d81c,%eax
   12d9f:	85 c0                	test   %eax,%eax
   12da1:	75 3b                	jne    12dde <_km_page_alloc+0x4a>
   12da3:	83 ec 04             	sub    $0x4,%esp
   12da6:	68 50 97 01 00       	push   $0x19750
   12dab:	6a 00                	push   $0x0
   12dad:	68 c0 01 00 00       	push   $0x1c0
   12db2:	68 d5 96 01 00       	push   $0x196d5
   12db7:	68 78 97 01 00       	push   $0x19778
   12dbc:	68 dc 96 01 00       	push   $0x196dc
   12dc1:	68 e0 f8 01 00       	push   $0x1f8e0
   12dc6:	e8 ea ed ff ff       	call   11bb5 <__sprint>
   12dcb:	83 c4 20             	add    $0x20,%esp
   12dce:	83 ec 0c             	sub    $0xc,%esp
   12dd1:	68 e0 f8 01 00       	push   $0x1f8e0
   12dd6:	e8 b5 fb ff ff       	call   12990 <_kpanic>
   12ddb:	83 c4 10             	add    $0x10,%esp
   12dde:	83 7d 08 00          	cmpl   $0x0,0x8(%ebp)
   12de2:	75 0a                	jne    12dee <_km_page_alloc+0x5a>
   12de4:	b8 00 00 00 00       	mov    $0x0,%eax
   12de9:	e9 9c 00 00 00       	jmp    12e8a <_km_page_alloc+0xf6>
   12dee:	a1 14 d8 01 00       	mov    0x1d814,%eax
   12df3:	89 45 f4             	mov    %eax,-0xc(%ebp)
   12df6:	c7 45 f0 14 d8 01 00 	movl   $0x1d814,-0x10(%ebp)
   12dfd:	eb 11                	jmp    12e10 <_km_page_alloc+0x7c>
   12dff:	8b 45 f4             	mov    -0xc(%ebp),%eax
   12e02:	83 c0 04             	add    $0x4,%eax
   12e05:	89 45 f0             	mov    %eax,-0x10(%ebp)
   12e08:	8b 45 f0             	mov    -0x10(%ebp),%eax
   12e0b:	8b 00                	mov    (%eax),%eax
   12e0d:	89 45 f4             	mov    %eax,-0xc(%ebp)
   12e10:	83 7d f4 00          	cmpl   $0x0,-0xc(%ebp)
   12e14:	74 0a                	je     12e20 <_km_page_alloc+0x8c>
   12e16:	8b 45 f4             	mov    -0xc(%ebp),%eax
   12e19:	8b 00                	mov    (%eax),%eax
   12e1b:	39 45 08             	cmp    %eax,0x8(%ebp)
   12e1e:	77 df                	ja     12dff <_km_page_alloc+0x6b>
   12e20:	83 7d f4 00          	cmpl   $0x0,-0xc(%ebp)
   12e24:	75 07                	jne    12e2d <_km_page_alloc+0x99>
   12e26:	b8 00 00 00 00       	mov    $0x0,%eax
   12e2b:	eb 5d                	jmp    12e8a <_km_page_alloc+0xf6>
   12e2d:	8b 45 f4             	mov    -0xc(%ebp),%eax
   12e30:	8b 00                	mov    (%eax),%eax
   12e32:	39 45 08             	cmp    %eax,0x8(%ebp)
   12e35:	75 0d                	jne    12e44 <_km_page_alloc+0xb0>
   12e37:	8b 45 f4             	mov    -0xc(%ebp),%eax
   12e3a:	8b 50 04             	mov    0x4(%eax),%edx
   12e3d:	8b 45 f0             	mov    -0x10(%ebp),%eax
   12e40:	89 10                	mov    %edx,(%eax)
   12e42:	eb 43                	jmp    12e87 <_km_page_alloc+0xf3>
   12e44:	8b 45 f4             	mov    -0xc(%ebp),%eax
   12e47:	89 45 ec             	mov    %eax,-0x14(%ebp)
   12e4a:	8b 45 f4             	mov    -0xc(%ebp),%eax
   12e4d:	8b 00                	mov    (%eax),%eax
   12e4f:	2b 45 08             	sub    0x8(%ebp),%eax
   12e52:	89 45 e8             	mov    %eax,-0x18(%ebp)
   12e55:	8b 45 08             	mov    0x8(%ebp),%eax
   12e58:	c1 e0 0c             	shl    $0xc,%eax
   12e5b:	89 c2                	mov    %eax,%edx
   12e5d:	8b 45 f4             	mov    -0xc(%ebp),%eax
   12e60:	01 d0                	add    %edx,%eax
   12e62:	89 45 e4             	mov    %eax,-0x1c(%ebp)
   12e65:	8b 55 e8             	mov    -0x18(%ebp),%edx
   12e68:	8b 45 e4             	mov    -0x1c(%ebp),%eax
   12e6b:	89 10                	mov    %edx,(%eax)
   12e6d:	8b 45 f4             	mov    -0xc(%ebp),%eax
   12e70:	8b 50 04             	mov    0x4(%eax),%edx
   12e73:	8b 45 e4             	mov    -0x1c(%ebp),%eax
   12e76:	89 50 04             	mov    %edx,0x4(%eax)
   12e79:	8b 45 f0             	mov    -0x10(%ebp),%eax
   12e7c:	8b 55 e4             	mov    -0x1c(%ebp),%edx
   12e7f:	89 10                	mov    %edx,(%eax)
   12e81:	8b 45 ec             	mov    -0x14(%ebp),%eax
   12e84:	89 45 f4             	mov    %eax,-0xc(%ebp)
   12e87:	8b 45 f4             	mov    -0xc(%ebp),%eax
   12e8a:	c9                   	leave  
   12e8b:	c3                   	ret    

00012e8c <_km_page_free>:
   12e8c:	55                   	push   %ebp
   12e8d:	89 e5                	mov    %esp,%ebp
   12e8f:	83 ec 18             	sub    $0x18,%esp
   12e92:	a1 1c d8 01 00       	mov    0x1d81c,%eax
   12e97:	85 c0                	test   %eax,%eax
   12e99:	75 3b                	jne    12ed6 <_km_page_free+0x4a>
   12e9b:	83 ec 04             	sub    $0x4,%esp
   12e9e:	68 50 97 01 00       	push   $0x19750
   12ea3:	6a 00                	push   $0x0
   12ea5:	68 10 02 00 00       	push   $0x210
   12eaa:	68 d5 96 01 00       	push   $0x196d5
   12eaf:	68 88 97 01 00       	push   $0x19788
   12eb4:	68 dc 96 01 00       	push   $0x196dc
   12eb9:	68 e0 f8 01 00       	push   $0x1f8e0
   12ebe:	e8 f2 ec ff ff       	call   11bb5 <__sprint>
   12ec3:	83 c4 20             	add    $0x20,%esp
   12ec6:	83 ec 0c             	sub    $0xc,%esp
   12ec9:	68 e0 f8 01 00       	push   $0x1f8e0
   12ece:	e8 bd fa ff ff       	call   12990 <_kpanic>
   12ed3:	83 c4 10             	add    $0x10,%esp
   12ed6:	83 7d 08 00          	cmpl   $0x0,0x8(%ebp)
   12eda:	0f 84 d4 00 00 00    	je     12fb4 <_km_page_free+0x128>
   12ee0:	8b 45 08             	mov    0x8(%ebp),%eax
   12ee3:	89 45 f4             	mov    %eax,-0xc(%ebp)
   12ee6:	8b 45 f4             	mov    -0xc(%ebp),%eax
   12ee9:	c7 00 01 00 00 00    	movl   $0x1,(%eax)
   12eef:	c7 45 f0 00 00 00 00 	movl   $0x0,-0x10(%ebp)
   12ef6:	a1 14 d8 01 00       	mov    0x1d814,%eax
   12efb:	89 45 ec             	mov    %eax,-0x14(%ebp)
   12efe:	eb 0f                	jmp    12f0f <_km_page_free+0x83>
   12f00:	8b 45 ec             	mov    -0x14(%ebp),%eax
   12f03:	89 45 f0             	mov    %eax,-0x10(%ebp)
   12f06:	8b 45 ec             	mov    -0x14(%ebp),%eax
   12f09:	8b 40 04             	mov    0x4(%eax),%eax
   12f0c:	89 45 ec             	mov    %eax,-0x14(%ebp)
   12f0f:	83 7d ec 00          	cmpl   $0x0,-0x14(%ebp)
   12f13:	74 08                	je     12f1d <_km_page_free+0x91>
   12f15:	8b 45 ec             	mov    -0x14(%ebp),%eax
   12f18:	3b 45 f4             	cmp    -0xc(%ebp),%eax
   12f1b:	72 e3                	jb     12f00 <_km_page_free+0x74>
   12f1d:	83 7d f0 00          	cmpl   $0x0,-0x10(%ebp)
   12f21:	74 44                	je     12f67 <_km_page_free+0xdb>
   12f23:	8b 45 f0             	mov    -0x10(%ebp),%eax
   12f26:	8b 00                	mov    (%eax),%eax
   12f28:	c1 e0 0c             	shl    $0xc,%eax
   12f2b:	89 c2                	mov    %eax,%edx
   12f2d:	8b 45 f0             	mov    -0x10(%ebp),%eax
   12f30:	01 d0                	add    %edx,%eax
   12f32:	39 45 f4             	cmp    %eax,-0xc(%ebp)
   12f35:	75 19                	jne    12f50 <_km_page_free+0xc4>
   12f37:	8b 45 f0             	mov    -0x10(%ebp),%eax
   12f3a:	8b 10                	mov    (%eax),%edx
   12f3c:	8b 45 f4             	mov    -0xc(%ebp),%eax
   12f3f:	8b 00                	mov    (%eax),%eax
   12f41:	01 c2                	add    %eax,%edx
   12f43:	8b 45 f0             	mov    -0x10(%ebp),%eax
   12f46:	89 10                	mov    %edx,(%eax)
   12f48:	8b 45 f0             	mov    -0x10(%ebp),%eax
   12f4b:	89 45 f4             	mov    %eax,-0xc(%ebp)
   12f4e:	eb 2b                	jmp    12f7b <_km_page_free+0xef>
   12f50:	8b 45 f0             	mov    -0x10(%ebp),%eax
   12f53:	8b 50 04             	mov    0x4(%eax),%edx
   12f56:	8b 45 f4             	mov    -0xc(%ebp),%eax
   12f59:	89 50 04             	mov    %edx,0x4(%eax)
   12f5c:	8b 45 f0             	mov    -0x10(%ebp),%eax
   12f5f:	8b 55 f4             	mov    -0xc(%ebp),%edx
   12f62:	89 50 04             	mov    %edx,0x4(%eax)
   12f65:	eb 14                	jmp    12f7b <_km_page_free+0xef>
   12f67:	8b 15 14 d8 01 00    	mov    0x1d814,%edx
   12f6d:	8b 45 f4             	mov    -0xc(%ebp),%eax
   12f70:	89 50 04             	mov    %edx,0x4(%eax)
   12f73:	8b 45 f4             	mov    -0xc(%ebp),%eax
   12f76:	a3 14 d8 01 00       	mov    %eax,0x1d814
   12f7b:	83 7d ec 00          	cmpl   $0x0,-0x14(%ebp)
   12f7f:	74 34                	je     12fb5 <_km_page_free+0x129>
   12f81:	8b 45 f4             	mov    -0xc(%ebp),%eax
   12f84:	8b 00                	mov    (%eax),%eax
   12f86:	c1 e0 0c             	shl    $0xc,%eax
   12f89:	89 c2                	mov    %eax,%edx
   12f8b:	8b 45 f4             	mov    -0xc(%ebp),%eax
   12f8e:	01 d0                	add    %edx,%eax
   12f90:	39 45 ec             	cmp    %eax,-0x14(%ebp)
   12f93:	75 20                	jne    12fb5 <_km_page_free+0x129>
   12f95:	8b 45 ec             	mov    -0x14(%ebp),%eax
   12f98:	8b 50 04             	mov    0x4(%eax),%edx
   12f9b:	8b 45 f4             	mov    -0xc(%ebp),%eax
   12f9e:	89 50 04             	mov    %edx,0x4(%eax)
   12fa1:	8b 45 f4             	mov    -0xc(%ebp),%eax
   12fa4:	8b 10                	mov    (%eax),%edx
   12fa6:	8b 45 ec             	mov    -0x14(%ebp),%eax
   12fa9:	8b 00                	mov    (%eax),%eax
   12fab:	01 c2                	add    %eax,%edx
   12fad:	8b 45 f4             	mov    -0xc(%ebp),%eax
   12fb0:	89 10                	mov    %edx,(%eax)
   12fb2:	eb 01                	jmp    12fb5 <_km_page_free+0x129>
   12fb4:	90                   	nop
   12fb5:	c9                   	leave  
   12fb6:	c3                   	ret    

00012fb7 <_carve_slices>:
   12fb7:	55                   	push   %ebp
   12fb8:	89 e5                	mov    %esp,%ebp
   12fba:	83 ec 18             	sub    $0x18,%esp
   12fbd:	83 ec 0c             	sub    $0xc,%esp
   12fc0:	6a 01                	push   $0x1
   12fc2:	e8 cd fd ff ff       	call   12d94 <_km_page_alloc>
   12fc7:	83 c4 10             	add    $0x10,%esp
   12fca:	89 45 ec             	mov    %eax,-0x14(%ebp)
   12fcd:	83 7d ec 00          	cmpl   $0x0,-0x14(%ebp)
   12fd1:	75 3b                	jne    1300e <_carve_slices+0x57>
   12fd3:	83 ec 04             	sub    $0x4,%esp
   12fd6:	68 60 97 01 00       	push   $0x19760
   12fdb:	6a 00                	push   $0x0
   12fdd:	68 93 02 00 00       	push   $0x293
   12fe2:	68 d5 96 01 00       	push   $0x196d5
   12fe7:	68 98 97 01 00       	push   $0x19798
   12fec:	68 dc 96 01 00       	push   $0x196dc
   12ff1:	68 e0 f8 01 00       	push   $0x1f8e0
   12ff6:	e8 ba eb ff ff       	call   11bb5 <__sprint>
   12ffb:	83 c4 20             	add    $0x20,%esp
   12ffe:	83 ec 0c             	sub    $0xc,%esp
   13001:	68 e0 f8 01 00       	push   $0x1f8e0
   13006:	e8 85 f9 ff ff       	call   12990 <_kpanic>
   1300b:	83 c4 10             	add    $0x10,%esp
   1300e:	8b 45 ec             	mov    -0x14(%ebp),%eax
   13011:	89 45 f4             	mov    %eax,-0xc(%ebp)
   13014:	c7 45 f0 00 00 00 00 	movl   $0x0,-0x10(%ebp)
   1301b:	eb 19                	jmp    13036 <_carve_slices+0x7f>
   1301d:	83 ec 0c             	sub    $0xc,%esp
   13020:	ff 75 f4             	pushl  -0xc(%ebp)
   13023:	e8 db 00 00 00       	call   13103 <_km_slice_free>
   13028:	83 c4 10             	add    $0x10,%esp
   1302b:	81 45 f4 00 04 00 00 	addl   $0x400,-0xc(%ebp)
   13032:	83 45 f0 01          	addl   $0x1,-0x10(%ebp)
   13036:	83 7d f0 03          	cmpl   $0x3,-0x10(%ebp)
   1303a:	7e e1                	jle    1301d <_carve_slices+0x66>
   1303c:	90                   	nop
   1303d:	c9                   	leave  
   1303e:	c3                   	ret    

0001303f <_km_slice_alloc>:
   1303f:	55                   	push   %ebp
   13040:	89 e5                	mov    %esp,%ebp
   13042:	83 ec 18             	sub    $0x18,%esp
   13045:	a1 1c d8 01 00       	mov    0x1d81c,%eax
   1304a:	85 c0                	test   %eax,%eax
   1304c:	75 3b                	jne    13089 <_km_slice_alloc+0x4a>
   1304e:	83 ec 04             	sub    $0x4,%esp
   13051:	68 50 97 01 00       	push   $0x19750
   13056:	6a 00                	push   $0x0
   13058:	68 a8 02 00 00       	push   $0x2a8
   1305d:	68 d5 96 01 00       	push   $0x196d5
   13062:	68 a8 97 01 00       	push   $0x197a8
   13067:	68 dc 96 01 00       	push   $0x196dc
   1306c:	68 e0 f8 01 00       	push   $0x1f8e0
   13071:	e8 3f eb ff ff       	call   11bb5 <__sprint>
   13076:	83 c4 20             	add    $0x20,%esp
   13079:	83 ec 0c             	sub    $0xc,%esp
   1307c:	68 e0 f8 01 00       	push   $0x1f8e0
   13081:	e8 0a f9 ff ff       	call   12990 <_kpanic>
   13086:	83 c4 10             	add    $0x10,%esp
   13089:	a1 18 d8 01 00       	mov    0x1d818,%eax
   1308e:	85 c0                	test   %eax,%eax
   13090:	75 05                	jne    13097 <_km_slice_alloc+0x58>
   13092:	e8 20 ff ff ff       	call   12fb7 <_carve_slices>
   13097:	a1 18 d8 01 00       	mov    0x1d818,%eax
   1309c:	89 45 f4             	mov    %eax,-0xc(%ebp)
   1309f:	83 7d f4 00          	cmpl   $0x0,-0xc(%ebp)
   130a3:	75 3b                	jne    130e0 <_km_slice_alloc+0xa1>
   130a5:	83 ec 04             	sub    $0x4,%esp
   130a8:	68 65 97 01 00       	push   $0x19765
   130ad:	6a 00                	push   $0x0
   130af:	68 b1 02 00 00       	push   $0x2b1
   130b4:	68 d5 96 01 00       	push   $0x196d5
   130b9:	68 a8 97 01 00       	push   $0x197a8
   130be:	68 dc 96 01 00       	push   $0x196dc
   130c3:	68 e0 f8 01 00       	push   $0x1f8e0
   130c8:	e8 e8 ea ff ff       	call   11bb5 <__sprint>
   130cd:	83 c4 20             	add    $0x20,%esp
   130d0:	83 ec 0c             	sub    $0xc,%esp
   130d3:	68 e0 f8 01 00       	push   $0x1f8e0
   130d8:	e8 b3 f8 ff ff       	call   12990 <_kpanic>
   130dd:	83 c4 10             	add    $0x10,%esp
   130e0:	8b 45 f4             	mov    -0xc(%ebp),%eax
   130e3:	8b 40 04             	mov    0x4(%eax),%eax
   130e6:	a3 18 d8 01 00       	mov    %eax,0x1d818
   130eb:	83 ec 08             	sub    $0x8,%esp
   130ee:	68 00 04 00 00       	push   $0x400
   130f3:	ff 75 f4             	pushl  -0xc(%ebp)
   130f6:	e8 f8 e8 ff ff       	call   119f3 <__memclr>
   130fb:	83 c4 10             	add    $0x10,%esp
   130fe:	8b 45 f4             	mov    -0xc(%ebp),%eax
   13101:	c9                   	leave  
   13102:	c3                   	ret    

00013103 <_km_slice_free>:
   13103:	55                   	push   %ebp
   13104:	89 e5                	mov    %esp,%ebp
   13106:	83 ec 18             	sub    $0x18,%esp
   13109:	8b 45 08             	mov    0x8(%ebp),%eax
   1310c:	89 45 f4             	mov    %eax,-0xc(%ebp)
   1310f:	a1 1c d8 01 00       	mov    0x1d81c,%eax
   13114:	85 c0                	test   %eax,%eax
   13116:	75 3b                	jne    13153 <_km_slice_free+0x50>
   13118:	83 ec 04             	sub    $0x4,%esp
   1311b:	68 50 97 01 00       	push   $0x19750
   13120:	6a 00                	push   $0x0
   13122:	68 c9 02 00 00       	push   $0x2c9
   13127:	68 d5 96 01 00       	push   $0x196d5
   1312c:	68 b8 97 01 00       	push   $0x197b8
   13131:	68 dc 96 01 00       	push   $0x196dc
   13136:	68 e0 f8 01 00       	push   $0x1f8e0
   1313b:	e8 75 ea ff ff       	call   11bb5 <__sprint>
   13140:	83 c4 20             	add    $0x20,%esp
   13143:	83 ec 0c             	sub    $0xc,%esp
   13146:	68 e0 f8 01 00       	push   $0x1f8e0
   1314b:	e8 40 f8 ff ff       	call   12990 <_kpanic>
   13150:	83 c4 10             	add    $0x10,%esp
   13153:	8b 45 f4             	mov    -0xc(%ebp),%eax
   13156:	c7 00 00 04 00 00    	movl   $0x400,(%eax)
   1315c:	8b 15 18 d8 01 00    	mov    0x1d818,%edx
   13162:	8b 45 f4             	mov    -0xc(%ebp),%eax
   13165:	89 50 04             	mov    %edx,0x4(%eax)
   13168:	8b 45 f4             	mov    -0xc(%ebp),%eax
   1316b:	a3 18 d8 01 00       	mov    %eax,0x1d818
   13170:	90                   	nop
   13171:	c9                   	leave  
   13172:	c3                   	ret    

00013173 <_pcb_init>:
   13173:	55                   	push   %ebp
   13174:	89 e5                	mov    %esp,%ebp
   13176:	83 ec 08             	sub    $0x8,%esp
   13179:	83 ec 0c             	sub    $0xc,%esp
   1317c:	68 c8 97 01 00       	push   $0x197c8
   13181:	e8 53 de ff ff       	call   10fd9 <__cio_puts>
   13186:	83 c4 10             	add    $0x10,%esp
   13189:	83 ec 0c             	sub    $0xc,%esp
   1318c:	68 20 d8 01 00       	push   $0x1d820
   13191:	e8 f2 2b 00 00       	call   15d88 <_vec_clear>
   13196:	83 c4 10             	add    $0x10,%esp
   13199:	83 ec 08             	sub    $0x8,%esp
   1319c:	68 63 32 01 00       	push   $0x13263
   131a1:	6a 20                	push   $0x20
   131a3:	e8 8f f7 ff ff       	call   12937 <_grow_list>
   131a8:	83 c4 10             	add    $0x10,%esp
   131ab:	84 c0                	test   %al,%al
   131ad:	75 38                	jne    131e7 <_pcb_init+0x74>
   131af:	83 ec 04             	sub    $0x4,%esp
   131b2:	68 d4 97 01 00       	push   $0x197d4
   131b7:	6a 00                	push   $0x0
   131b9:	6a 4c                	push   $0x4c
   131bb:	68 f6 97 01 00       	push   $0x197f6
   131c0:	68 e4 99 01 00       	push   $0x199e4
   131c5:	68 02 98 01 00       	push   $0x19802
   131ca:	68 e0 f8 01 00       	push   $0x1f8e0
   131cf:	e8 e1 e9 ff ff       	call   11bb5 <__sprint>
   131d4:	83 c4 20             	add    $0x20,%esp
   131d7:	83 ec 0c             	sub    $0xc,%esp
   131da:	68 e0 f8 01 00       	push   $0x1f8e0
   131df:	e8 ac f7 ff ff       	call   12990 <_kpanic>
   131e4:	83 c4 10             	add    $0x10,%esp
   131e7:	c7 05 00 fc 01 00 00 	movl   $0x0,0x1fc00
   131ee:	00 00 00 
   131f1:	83 ec 08             	sub    $0x8,%esp
   131f4:	6a 64                	push   $0x64
   131f6:	68 20 fc 01 00       	push   $0x1fc20
   131fb:	e8 f3 e7 ff ff       	call   119f3 <__memclr>
   13200:	83 c4 10             	add    $0x10,%esp
   13203:	66 c7 05 84 fc 01 00 	movw   $0x2,0x1fc84
   1320a:	02 00 
   1320c:	90                   	nop
   1320d:	c9                   	leave  
   1320e:	c3                   	ret    

0001320f <_pcb_alloc>:
   1320f:	55                   	push   %ebp
   13210:	89 e5                	mov    %esp,%ebp
   13212:	83 ec 18             	sub    $0x18,%esp
   13215:	a1 20 d8 01 00       	mov    0x1d820,%eax
   1321a:	85 c0                	test   %eax,%eax
   1321c:	75 1d                	jne    1323b <_pcb_alloc+0x2c>
   1321e:	83 ec 08             	sub    $0x8,%esp
   13221:	68 63 32 01 00       	push   $0x13263
   13226:	6a 20                	push   $0x20
   13228:	e8 0a f7 ff ff       	call   12937 <_grow_list>
   1322d:	83 c4 10             	add    $0x10,%esp
   13230:	84 c0                	test   %al,%al
   13232:	75 07                	jne    1323b <_pcb_alloc+0x2c>
   13234:	b8 00 00 00 00       	mov    $0x0,%eax
   13239:	eb 26                	jmp    13261 <_pcb_alloc+0x52>
   1323b:	83 ec 0c             	sub    $0xc,%esp
   1323e:	68 20 d8 01 00       	push   $0x1d820
   13243:	e8 b2 2c 00 00       	call   15efa <_vec_remove>
   13248:	83 c4 10             	add    $0x10,%esp
   1324b:	89 45 f4             	mov    %eax,-0xc(%ebp)
   1324e:	83 ec 08             	sub    $0x8,%esp
   13251:	6a 20                	push   $0x20
   13253:	ff 75 f4             	pushl  -0xc(%ebp)
   13256:	e8 98 e7 ff ff       	call   119f3 <__memclr>
   1325b:	83 c4 10             	add    $0x10,%esp
   1325e:	8b 45 f4             	mov    -0xc(%ebp),%eax
   13261:	c9                   	leave  
   13262:	c3                   	ret    

00013263 <_pcb_free>:
   13263:	55                   	push   %ebp
   13264:	89 e5                	mov    %esp,%ebp
   13266:	83 ec 18             	sub    $0x18,%esp
   13269:	83 7d 08 00          	cmpl   $0x0,0x8(%ebp)
   1326d:	74 3b                	je     132aa <_pcb_free+0x47>
   1326f:	8b 45 08             	mov    0x8(%ebp),%eax
   13272:	89 45 f4             	mov    %eax,-0xc(%ebp)
   13275:	8b 45 f4             	mov    -0xc(%ebp),%eax
   13278:	c6 40 18 00          	movb   $0x0,0x18(%eax)
   1327c:	8b 45 f4             	mov    -0xc(%ebp),%eax
   1327f:	66 c7 40 16 00 00    	movw   $0x0,0x16(%eax)
   13285:	8b 45 f4             	mov    -0xc(%ebp),%eax
   13288:	0f b7 50 16          	movzwl 0x16(%eax),%edx
   1328c:	8b 45 f4             	mov    -0xc(%ebp),%eax
   1328f:	66 89 50 14          	mov    %dx,0x14(%eax)
   13293:	83 ec 04             	sub    $0x4,%esp
   13296:	ff 75 f4             	pushl  -0xc(%ebp)
   13299:	6a 00                	push   $0x0
   1329b:	68 20 d8 01 00       	push   $0x1d820
   132a0:	e8 54 2b 00 00       	call   15df9 <_vec_add>
   132a5:	83 c4 10             	add    $0x10,%esp
   132a8:	eb 01                	jmp    132ab <_pcb_free+0x48>
   132aa:	90                   	nop
   132ab:	c9                   	leave  
   132ac:	c3                   	ret    

000132ad <_pcb_find>:
   132ad:	55                   	push   %ebp
   132ae:	89 e5                	mov    %esp,%ebp
   132b0:	83 ec 14             	sub    $0x14,%esp
   132b3:	8b 45 08             	mov    0x8(%ebp),%eax
   132b6:	66 89 45 ec          	mov    %ax,-0x14(%ebp)
   132ba:	c7 45 fc 00 00 00 00 	movl   $0x0,-0x4(%ebp)
   132c1:	eb 32                	jmp    132f5 <_pcb_find+0x48>
   132c3:	8b 45 fc             	mov    -0x4(%ebp),%eax
   132c6:	8b 04 85 20 fc 01 00 	mov    0x1fc20(,%eax,4),%eax
   132cd:	85 c0                	test   %eax,%eax
   132cf:	74 20                	je     132f1 <_pcb_find+0x44>
   132d1:	8b 45 fc             	mov    -0x4(%ebp),%eax
   132d4:	8b 04 85 20 fc 01 00 	mov    0x1fc20(,%eax,4),%eax
   132db:	0f b7 40 14          	movzwl 0x14(%eax),%eax
   132df:	66 39 45 ec          	cmp    %ax,-0x14(%ebp)
   132e3:	75 0c                	jne    132f1 <_pcb_find+0x44>
   132e5:	8b 45 fc             	mov    -0x4(%ebp),%eax
   132e8:	8b 04 85 20 fc 01 00 	mov    0x1fc20(,%eax,4),%eax
   132ef:	eb 0f                	jmp    13300 <_pcb_find+0x53>
   132f1:	83 45 fc 01          	addl   $0x1,-0x4(%ebp)
   132f5:	83 7d fc 18          	cmpl   $0x18,-0x4(%ebp)
   132f9:	7e c8                	jle    132c3 <_pcb_find+0x16>
   132fb:	b8 00 00 00 00       	mov    $0x0,%eax
   13300:	c9                   	leave  
   13301:	c3                   	ret    

00013302 <_pcb_cleanup>:
   13302:	55                   	push   %ebp
   13303:	89 e5                	mov    %esp,%ebp
   13305:	83 ec 18             	sub    $0x18,%esp
   13308:	83 7d 08 00          	cmpl   $0x0,0x8(%ebp)
   1330c:	0f 84 ca 00 00 00    	je     133dc <_pcb_cleanup+0xda>
   13312:	c7 45 f4 00 00 00 00 	movl   $0x0,-0xc(%ebp)
   13319:	eb 30                	jmp    1334b <_pcb_cleanup+0x49>
   1331b:	8b 45 f4             	mov    -0xc(%ebp),%eax
   1331e:	8b 04 85 20 fc 01 00 	mov    0x1fc20(,%eax,4),%eax
   13325:	39 45 08             	cmp    %eax,0x8(%ebp)
   13328:	75 1d                	jne    13347 <_pcb_cleanup+0x45>
   1332a:	8b 45 f4             	mov    -0xc(%ebp),%eax
   1332d:	c7 04 85 20 fc 01 00 	movl   $0x0,0x1fc20(,%eax,4)
   13334:	00 00 00 00 
   13338:	a1 00 fc 01 00       	mov    0x1fc00,%eax
   1333d:	83 e8 01             	sub    $0x1,%eax
   13340:	a3 00 fc 01 00       	mov    %eax,0x1fc00
   13345:	eb 0a                	jmp    13351 <_pcb_cleanup+0x4f>
   13347:	83 45 f4 01          	addl   $0x1,-0xc(%ebp)
   1334b:	83 7d f4 18          	cmpl   $0x18,-0xc(%ebp)
   1334f:	7e ca                	jle    1331b <_pcb_cleanup+0x19>
   13351:	83 7d f4 18          	cmpl   $0x18,-0xc(%ebp)
   13355:	7e 3b                	jle    13392 <_pcb_cleanup+0x90>
   13357:	83 ec 04             	sub    $0x4,%esp
   1335a:	68 1f 98 01 00       	push   $0x1981f
   1335f:	6a 02                	push   $0x2
   13361:	68 de 00 00 00       	push   $0xde
   13366:	68 f6 97 01 00       	push   $0x197f6
   1336b:	68 f0 99 01 00       	push   $0x199f0
   13370:	68 02 98 01 00       	push   $0x19802
   13375:	68 e0 f8 01 00       	push   $0x1f8e0
   1337a:	e8 36 e8 ff ff       	call   11bb5 <__sprint>
   1337f:	83 c4 20             	add    $0x20,%esp
   13382:	83 ec 0c             	sub    $0xc,%esp
   13385:	68 e0 f8 01 00       	push   $0x1f8e0
   1338a:	e8 01 f6 ff ff       	call   12990 <_kpanic>
   1338f:	83 c4 10             	add    $0x10,%esp
   13392:	8b 45 08             	mov    0x8(%ebp),%eax
   13395:	8b 40 04             	mov    0x4(%eax),%eax
   13398:	85 c0                	test   %eax,%eax
   1339a:	74 12                	je     133ae <_pcb_cleanup+0xac>
   1339c:	8b 45 08             	mov    0x8(%ebp),%eax
   1339f:	8b 40 04             	mov    0x4(%eax),%eax
   133a2:	83 ec 0c             	sub    $0xc,%esp
   133a5:	50                   	push   %eax
   133a6:	e8 db 1b 00 00       	call   14f86 <_stk_free>
   133ab:	83 c4 10             	add    $0x10,%esp
   133ae:	8b 45 08             	mov    0x8(%ebp),%eax
   133b1:	c6 40 18 00          	movb   $0x0,0x18(%eax)
   133b5:	8b 45 08             	mov    0x8(%ebp),%eax
   133b8:	66 c7 40 16 00 00    	movw   $0x0,0x16(%eax)
   133be:	8b 45 08             	mov    0x8(%ebp),%eax
   133c1:	0f b7 50 16          	movzwl 0x16(%eax),%edx
   133c5:	8b 45 08             	mov    0x8(%ebp),%eax
   133c8:	66 89 50 14          	mov    %dx,0x14(%eax)
   133cc:	83 ec 0c             	sub    $0xc,%esp
   133cf:	ff 75 08             	pushl  0x8(%ebp)
   133d2:	e8 8c fe ff ff       	call   13263 <_pcb_free>
   133d7:	83 c4 10             	add    $0x10,%esp
   133da:	eb 01                	jmp    133dd <_pcb_cleanup+0xdb>
   133dc:	90                   	nop
   133dd:	c9                   	leave  
   133de:	c3                   	ret    

000133df <_performExit>:
   133df:	55                   	push   %ebp
   133e0:	89 e5                	mov    %esp,%ebp
   133e2:	53                   	push   %ebx
   133e3:	83 ec 24             	sub    $0x24,%esp
   133e6:	8b 45 08             	mov    0x8(%ebp),%eax
   133e9:	c6 40 18 07          	movb   $0x7,0x18(%eax)
   133ed:	c7 45 f4 00 00 00 00 	movl   $0x0,-0xc(%ebp)
   133f4:	c7 45 f0 00 00 00 00 	movl   $0x0,-0x10(%ebp)
   133fb:	c7 45 ec 00 00 00 00 	movl   $0x0,-0x14(%ebp)
   13402:	eb 55                	jmp    13459 <_performExit+0x7a>
   13404:	8b 45 ec             	mov    -0x14(%ebp),%eax
   13407:	8b 1c 85 20 fc 01 00 	mov    0x1fc20(,%eax,4),%ebx
   1340e:	85 db                	test   %ebx,%ebx
   13410:	74 42                	je     13454 <_performExit+0x75>
   13412:	0f b7 53 14          	movzwl 0x14(%ebx),%edx
   13416:	8b 45 08             	mov    0x8(%ebp),%eax
   13419:	0f b7 40 16          	movzwl 0x16(%eax),%eax
   1341d:	66 39 c2             	cmp    %ax,%dx
   13420:	75 05                	jne    13427 <_performExit+0x48>
   13422:	89 5d f4             	mov    %ebx,-0xc(%ebp)
   13425:	eb 2e                	jmp    13455 <_performExit+0x76>
   13427:	0f b7 53 16          	movzwl 0x16(%ebx),%edx
   1342b:	8b 45 08             	mov    0x8(%ebp),%eax
   1342e:	0f b7 40 14          	movzwl 0x14(%eax),%eax
   13432:	66 39 c2             	cmp    %ax,%dx
   13435:	75 1e                	jne    13455 <_performExit+0x76>
   13437:	66 c7 43 16 01 00    	movw   $0x1,0x16(%ebx)
   1343d:	0f b6 43 18          	movzbl 0x18(%ebx),%eax
   13441:	3c 07                	cmp    $0x7,%al
   13443:	75 10                	jne    13455 <_performExit+0x76>
   13445:	8b 45 ec             	mov    -0x14(%ebp),%eax
   13448:	8b 04 85 20 fc 01 00 	mov    0x1fc20(,%eax,4),%eax
   1344f:	89 45 f0             	mov    %eax,-0x10(%ebp)
   13452:	eb 01                	jmp    13455 <_performExit+0x76>
   13454:	90                   	nop
   13455:	83 45 ec 01          	addl   $0x1,-0x14(%ebp)
   13459:	83 7d ec 18          	cmpl   $0x18,-0x14(%ebp)
   1345d:	7e a5                	jle    13404 <_performExit+0x25>
   1345f:	83 7d f4 00          	cmpl   $0x0,-0xc(%ebp)
   13463:	75 3b                	jne    134a0 <_performExit+0xc1>
   13465:	83 ec 04             	sub    $0x4,%esp
   13468:	68 26 98 01 00       	push   $0x19826
   1346d:	6a 00                	push   $0x0
   1346f:	68 38 01 00 00       	push   $0x138
   13474:	68 f6 97 01 00       	push   $0x197f6
   13479:	68 00 9a 01 00       	push   $0x19a00
   1347e:	68 02 98 01 00       	push   $0x19802
   13483:	68 e0 f8 01 00       	push   $0x1f8e0
   13488:	e8 28 e7 ff ff       	call   11bb5 <__sprint>
   1348d:	83 c4 20             	add    $0x20,%esp
   13490:	83 ec 0c             	sub    $0xc,%esp
   13493:	68 e0 f8 01 00       	push   $0x1f8e0
   13498:	e8 f3 f4 ff ff       	call   12990 <_kpanic>
   1349d:	83 c4 10             	add    $0x10,%esp
   134a0:	83 7d f0 00          	cmpl   $0x0,-0x10(%ebp)
   134a4:	74 63                	je     13509 <_performExit+0x12a>
   134a6:	a1 04 fc 01 00       	mov    0x1fc04,%eax
   134ab:	0f b6 40 18          	movzbl 0x18(%eax),%eax
   134af:	3c 05                	cmp    $0x5,%al
   134b1:	75 56                	jne    13509 <_performExit+0x12a>
   134b3:	8b 45 f0             	mov    -0x10(%ebp),%eax
   134b6:	0f b7 50 14          	movzwl 0x14(%eax),%edx
   134ba:	a1 04 fc 01 00       	mov    0x1fc04,%eax
   134bf:	8b 00                	mov    (%eax),%eax
   134c1:	0f b7 d2             	movzwl %dx,%edx
   134c4:	89 50 30             	mov    %edx,0x30(%eax)
   134c7:	a1 04 fc 01 00       	mov    0x1fc04,%eax
   134cc:	8b 00                	mov    (%eax),%eax
   134ce:	83 c0 48             	add    $0x48,%eax
   134d1:	83 c0 04             	add    $0x4,%eax
   134d4:	8b 00                	mov    (%eax),%eax
   134d6:	89 45 e8             	mov    %eax,-0x18(%ebp)
   134d9:	83 7d e8 00          	cmpl   $0x0,-0x18(%ebp)
   134dd:	74 0b                	je     134ea <_performExit+0x10b>
   134df:	8b 45 f0             	mov    -0x10(%ebp),%eax
   134e2:	8b 50 08             	mov    0x8(%eax),%edx
   134e5:	8b 45 e8             	mov    -0x18(%ebp),%eax
   134e8:	89 10                	mov    %edx,(%eax)
   134ea:	a1 04 fc 01 00       	mov    0x1fc04,%eax
   134ef:	83 ec 0c             	sub    $0xc,%esp
   134f2:	50                   	push   %eax
   134f3:	e8 52 0e 00 00       	call   1434a <_schedule>
   134f8:	83 c4 10             	add    $0x10,%esp
   134fb:	83 ec 0c             	sub    $0xc,%esp
   134fe:	ff 75 f0             	pushl  -0x10(%ebp)
   13501:	e8 fc fd ff ff       	call   13302 <_pcb_cleanup>
   13506:	83 c4 10             	add    $0x10,%esp
   13509:	8b 45 f4             	mov    -0xc(%ebp),%eax
   1350c:	0f b6 40 18          	movzbl 0x18(%eax),%eax
   13510:	3c 05                	cmp    $0x5,%al
   13512:	75 51                	jne    13565 <_performExit+0x186>
   13514:	8b 45 08             	mov    0x8(%ebp),%eax
   13517:	0f b7 50 14          	movzwl 0x14(%eax),%edx
   1351b:	8b 45 f4             	mov    -0xc(%ebp),%eax
   1351e:	8b 00                	mov    (%eax),%eax
   13520:	0f b7 d2             	movzwl %dx,%edx
   13523:	89 50 30             	mov    %edx,0x30(%eax)
   13526:	8b 45 f4             	mov    -0xc(%ebp),%eax
   13529:	8b 00                	mov    (%eax),%eax
   1352b:	83 c0 48             	add    $0x48,%eax
   1352e:	83 c0 04             	add    $0x4,%eax
   13531:	8b 00                	mov    (%eax),%eax
   13533:	89 45 e4             	mov    %eax,-0x1c(%ebp)
   13536:	83 7d e4 00          	cmpl   $0x0,-0x1c(%ebp)
   1353a:	74 0b                	je     13547 <_performExit+0x168>
   1353c:	8b 45 08             	mov    0x8(%ebp),%eax
   1353f:	8b 50 08             	mov    0x8(%eax),%edx
   13542:	8b 45 e4             	mov    -0x1c(%ebp),%eax
   13545:	89 10                	mov    %edx,(%eax)
   13547:	83 ec 0c             	sub    $0xc,%esp
   1354a:	ff 75 f4             	pushl  -0xc(%ebp)
   1354d:	e8 f8 0d 00 00       	call   1434a <_schedule>
   13552:	83 c4 10             	add    $0x10,%esp
   13555:	83 ec 0c             	sub    $0xc,%esp
   13558:	ff 75 08             	pushl  0x8(%ebp)
   1355b:	e8 a2 fd ff ff       	call   13302 <_pcb_cleanup>
   13560:	83 c4 10             	add    $0x10,%esp
   13563:	eb 07                	jmp    1356c <_performExit+0x18d>
   13565:	8b 45 08             	mov    0x8(%ebp),%eax
   13568:	c6 40 18 07          	movb   $0x7,0x18(%eax)
   1356c:	90                   	nop
   1356d:	8b 5d fc             	mov    -0x4(%ebp),%ebx
   13570:	c9                   	leave  
   13571:	c3                   	ret    

00013572 <_pcount>:
   13572:	55                   	push   %ebp
   13573:	89 e5                	mov    %esp,%ebp
   13575:	56                   	push   %esi
   13576:	53                   	push   %ebx
   13577:	83 ec 10             	sub    $0x10,%esp
   1357a:	8b 75 08             	mov    0x8(%ebp),%esi
   1357d:	83 ec 08             	sub    $0x8,%esp
   13580:	6a 24                	push   $0x24
   13582:	56                   	push   %esi
   13583:	e8 6b e4 ff ff       	call   119f3 <__memclr>
   13588:	83 c4 10             	add    $0x10,%esp
   1358b:	c7 45 f4 00 00 00 00 	movl   $0x0,-0xc(%ebp)
   13592:	bb 00 00 00 00       	mov    $0x0,%ebx
   13597:	eb 41                	jmp    135da <_pcount+0x68>
   13599:	8b 04 9d 20 fc 01 00 	mov    0x1fc20(,%ebx,4),%eax
   135a0:	85 c0                	test   %eax,%eax
   135a2:	74 2f                	je     135d3 <_pcount+0x61>
   135a4:	8b 04 9d 20 fc 01 00 	mov    0x1fc20(,%ebx,4),%eax
   135ab:	0f b6 40 18          	movzbl 0x18(%eax),%eax
   135af:	0f b6 c0             	movzbl %al,%eax
   135b2:	c1 e0 02             	shl    $0x2,%eax
   135b5:	01 f0                	add    %esi,%eax
   135b7:	8b 10                	mov    (%eax),%edx
   135b9:	8b 04 9d 20 fc 01 00 	mov    0x1fc20(,%ebx,4),%eax
   135c0:	0f b6 40 18          	movzbl 0x18(%eax),%eax
   135c4:	0f b6 c0             	movzbl %al,%eax
   135c7:	c1 e0 02             	shl    $0x2,%eax
   135ca:	01 f0                	add    %esi,%eax
   135cc:	83 c2 01             	add    $0x1,%edx
   135cf:	89 10                	mov    %edx,(%eax)
   135d1:	eb 04                	jmp    135d7 <_pcount+0x65>
   135d3:	83 45 f4 01          	addl   $0x1,-0xc(%ebp)
   135d7:	83 c3 01             	add    $0x1,%ebx
   135da:	83 fb 18             	cmp    $0x18,%ebx
   135dd:	7e ba                	jle    13599 <_pcount+0x27>
   135df:	8b 45 f4             	mov    -0xc(%ebp),%eax
   135e2:	8d 65 f8             	lea    -0x8(%ebp),%esp
   135e5:	5b                   	pop    %ebx
   135e6:	5e                   	pop    %esi
   135e7:	5d                   	pop    %ebp
   135e8:	c3                   	ret    

000135e9 <_pcb_dump>:
   135e9:	55                   	push   %ebp
   135ea:	89 e5                	mov    %esp,%ebp
   135ec:	56                   	push   %esi
   135ed:	53                   	push   %ebx
   135ee:	83 ec 10             	sub    $0x10,%esp
   135f1:	8b 5d 0c             	mov    0xc(%ebp),%ebx
   135f4:	83 7d 08 00          	cmpl   $0x0,0x8(%ebp)
   135f8:	74 0e                	je     13608 <_pcb_dump+0x1f>
   135fa:	83 ec 0c             	sub    $0xc,%esp
   135fd:	ff 75 08             	pushl  0x8(%ebp)
   13600:	e8 d4 d9 ff ff       	call   10fd9 <__cio_puts>
   13605:	83 c4 10             	add    $0x10,%esp
   13608:	89 d8                	mov    %ebx,%eax
   1360a:	83 ec 08             	sub    $0x8,%esp
   1360d:	50                   	push   %eax
   1360e:	68 32 98 01 00       	push   $0x19832
   13613:	e8 3b e0 ff ff       	call   11653 <__cio_printf>
   13618:	83 c4 10             	add    $0x10,%esp
   1361b:	85 db                	test   %ebx,%ebx
   1361d:	75 15                	jne    13634 <_pcb_dump+0x4b>
   1361f:	83 ec 0c             	sub    $0xc,%esp
   13622:	68 3c 98 01 00       	push   $0x1983c
   13627:	e8 ad d9 ff ff       	call   10fd9 <__cio_puts>
   1362c:	83 c4 10             	add    $0x10,%esp
   1362f:	e9 b7 00 00 00       	jmp    136eb <_pcb_dump+0x102>
   13634:	0f b6 43 19          	movzbl 0x19(%ebx),%eax
   13638:	0f b6 f0             	movzbl %al,%esi
   1363b:	0f b6 43 18          	movzbl 0x18(%ebx),%eax
   1363f:	0f b6 c8             	movzbl %al,%ecx
   13642:	0f b7 43 16          	movzwl 0x16(%ebx),%eax
   13646:	0f b7 d0             	movzwl %ax,%edx
   13649:	0f b7 43 14          	movzwl 0x14(%ebx),%eax
   1364d:	0f b7 c0             	movzwl %ax,%eax
   13650:	83 ec 0c             	sub    $0xc,%esp
   13653:	56                   	push   %esi
   13654:	51                   	push   %ecx
   13655:	52                   	push   %edx
   13656:	50                   	push   %eax
   13657:	68 46 98 01 00       	push   $0x19846
   1365c:	e8 f2 df ff ff       	call   11653 <__cio_printf>
   13661:	83 c4 20             	add    $0x20,%esp
   13664:	8b 4b 0c             	mov    0xc(%ebx),%ecx
   13667:	8b 53 08             	mov    0x8(%ebx),%edx
   1366a:	0f b6 43 1a          	movzbl 0x1a(%ebx),%eax
   1366e:	0f b6 c0             	movzbl %al,%eax
   13671:	51                   	push   %ecx
   13672:	52                   	push   %edx
   13673:	50                   	push   %eax
   13674:	68 63 98 01 00       	push   $0x19863
   13679:	e8 d5 df ff ff       	call   11653 <__cio_printf>
   1367e:	83 c4 10             	add    $0x10,%esp
   13681:	8b 43 04             	mov    0x4(%ebx),%eax
   13684:	89 c2                	mov    %eax,%edx
   13686:	8b 03                	mov    (%ebx),%eax
   13688:	83 ec 04             	sub    $0x4,%esp
   1368b:	52                   	push   %edx
   1368c:	50                   	push   %eax
   1368d:	68 7f 98 01 00       	push   $0x1987f
   13692:	e8 bc df ff ff       	call   11653 <__cio_printf>
   13697:	83 c4 10             	add    $0x10,%esp
   1369a:	83 ec 0c             	sub    $0xc,%esp
   1369d:	68 99 98 01 00       	push   $0x19899
   136a2:	e8 32 d9 ff ff       	call   10fd9 <__cio_puts>
   136a7:	83 c4 10             	add    $0x10,%esp
   136aa:	c7 45 f4 00 00 00 00 	movl   $0x0,-0xc(%ebp)
   136b1:	eb 23                	jmp    136d6 <_pcb_dump+0xed>
   136b3:	8b 45 f4             	mov    -0xc(%ebp),%eax
   136b6:	01 d8                	add    %ebx,%eax
   136b8:	83 c0 1b             	add    $0x1b,%eax
   136bb:	0f b6 00             	movzbl (%eax),%eax
   136be:	0f b6 c0             	movzbl %al,%eax
   136c1:	83 ec 08             	sub    $0x8,%esp
   136c4:	50                   	push   %eax
   136c5:	68 a1 98 01 00       	push   $0x198a1
   136ca:	e8 84 df ff ff       	call   11653 <__cio_printf>
   136cf:	83 c4 10             	add    $0x10,%esp
   136d2:	83 45 f4 01          	addl   $0x1,-0xc(%ebp)
   136d6:	8b 45 f4             	mov    -0xc(%ebp),%eax
   136d9:	83 f8 04             	cmp    $0x4,%eax
   136dc:	76 d5                	jbe    136b3 <_pcb_dump+0xca>
   136de:	83 ec 0c             	sub    $0xc,%esp
   136e1:	6a 0a                	push   $0xa
   136e3:	e8 b1 d7 ff ff       	call   10e99 <__cio_putchar>
   136e8:	83 c4 10             	add    $0x10,%esp
   136eb:	8d 65 f8             	lea    -0x8(%ebp),%esp
   136ee:	5b                   	pop    %ebx
   136ef:	5e                   	pop    %esi
   136f0:	5d                   	pop    %ebp
   136f1:	c3                   	ret    

000136f2 <_ctx_dump>:
   136f2:	55                   	push   %ebp
   136f3:	89 e5                	mov    %esp,%ebp
   136f5:	57                   	push   %edi
   136f6:	56                   	push   %esi
   136f7:	53                   	push   %ebx
   136f8:	83 ec 1c             	sub    $0x1c,%esp
   136fb:	8b 5d 0c             	mov    0xc(%ebp),%ebx
   136fe:	83 7d 08 00          	cmpl   $0x0,0x8(%ebp)
   13702:	74 0e                	je     13712 <_ctx_dump+0x20>
   13704:	83 ec 0c             	sub    $0xc,%esp
   13707:	ff 75 08             	pushl  0x8(%ebp)
   1370a:	e8 ca d8 ff ff       	call   10fd9 <__cio_puts>
   1370f:	83 c4 10             	add    $0x10,%esp
   13712:	89 d8                	mov    %ebx,%eax
   13714:	83 ec 08             	sub    $0x8,%esp
   13717:	50                   	push   %eax
   13718:	68 32 98 01 00       	push   $0x19832
   1371d:	e8 31 df ff ff       	call   11653 <__cio_printf>
   13722:	83 c4 10             	add    $0x10,%esp
   13725:	85 db                	test   %ebx,%ebx
   13727:	75 15                	jne    1373e <_ctx_dump+0x4c>
   13729:	83 ec 0c             	sub    $0xc,%esp
   1372c:	68 3c 98 01 00       	push   $0x1983c
   13731:	e8 a3 d8 ff ff       	call   10fd9 <__cio_puts>
   13736:	83 c4 10             	add    $0x10,%esp
   13739:	e9 9e 00 00 00       	jmp    137dc <_ctx_dump+0xea>
   1373e:	8b 43 40             	mov    0x40(%ebx),%eax
   13741:	0f b6 c0             	movzbl %al,%eax
   13744:	89 45 e4             	mov    %eax,-0x1c(%ebp)
   13747:	8b 43 10             	mov    0x10(%ebx),%eax
   1374a:	0f b6 f8             	movzbl %al,%edi
   1374d:	8b 43 0c             	mov    0xc(%ebx),%eax
   13750:	0f b6 f0             	movzbl %al,%esi
   13753:	8b 43 08             	mov    0x8(%ebx),%eax
   13756:	0f b6 c8             	movzbl %al,%ecx
   13759:	8b 43 04             	mov    0x4(%ebx),%eax
   1375c:	0f b6 d0             	movzbl %al,%edx
   1375f:	8b 03                	mov    (%ebx),%eax
   13761:	0f b6 c0             	movzbl %al,%eax
   13764:	83 ec 04             	sub    $0x4,%esp
   13767:	ff 75 e4             	pushl  -0x1c(%ebp)
   1376a:	57                   	push   %edi
   1376b:	56                   	push   %esi
   1376c:	51                   	push   %ecx
   1376d:	52                   	push   %edx
   1376e:	50                   	push   %eax
   1376f:	68 a8 98 01 00       	push   $0x198a8
   13774:	e8 da de ff ff       	call   11653 <__cio_printf>
   13779:	83 c4 20             	add    $0x20,%esp
   1377c:	8b 73 20             	mov    0x20(%ebx),%esi
   1377f:	8b 4b 1c             	mov    0x1c(%ebx),%ecx
   13782:	8b 53 18             	mov    0x18(%ebx),%edx
   13785:	8b 43 14             	mov    0x14(%ebx),%eax
   13788:	83 ec 0c             	sub    $0xc,%esp
   1378b:	56                   	push   %esi
   1378c:	51                   	push   %ecx
   1378d:	52                   	push   %edx
   1378e:	50                   	push   %eax
   1378f:	68 dc 98 01 00       	push   $0x198dc
   13794:	e8 ba de ff ff       	call   11653 <__cio_printf>
   13799:	83 c4 20             	add    $0x20,%esp
   1379c:	8b 73 30             	mov    0x30(%ebx),%esi
   1379f:	8b 4b 2c             	mov    0x2c(%ebx),%ecx
   137a2:	8b 53 28             	mov    0x28(%ebx),%edx
   137a5:	8b 43 24             	mov    0x24(%ebx),%eax
   137a8:	83 ec 0c             	sub    $0xc,%esp
   137ab:	56                   	push   %esi
   137ac:	51                   	push   %ecx
   137ad:	52                   	push   %edx
   137ae:	50                   	push   %eax
   137af:	68 04 99 01 00       	push   $0x19904
   137b4:	e8 9a de ff ff       	call   11653 <__cio_printf>
   137b9:	83 c4 20             	add    $0x20,%esp
   137bc:	8b 73 44             	mov    0x44(%ebx),%esi
   137bf:	8b 4b 3c             	mov    0x3c(%ebx),%ecx
   137c2:	8b 53 38             	mov    0x38(%ebx),%edx
   137c5:	8b 43 34             	mov    0x34(%ebx),%eax
   137c8:	83 ec 0c             	sub    $0xc,%esp
   137cb:	56                   	push   %esi
   137cc:	51                   	push   %ecx
   137cd:	52                   	push   %edx
   137ce:	50                   	push   %eax
   137cf:	68 2c 99 01 00       	push   $0x1992c
   137d4:	e8 7a de ff ff       	call   11653 <__cio_printf>
   137d9:	83 c4 20             	add    $0x20,%esp
   137dc:	8d 65 f4             	lea    -0xc(%ebp),%esp
   137df:	5b                   	pop    %ebx
   137e0:	5e                   	pop    %esi
   137e1:	5f                   	pop    %edi
   137e2:	5d                   	pop    %ebp
   137e3:	c3                   	ret    

000137e4 <_ctx_dump_all>:
   137e4:	55                   	push   %ebp
   137e5:	89 e5                	mov    %esp,%ebp
   137e7:	83 ec 18             	sub    $0x18,%esp
   137ea:	83 7d 08 00          	cmpl   $0x0,0x8(%ebp)
   137ee:	74 0e                	je     137fe <_ctx_dump_all+0x1a>
   137f0:	83 ec 0c             	sub    $0xc,%esp
   137f3:	ff 75 08             	pushl  0x8(%ebp)
   137f6:	e8 de d7 ff ff       	call   10fd9 <__cio_puts>
   137fb:	83 c4 10             	add    $0x10,%esp
   137fe:	a1 00 fc 01 00       	mov    0x1fc00,%eax
   13803:	83 ec 08             	sub    $0x8,%esp
   13806:	50                   	push   %eax
   13807:	68 56 99 01 00       	push   $0x19956
   1380c:	e8 42 de ff ff       	call   11653 <__cio_printf>
   13811:	83 c4 10             	add    $0x10,%esp
   13814:	a1 00 fc 01 00       	mov    0x1fc00,%eax
   13819:	85 c0                	test   %eax,%eax
   1381b:	74 67                	je     13884 <_ctx_dump_all+0xa0>
   1381d:	c7 45 f4 00 00 00 00 	movl   $0x0,-0xc(%ebp)
   13824:	c7 45 f0 00 00 00 00 	movl   $0x0,-0x10(%ebp)
   1382b:	eb 4f                	jmp    1387c <_ctx_dump_all+0x98>
   1382d:	8b 45 f0             	mov    -0x10(%ebp),%eax
   13830:	8b 04 85 20 fc 01 00 	mov    0x1fc20(,%eax,4),%eax
   13837:	89 45 ec             	mov    %eax,-0x14(%ebp)
   1383a:	83 7d ec 00          	cmpl   $0x0,-0x14(%ebp)
   1383e:	74 38                	je     13878 <_ctx_dump_all+0x94>
   13840:	8b 45 ec             	mov    -0x14(%ebp),%eax
   13843:	0f b6 40 18          	movzbl 0x18(%eax),%eax
   13847:	84 c0                	test   %al,%al
   13849:	74 2d                	je     13878 <_ctx_dump_all+0x94>
   1384b:	83 45 f4 01          	addl   $0x1,-0xc(%ebp)
   1384f:	83 ec 04             	sub    $0x4,%esp
   13852:	ff 75 f0             	pushl  -0x10(%ebp)
   13855:	ff 75 f4             	pushl  -0xc(%ebp)
   13858:	68 6c 99 01 00       	push   $0x1996c
   1385d:	e8 f1 dd ff ff       	call   11653 <__cio_printf>
   13862:	83 c4 10             	add    $0x10,%esp
   13865:	8b 45 ec             	mov    -0x14(%ebp),%eax
   13868:	8b 00                	mov    (%eax),%eax
   1386a:	83 ec 08             	sub    $0x8,%esp
   1386d:	50                   	push   %eax
   1386e:	6a 00                	push   $0x0
   13870:	e8 7d fe ff ff       	call   136f2 <_ctx_dump>
   13875:	83 c4 10             	add    $0x10,%esp
   13878:	83 45 f0 01          	addl   $0x1,-0x10(%ebp)
   1387c:	83 7d f0 18          	cmpl   $0x18,-0x10(%ebp)
   13880:	7e ab                	jle    1382d <_ctx_dump_all+0x49>
   13882:	eb 01                	jmp    13885 <_ctx_dump_all+0xa1>
   13884:	90                   	nop
   13885:	c9                   	leave  
   13886:	c3                   	ret    

00013887 <_ptable_dump>:
   13887:	55                   	push   %ebp
   13888:	89 e5                	mov    %esp,%ebp
   1388a:	56                   	push   %esi
   1388b:	53                   	push   %ebx
   1388c:	83 ec 20             	sub    $0x20,%esp
   1388f:	8b 45 0c             	mov    0xc(%ebp),%eax
   13892:	88 45 e4             	mov    %al,-0x1c(%ebp)
   13895:	83 7d 08 00          	cmpl   $0x0,0x8(%ebp)
   13899:	74 0e                	je     138a9 <_ptable_dump+0x22>
   1389b:	83 ec 0c             	sub    $0xc,%esp
   1389e:	ff 75 08             	pushl  0x8(%ebp)
   138a1:	e8 33 d7 ff ff       	call   10fd9 <__cio_puts>
   138a6:	83 c4 10             	add    $0x10,%esp
   138a9:	83 ec 0c             	sub    $0xc,%esp
   138ac:	6a 20                	push   $0x20
   138ae:	e8 e6 d5 ff ff       	call   10e99 <__cio_putchar>
   138b3:	83 c4 10             	add    $0x10,%esp
   138b6:	c7 45 f4 00 00 00 00 	movl   $0x0,-0xc(%ebp)
   138bd:	c7 45 f0 00 00 00 00 	movl   $0x0,-0x10(%ebp)
   138c4:	c7 45 ec 00 00 00 00 	movl   $0x0,-0x14(%ebp)
   138cb:	e9 bd 00 00 00       	jmp    1398d <_ptable_dump+0x106>
   138d0:	8b 45 ec             	mov    -0x14(%ebp),%eax
   138d3:	8b 1c 85 20 fc 01 00 	mov    0x1fc20(,%eax,4),%ebx
   138da:	85 db                	test   %ebx,%ebx
   138dc:	75 09                	jne    138e7 <_ptable_dump+0x60>
   138de:	83 45 f0 01          	addl   $0x1,-0x10(%ebp)
   138e2:	e9 a2 00 00 00       	jmp    13989 <_ptable_dump+0x102>
   138e7:	83 45 f4 01          	addl   $0x1,-0xc(%ebp)
   138eb:	80 7d e4 00          	cmpb   $0x0,-0x1c(%ebp)
   138ef:	75 13                	jne    13904 <_ptable_dump+0x7d>
   138f1:	83 7d f4 00          	cmpl   $0x0,-0xc(%ebp)
   138f5:	74 0d                	je     13904 <_ptable_dump+0x7d>
   138f7:	83 ec 0c             	sub    $0xc,%esp
   138fa:	6a 2c                	push   $0x2c
   138fc:	e8 98 d5 ff ff       	call   10e99 <__cio_putchar>
   13901:	83 c4 10             	add    $0x10,%esp
   13904:	0f b7 43 16          	movzwl 0x16(%ebx),%eax
   13908:	0f b7 d0             	movzwl %ax,%edx
   1390b:	0f b7 43 14          	movzwl 0x14(%ebx),%eax
   1390f:	0f b7 c0             	movzwl %ax,%eax
   13912:	52                   	push   %edx
   13913:	50                   	push   %eax
   13914:	ff 75 ec             	pushl  -0x14(%ebp)
   13917:	68 77 99 01 00       	push   $0x19977
   1391c:	e8 32 dd ff ff       	call   11653 <__cio_printf>
   13921:	83 c4 10             	add    $0x10,%esp
   13924:	0f b6 43 18          	movzbl 0x18(%ebx),%eax
   13928:	3c 08                	cmp    $0x8,%al
   1392a:	76 12                	jbe    1393e <_ptable_dump+0xb7>
   1392c:	83 ec 0c             	sub    $0xc,%esp
   1392f:	68 83 99 01 00       	push   $0x19983
   13934:	e8 1a dd ff ff       	call   11653 <__cio_printf>
   13939:	83 c4 10             	add    $0x10,%esp
   1393c:	eb 1f                	jmp    1395d <_ptable_dump+0xd6>
   1393e:	0f b6 43 18          	movzbl 0x18(%ebx),%eax
   13942:	0f b6 c0             	movzbl %al,%eax
   13945:	8b 04 c5 24 d5 01 00 	mov    0x1d524(,%eax,8),%eax
   1394c:	83 ec 08             	sub    $0x8,%esp
   1394f:	50                   	push   %eax
   13950:	68 8c 99 01 00       	push   $0x1998c
   13955:	e8 f9 dc ff ff       	call   11653 <__cio_printf>
   1395a:	83 c4 10             	add    $0x10,%esp
   1395d:	80 7d e4 00          	cmpb   $0x0,-0x1c(%ebp)
   13961:	74 26                	je     13989 <_ptable_dump+0x102>
   13963:	8b 03                	mov    (%ebx),%eax
   13965:	8b 48 3c             	mov    0x3c(%eax),%ecx
   13968:	8b 03                	mov    (%ebx),%eax
   1396a:	8b 50 20             	mov    0x20(%eax),%edx
   1396d:	8b 43 04             	mov    0x4(%ebx),%eax
   13970:	89 c6                	mov    %eax,%esi
   13972:	8b 43 0c             	mov    0xc(%ebx),%eax
   13975:	83 ec 0c             	sub    $0xc,%esp
   13978:	51                   	push   %ecx
   13979:	52                   	push   %edx
   1397a:	56                   	push   %esi
   1397b:	50                   	push   %eax
   1397c:	68 90 99 01 00       	push   $0x19990
   13981:	e8 cd dc ff ff       	call   11653 <__cio_printf>
   13986:	83 c4 20             	add    $0x20,%esp
   13989:	83 45 ec 01          	addl   $0x1,-0x14(%ebp)
   1398d:	83 7d ec 18          	cmpl   $0x18,-0x14(%ebp)
   13991:	0f 8e 39 ff ff ff    	jle    138d0 <_ptable_dump+0x49>
   13997:	80 7d e4 00          	cmpb   $0x0,-0x1c(%ebp)
   1399b:	75 0d                	jne    139aa <_ptable_dump+0x123>
   1399d:	83 ec 0c             	sub    $0xc,%esp
   139a0:	6a 0a                	push   $0xa
   139a2:	e8 f2 d4 ff ff       	call   10e99 <__cio_putchar>
   139a7:	83 c4 10             	add    $0x10,%esp
   139aa:	8b 55 f4             	mov    -0xc(%ebp),%edx
   139ad:	8b 45 f0             	mov    -0x10(%ebp),%eax
   139b0:	01 d0                	add    %edx,%eax
   139b2:	83 f8 19             	cmp    $0x19,%eax
   139b5:	74 21                	je     139d8 <_ptable_dump+0x151>
   139b7:	8b 55 f4             	mov    -0xc(%ebp),%edx
   139ba:	8b 45 f0             	mov    -0x10(%ebp),%eax
   139bd:	01 d0                	add    %edx,%eax
   139bf:	83 ec 0c             	sub    $0xc,%esp
   139c2:	50                   	push   %eax
   139c3:	ff 75 f0             	pushl  -0x10(%ebp)
   139c6:	ff 75 f4             	pushl  -0xc(%ebp)
   139c9:	6a 19                	push   $0x19
   139cb:	68 b8 99 01 00       	push   $0x199b8
   139d0:	e8 7e dc ff ff       	call   11653 <__cio_printf>
   139d5:	83 c4 20             	add    $0x20,%esp
   139d8:	90                   	nop
   139d9:	8d 65 f8             	lea    -0x8(%ebp),%esp
   139dc:	5b                   	pop    %ebx
   139dd:	5e                   	pop    %esi
   139de:	5d                   	pop    %ebp
   139df:	c3                   	ret    

000139e0 <_qn_free>:
   139e0:	55                   	push   %ebp
   139e1:	89 e5                	mov    %esp,%ebp
   139e3:	83 ec 18             	sub    $0x18,%esp
   139e6:	83 7d 08 00          	cmpl   $0x0,0x8(%ebp)
   139ea:	75 38                	jne    13a24 <_qn_free+0x44>
   139ec:	83 ec 04             	sub    $0x4,%esp
   139ef:	68 10 9a 01 00       	push   $0x19a10
   139f4:	6a 01                	push   $0x1
   139f6:	6a 6a                	push   $0x6a
   139f8:	68 1a 9a 01 00       	push   $0x19a1a
   139fd:	68 14 9b 01 00       	push   $0x19b14
   13a02:	68 23 9a 01 00       	push   $0x19a23
   13a07:	68 e0 f8 01 00       	push   $0x1f8e0
   13a0c:	e8 a4 e1 ff ff       	call   11bb5 <__sprint>
   13a11:	83 c4 20             	add    $0x20,%esp
   13a14:	83 ec 0c             	sub    $0xc,%esp
   13a17:	68 e0 f8 01 00       	push   $0x1f8e0
   13a1c:	e8 6f ef ff ff       	call   12990 <_kpanic>
   13a21:	83 c4 10             	add    $0x10,%esp
   13a24:	8b 45 08             	mov    0x8(%ebp),%eax
   13a27:	89 45 f4             	mov    %eax,-0xc(%ebp)
   13a2a:	83 ec 08             	sub    $0x8,%esp
   13a2d:	6a 10                	push   $0x10
   13a2f:	ff 75 f4             	pushl  -0xc(%ebp)
   13a32:	e8 bc df ff ff       	call   119f3 <__memclr>
   13a37:	83 c4 10             	add    $0x10,%esp
   13a3a:	8b 15 20 dc 01 00    	mov    0x1dc20,%edx
   13a40:	8b 45 f4             	mov    -0xc(%ebp),%eax
   13a43:	89 50 0c             	mov    %edx,0xc(%eax)
   13a46:	8b 45 f4             	mov    -0xc(%ebp),%eax
   13a49:	a3 20 dc 01 00       	mov    %eax,0x1dc20
   13a4e:	90                   	nop
   13a4f:	c9                   	leave  
   13a50:	c3                   	ret    

00013a51 <_qn_alloc>:
   13a51:	55                   	push   %ebp
   13a52:	89 e5                	mov    %esp,%ebp
   13a54:	83 ec 18             	sub    $0x18,%esp
   13a57:	a1 20 dc 01 00       	mov    0x1dc20,%eax
   13a5c:	85 c0                	test   %eax,%eax
   13a5e:	75 51                	jne    13ab1 <_qn_alloc+0x60>
   13a60:	83 ec 08             	sub    $0x8,%esp
   13a63:	68 e0 39 01 00       	push   $0x139e0
   13a68:	6a 10                	push   $0x10
   13a6a:	e8 c8 ee ff ff       	call   12937 <_grow_list>
   13a6f:	83 c4 10             	add    $0x10,%esp
   13a72:	84 c0                	test   %al,%al
   13a74:	75 3b                	jne    13ab1 <_qn_alloc+0x60>
   13a76:	83 ec 04             	sub    $0x4,%esp
   13a79:	68 40 9a 01 00       	push   $0x19a40
   13a7e:	6a 00                	push   $0x0
   13a80:	68 83 00 00 00       	push   $0x83
   13a85:	68 1a 9a 01 00       	push   $0x19a1a
   13a8a:	68 20 9b 01 00       	push   $0x19b20
   13a8f:	68 23 9a 01 00       	push   $0x19a23
   13a94:	68 e0 f8 01 00       	push   $0x1f8e0
   13a99:	e8 17 e1 ff ff       	call   11bb5 <__sprint>
   13a9e:	83 c4 20             	add    $0x20,%esp
   13aa1:	83 ec 0c             	sub    $0xc,%esp
   13aa4:	68 e0 f8 01 00       	push   $0x1f8e0
   13aa9:	e8 e2 ee ff ff       	call   12990 <_kpanic>
   13aae:	83 c4 10             	add    $0x10,%esp
   13ab1:	a1 20 dc 01 00       	mov    0x1dc20,%eax
   13ab6:	89 45 f4             	mov    %eax,-0xc(%ebp)
   13ab9:	83 7d f4 00          	cmpl   $0x0,-0xc(%ebp)
   13abd:	75 3b                	jne    13afa <_qn_alloc+0xa9>
   13abf:	83 ec 04             	sub    $0x4,%esp
   13ac2:	68 6c 9a 01 00       	push   $0x19a6c
   13ac7:	6a 02                	push   $0x2
   13ac9:	68 88 00 00 00       	push   $0x88
   13ace:	68 1a 9a 01 00       	push   $0x19a1a
   13ad3:	68 20 9b 01 00       	push   $0x19b20
   13ad8:	68 23 9a 01 00       	push   $0x19a23
   13add:	68 e0 f8 01 00       	push   $0x1f8e0
   13ae2:	e8 ce e0 ff ff       	call   11bb5 <__sprint>
   13ae7:	83 c4 20             	add    $0x20,%esp
   13aea:	83 ec 0c             	sub    $0xc,%esp
   13aed:	68 e0 f8 01 00       	push   $0x1f8e0
   13af2:	e8 99 ee ff ff       	call   12990 <_kpanic>
   13af7:	83 c4 10             	add    $0x10,%esp
   13afa:	8b 45 f4             	mov    -0xc(%ebp),%eax
   13afd:	8b 40 0c             	mov    0xc(%eax),%eax
   13b00:	a3 20 dc 01 00       	mov    %eax,0x1dc20
   13b05:	8b 45 f4             	mov    -0xc(%ebp),%eax
   13b08:	c7 40 0c 00 00 00 00 	movl   $0x0,0xc(%eax)
   13b0f:	8b 45 f4             	mov    -0xc(%ebp),%eax
   13b12:	c9                   	leave  
   13b13:	c3                   	ret    

00013b14 <_qi_search>:
   13b14:	55                   	push   %ebp
   13b15:	89 e5                	mov    %esp,%ebp
   13b17:	83 ec 18             	sub    $0x18,%esp
   13b1a:	83 7d 08 00          	cmpl   $0x0,0x8(%ebp)
   13b1e:	75 3b                	jne    13b5b <_qi_search+0x47>
   13b20:	83 ec 04             	sub    $0x4,%esp
   13b23:	68 75 9a 01 00       	push   $0x19a75
   13b28:	6a 00                	push   $0x0
   13b2a:	68 a0 00 00 00       	push   $0xa0
   13b2f:	68 1a 9a 01 00       	push   $0x19a1a
   13b34:	68 2c 9b 01 00       	push   $0x19b2c
   13b39:	68 23 9a 01 00       	push   $0x19a23
   13b3e:	68 e0 f8 01 00       	push   $0x1f8e0
   13b43:	e8 6d e0 ff ff       	call   11bb5 <__sprint>
   13b48:	83 c4 20             	add    $0x20,%esp
   13b4b:	83 ec 0c             	sub    $0xc,%esp
   13b4e:	68 e0 f8 01 00       	push   $0x1f8e0
   13b53:	e8 38 ee ff ff       	call   12990 <_kpanic>
   13b58:	83 c4 10             	add    $0x10,%esp
   13b5b:	8b 45 08             	mov    0x8(%ebp),%eax
   13b5e:	8b 40 04             	mov    0x4(%eax),%eax
   13b61:	89 45 f4             	mov    %eax,-0xc(%ebp)
   13b64:	eb 09                	jmp    13b6f <_qi_search+0x5b>
   13b66:	8b 45 f4             	mov    -0xc(%ebp),%eax
   13b69:	8b 40 0c             	mov    0xc(%eax),%eax
   13b6c:	89 45 f4             	mov    %eax,-0xc(%ebp)
   13b6f:	83 7d f4 00          	cmpl   $0x0,-0xc(%ebp)
   13b73:	74 1f                	je     13b94 <_qi_search+0x80>
   13b75:	8b 45 f4             	mov    -0xc(%ebp),%eax
   13b78:	8b 50 04             	mov    0x4(%eax),%edx
   13b7b:	8b 45 f4             	mov    -0xc(%ebp),%eax
   13b7e:	8b 00                	mov    (%eax),%eax
   13b80:	83 ec 04             	sub    $0x4,%esp
   13b83:	ff 75 0c             	pushl  0xc(%ebp)
   13b86:	52                   	push   %edx
   13b87:	50                   	push   %eax
   13b88:	8b 45 10             	mov    0x10(%ebp),%eax
   13b8b:	ff d0                	call   *%eax
   13b8d:	83 c4 10             	add    $0x10,%esp
   13b90:	84 c0                	test   %al,%al
   13b92:	74 d2                	je     13b66 <_qi_search+0x52>
   13b94:	8b 45 f4             	mov    -0xc(%ebp),%eax
   13b97:	c9                   	leave  
   13b98:	c3                   	ret    

00013b99 <_q_init>:
   13b99:	55                   	push   %ebp
   13b9a:	89 e5                	mov    %esp,%ebp
   13b9c:	83 ec 08             	sub    $0x8,%esp
   13b9f:	83 ec 0c             	sub    $0xc,%esp
   13ba2:	68 7e 9a 01 00       	push   $0x19a7e
   13ba7:	e8 2d d4 ff ff       	call   10fd9 <__cio_puts>
   13bac:	83 c4 10             	add    $0x10,%esp
   13baf:	c7 05 20 dc 01 00 00 	movl   $0x0,0x1dc20
   13bb6:	00 00 00 
   13bb9:	83 ec 08             	sub    $0x8,%esp
   13bbc:	68 e0 39 01 00       	push   $0x139e0
   13bc1:	6a 10                	push   $0x10
   13bc3:	e8 6f ed ff ff       	call   12937 <_grow_list>
   13bc8:	83 c4 10             	add    $0x10,%esp
   13bcb:	84 c0                	test   %al,%al
   13bcd:	75 3b                	jne    13c0a <_q_init+0x71>
   13bcf:	83 ec 04             	sub    $0x4,%esp
   13bd2:	68 40 9a 01 00       	push   $0x19a40
   13bd7:	6a 00                	push   $0x0
   13bd9:	68 c1 00 00 00       	push   $0xc1
   13bde:	68 1a 9a 01 00       	push   $0x19a1a
   13be3:	68 38 9b 01 00       	push   $0x19b38
   13be8:	68 23 9a 01 00       	push   $0x19a23
   13bed:	68 e0 f8 01 00       	push   $0x1f8e0
   13bf2:	e8 be df ff ff       	call   11bb5 <__sprint>
   13bf7:	83 c4 20             	add    $0x20,%esp
   13bfa:	83 ec 0c             	sub    $0xc,%esp
   13bfd:	68 e0 f8 01 00       	push   $0x1f8e0
   13c02:	e8 89 ed ff ff       	call   12990 <_kpanic>
   13c07:	83 c4 10             	add    $0x10,%esp
   13c0a:	83 ec 0c             	sub    $0xc,%esp
   13c0d:	68 40 dc 01 00       	push   $0x1dc40
   13c12:	e8 71 21 00 00       	call   15d88 <_vec_clear>
   13c17:	83 c4 10             	add    $0x10,%esp
   13c1a:	83 ec 08             	sub    $0x8,%esp
   13c1d:	68 6e 3c 01 00       	push   $0x13c6e
   13c22:	6a 10                	push   $0x10
   13c24:	e8 0e ed ff ff       	call   12937 <_grow_list>
   13c29:	83 c4 10             	add    $0x10,%esp
   13c2c:	84 c0                	test   %al,%al
   13c2e:	75 3b                	jne    13c6b <_q_init+0xd2>
   13c30:	83 ec 04             	sub    $0x4,%esp
   13c33:	68 88 9a 01 00       	push   $0x19a88
   13c38:	6a 00                	push   $0x0
   13c3a:	68 c5 00 00 00       	push   $0xc5
   13c3f:	68 1a 9a 01 00       	push   $0x19a1a
   13c44:	68 38 9b 01 00       	push   $0x19b38
   13c49:	68 23 9a 01 00       	push   $0x19a23
   13c4e:	68 e0 f8 01 00       	push   $0x1f8e0
   13c53:	e8 5d df ff ff       	call   11bb5 <__sprint>
   13c58:	83 c4 20             	add    $0x20,%esp
   13c5b:	83 ec 0c             	sub    $0xc,%esp
   13c5e:	68 e0 f8 01 00       	push   $0x1f8e0
   13c63:	e8 28 ed ff ff       	call   12990 <_kpanic>
   13c68:	83 c4 10             	add    $0x10,%esp
   13c6b:	90                   	nop
   13c6c:	c9                   	leave  
   13c6d:	c3                   	ret    

00013c6e <_q_free>:
   13c6e:	55                   	push   %ebp
   13c6f:	89 e5                	mov    %esp,%ebp
   13c71:	83 ec 18             	sub    $0x18,%esp
   13c74:	8b 45 08             	mov    0x8(%ebp),%eax
   13c77:	89 45 f4             	mov    %eax,-0xc(%ebp)
   13c7a:	83 ec 08             	sub    $0x8,%esp
   13c7d:	6a 10                	push   $0x10
   13c7f:	ff 75 f4             	pushl  -0xc(%ebp)
   13c82:	e8 6c dd ff ff       	call   119f3 <__memclr>
   13c87:	83 c4 10             	add    $0x10,%esp
   13c8a:	83 ec 04             	sub    $0x4,%esp
   13c8d:	ff 75 08             	pushl  0x8(%ebp)
   13c90:	6a 00                	push   $0x0
   13c92:	68 40 dc 01 00       	push   $0x1dc40
   13c97:	e8 5d 21 00 00       	call   15df9 <_vec_add>
   13c9c:	83 c4 10             	add    $0x10,%esp
   13c9f:	90                   	nop
   13ca0:	c9                   	leave  
   13ca1:	c3                   	ret    

00013ca2 <_q_alloc>:
   13ca2:	55                   	push   %ebp
   13ca3:	89 e5                	mov    %esp,%ebp
   13ca5:	83 ec 18             	sub    $0x18,%esp
   13ca8:	a1 40 dc 01 00       	mov    0x1dc40,%eax
   13cad:	85 c0                	test   %eax,%eax
   13caf:	75 51                	jne    13d02 <_q_alloc+0x60>
   13cb1:	83 ec 08             	sub    $0x8,%esp
   13cb4:	68 6e 3c 01 00       	push   $0x13c6e
   13cb9:	6a 10                	push   $0x10
   13cbb:	e8 77 ec ff ff       	call   12937 <_grow_list>
   13cc0:	83 c4 10             	add    $0x10,%esp
   13cc3:	84 c0                	test   %al,%al
   13cc5:	75 3b                	jne    13d02 <_q_alloc+0x60>
   13cc7:	83 ec 04             	sub    $0x4,%esp
   13cca:	68 88 9a 01 00       	push   $0x19a88
   13ccf:	6a 00                	push   $0x0
   13cd1:	68 f2 00 00 00       	push   $0xf2
   13cd6:	68 1a 9a 01 00       	push   $0x19a1a
   13cdb:	68 40 9b 01 00       	push   $0x19b40
   13ce0:	68 23 9a 01 00       	push   $0x19a23
   13ce5:	68 e0 f8 01 00       	push   $0x1f8e0
   13cea:	e8 c6 de ff ff       	call   11bb5 <__sprint>
   13cef:	83 c4 20             	add    $0x20,%esp
   13cf2:	83 ec 0c             	sub    $0xc,%esp
   13cf5:	68 e0 f8 01 00       	push   $0x1f8e0
   13cfa:	e8 91 ec ff ff       	call   12990 <_kpanic>
   13cff:	83 c4 10             	add    $0x10,%esp
   13d02:	83 ec 0c             	sub    $0xc,%esp
   13d05:	68 40 dc 01 00       	push   $0x1dc40
   13d0a:	e8 eb 21 00 00       	call   15efa <_vec_remove>
   13d0f:	83 c4 10             	add    $0x10,%esp
   13d12:	89 45 f4             	mov    %eax,-0xc(%ebp)
   13d15:	83 7d f4 00          	cmpl   $0x0,-0xc(%ebp)
   13d19:	75 3b                	jne    13d56 <_q_alloc+0xb4>
   13d1b:	83 ec 04             	sub    $0x4,%esp
   13d1e:	68 6c 9a 01 00       	push   $0x19a6c
   13d23:	6a 01                	push   $0x1
   13d25:	68 f7 00 00 00       	push   $0xf7
   13d2a:	68 1a 9a 01 00       	push   $0x19a1a
   13d2f:	68 40 9b 01 00       	push   $0x19b40
   13d34:	68 23 9a 01 00       	push   $0x19a23
   13d39:	68 e0 f8 01 00       	push   $0x1f8e0
   13d3e:	e8 72 de ff ff       	call   11bb5 <__sprint>
   13d43:	83 c4 20             	add    $0x20,%esp
   13d46:	83 ec 0c             	sub    $0xc,%esp
   13d49:	68 e0 f8 01 00       	push   $0x1f8e0
   13d4e:	e8 3d ec ff ff       	call   12990 <_kpanic>
   13d53:	83 c4 10             	add    $0x10,%esp
   13d56:	8b 45 f4             	mov    -0xc(%ebp),%eax
   13d59:	8b 55 08             	mov    0x8(%ebp),%edx
   13d5c:	89 50 0c             	mov    %edx,0xc(%eax)
   13d5f:	8b 45 f4             	mov    -0xc(%ebp),%eax
   13d62:	c9                   	leave  
   13d63:	c3                   	ret    

00013d64 <_q_length>:
   13d64:	55                   	push   %ebp
   13d65:	89 e5                	mov    %esp,%ebp
   13d67:	83 ec 08             	sub    $0x8,%esp
   13d6a:	83 7d 08 00          	cmpl   $0x0,0x8(%ebp)
   13d6e:	75 3b                	jne    13dab <_q_length+0x47>
   13d70:	83 ec 04             	sub    $0x4,%esp
   13d73:	68 75 9a 01 00       	push   $0x19a75
   13d78:	6a 00                	push   $0x0
   13d7a:	68 12 01 00 00       	push   $0x112
   13d7f:	68 1a 9a 01 00       	push   $0x19a1a
   13d84:	68 4c 9b 01 00       	push   $0x19b4c
   13d89:	68 23 9a 01 00       	push   $0x19a23
   13d8e:	68 e0 f8 01 00       	push   $0x1f8e0
   13d93:	e8 1d de ff ff       	call   11bb5 <__sprint>
   13d98:	83 c4 20             	add    $0x20,%esp
   13d9b:	83 ec 0c             	sub    $0xc,%esp
   13d9e:	68 e0 f8 01 00       	push   $0x1f8e0
   13da3:	e8 e8 eb ff ff       	call   12990 <_kpanic>
   13da8:	83 c4 10             	add    $0x10,%esp
   13dab:	8b 45 08             	mov    0x8(%ebp),%eax
   13dae:	8b 00                	mov    (%eax),%eax
   13db0:	c9                   	leave  
   13db1:	c3                   	ret    

00013db2 <_q_insert>:
   13db2:	55                   	push   %ebp
   13db3:	89 e5                	mov    %esp,%ebp
   13db5:	83 ec 18             	sub    $0x18,%esp
   13db8:	83 7d 08 00          	cmpl   $0x0,0x8(%ebp)
   13dbc:	75 3b                	jne    13df9 <_q_insert+0x47>
   13dbe:	83 ec 04             	sub    $0x4,%esp
   13dc1:	68 75 9a 01 00       	push   $0x19a75
   13dc6:	6a 01                	push   $0x1
   13dc8:	68 2f 01 00 00       	push   $0x12f
   13dcd:	68 1a 9a 01 00       	push   $0x19a1a
   13dd2:	68 58 9b 01 00       	push   $0x19b58
   13dd7:	68 23 9a 01 00       	push   $0x19a23
   13ddc:	68 e0 f8 01 00       	push   $0x1f8e0
   13de1:	e8 cf dd ff ff       	call   11bb5 <__sprint>
   13de6:	83 c4 20             	add    $0x20,%esp
   13de9:	83 ec 0c             	sub    $0xc,%esp
   13dec:	68 e0 f8 01 00       	push   $0x1f8e0
   13df1:	e8 9a eb ff ff       	call   12990 <_kpanic>
   13df6:	83 c4 10             	add    $0x10,%esp
   13df9:	e8 53 fc ff ff       	call   13a51 <_qn_alloc>
   13dfe:	89 45 f0             	mov    %eax,-0x10(%ebp)
   13e01:	83 7d f0 00          	cmpl   $0x0,-0x10(%ebp)
   13e05:	75 3b                	jne    13e42 <_q_insert+0x90>
   13e07:	83 ec 04             	sub    $0x4,%esp
   13e0a:	68 b3 9a 01 00       	push   $0x19ab3
   13e0f:	6a 01                	push   $0x1
   13e11:	68 34 01 00 00       	push   $0x134
   13e16:	68 1a 9a 01 00       	push   $0x19a1a
   13e1b:	68 58 9b 01 00       	push   $0x19b58
   13e20:	68 23 9a 01 00       	push   $0x19a23
   13e25:	68 e0 f8 01 00       	push   $0x1f8e0
   13e2a:	e8 86 dd ff ff       	call   11bb5 <__sprint>
   13e2f:	83 c4 20             	add    $0x20,%esp
   13e32:	83 ec 0c             	sub    $0xc,%esp
   13e35:	68 e0 f8 01 00       	push   $0x1f8e0
   13e3a:	e8 51 eb ff ff       	call   12990 <_kpanic>
   13e3f:	83 c4 10             	add    $0x10,%esp
   13e42:	8b 45 f0             	mov    -0x10(%ebp),%eax
   13e45:	8b 55 0c             	mov    0xc(%ebp),%edx
   13e48:	89 50 04             	mov    %edx,0x4(%eax)
   13e4b:	8b 45 f0             	mov    -0x10(%ebp),%eax
   13e4e:	8b 55 10             	mov    0x10(%ebp),%edx
   13e51:	89 10                	mov    %edx,(%eax)
   13e53:	8b 45 08             	mov    0x8(%ebp),%eax
   13e56:	8b 00                	mov    (%eax),%eax
   13e58:	85 c0                	test   %eax,%eax
   13e5a:	75 28                	jne    13e84 <_q_insert+0xd2>
   13e5c:	8b 45 08             	mov    0x8(%ebp),%eax
   13e5f:	c7 00 01 00 00 00    	movl   $0x1,(%eax)
   13e65:	8b 45 08             	mov    0x8(%ebp),%eax
   13e68:	8b 55 f0             	mov    -0x10(%ebp),%edx
   13e6b:	89 50 08             	mov    %edx,0x8(%eax)
   13e6e:	8b 45 08             	mov    0x8(%ebp),%eax
   13e71:	8b 50 08             	mov    0x8(%eax),%edx
   13e74:	8b 45 08             	mov    0x8(%ebp),%eax
   13e77:	89 50 04             	mov    %edx,0x4(%eax)
   13e7a:	8b 45 08             	mov    0x8(%ebp),%eax
   13e7d:	8b 00                	mov    (%eax),%eax
   13e7f:	e9 a2 00 00 00       	jmp    13f26 <_q_insert+0x174>
   13e84:	c7 45 f4 00 00 00 00 	movl   $0x0,-0xc(%ebp)
   13e8b:	8b 45 08             	mov    0x8(%ebp),%eax
   13e8e:	8b 40 0c             	mov    0xc(%eax),%eax
   13e91:	85 c0                	test   %eax,%eax
   13e93:	74 38                	je     13ecd <_q_insert+0x11b>
   13e95:	8b 45 08             	mov    0x8(%ebp),%eax
   13e98:	8b 40 04             	mov    0x4(%eax),%eax
   13e9b:	89 45 f4             	mov    %eax,-0xc(%ebp)
   13e9e:	eb 09                	jmp    13ea9 <_q_insert+0xf7>
   13ea0:	8b 45 f4             	mov    -0xc(%ebp),%eax
   13ea3:	8b 40 0c             	mov    0xc(%eax),%eax
   13ea6:	89 45 f4             	mov    %eax,-0xc(%ebp)
   13ea9:	83 7d f4 00          	cmpl   $0x0,-0xc(%ebp)
   13ead:	74 1e                	je     13ecd <_q_insert+0x11b>
   13eaf:	8b 45 08             	mov    0x8(%ebp),%eax
   13eb2:	8b 40 0c             	mov    0xc(%eax),%eax
   13eb5:	8b 55 f0             	mov    -0x10(%ebp),%edx
   13eb8:	8b 0a                	mov    (%edx),%ecx
   13eba:	8b 55 f4             	mov    -0xc(%ebp),%edx
   13ebd:	8b 12                	mov    (%edx),%edx
   13ebf:	83 ec 08             	sub    $0x8,%esp
   13ec2:	51                   	push   %ecx
   13ec3:	52                   	push   %edx
   13ec4:	ff d0                	call   *%eax
   13ec6:	83 c4 10             	add    $0x10,%esp
   13ec9:	85 c0                	test   %eax,%eax
   13ecb:	7e d3                	jle    13ea0 <_q_insert+0xee>
   13ecd:	83 7d f4 00          	cmpl   $0x0,-0xc(%ebp)
   13ed1:	75 23                	jne    13ef6 <_q_insert+0x144>
   13ed3:	8b 45 08             	mov    0x8(%ebp),%eax
   13ed6:	8b 50 08             	mov    0x8(%eax),%edx
   13ed9:	8b 45 f0             	mov    -0x10(%ebp),%eax
   13edc:	89 50 08             	mov    %edx,0x8(%eax)
   13edf:	8b 45 08             	mov    0x8(%ebp),%eax
   13ee2:	8b 40 08             	mov    0x8(%eax),%eax
   13ee5:	8b 55 f0             	mov    -0x10(%ebp),%edx
   13ee8:	89 50 0c             	mov    %edx,0xc(%eax)
   13eeb:	8b 45 08             	mov    0x8(%ebp),%eax
   13eee:	8b 55 f0             	mov    -0x10(%ebp),%edx
   13ef1:	89 50 08             	mov    %edx,0x8(%eax)
   13ef4:	eb 1e                	jmp    13f14 <_q_insert+0x162>
   13ef6:	8b 45 f0             	mov    -0x10(%ebp),%eax
   13ef9:	8b 55 f4             	mov    -0xc(%ebp),%edx
   13efc:	89 50 0c             	mov    %edx,0xc(%eax)
   13eff:	8b 45 f4             	mov    -0xc(%ebp),%eax
   13f02:	8b 50 08             	mov    0x8(%eax),%edx
   13f05:	8b 45 f0             	mov    -0x10(%ebp),%eax
   13f08:	89 50 08             	mov    %edx,0x8(%eax)
   13f0b:	8b 45 f4             	mov    -0xc(%ebp),%eax
   13f0e:	8b 55 f0             	mov    -0x10(%ebp),%edx
   13f11:	89 50 08             	mov    %edx,0x8(%eax)
   13f14:	8b 45 08             	mov    0x8(%ebp),%eax
   13f17:	8b 00                	mov    (%eax),%eax
   13f19:	8d 50 01             	lea    0x1(%eax),%edx
   13f1c:	8b 45 08             	mov    0x8(%ebp),%eax
   13f1f:	89 10                	mov    %edx,(%eax)
   13f21:	8b 45 08             	mov    0x8(%ebp),%eax
   13f24:	8b 00                	mov    (%eax),%eax
   13f26:	c9                   	leave  
   13f27:	c3                   	ret    

00013f28 <_q_find>:
   13f28:	55                   	push   %ebp
   13f29:	89 e5                	mov    %esp,%ebp
   13f2b:	83 ec 18             	sub    $0x18,%esp
   13f2e:	83 7d 08 00          	cmpl   $0x0,0x8(%ebp)
   13f32:	75 3b                	jne    13f6f <_q_find+0x47>
   13f34:	83 ec 04             	sub    $0x4,%esp
   13f37:	68 75 9a 01 00       	push   $0x19a75
   13f3c:	6a 00                	push   $0x0
   13f3e:	68 8a 01 00 00       	push   $0x18a
   13f43:	68 1a 9a 01 00       	push   $0x19a1a
   13f48:	68 64 9b 01 00       	push   $0x19b64
   13f4d:	68 23 9a 01 00       	push   $0x19a23
   13f52:	68 e0 f8 01 00       	push   $0x1f8e0
   13f57:	e8 59 dc ff ff       	call   11bb5 <__sprint>
   13f5c:	83 c4 20             	add    $0x20,%esp
   13f5f:	83 ec 0c             	sub    $0xc,%esp
   13f62:	68 e0 f8 01 00       	push   $0x1f8e0
   13f67:	e8 24 ea ff ff       	call   12990 <_kpanic>
   13f6c:	83 c4 10             	add    $0x10,%esp
   13f6f:	83 7d 10 00          	cmpl   $0x0,0x10(%ebp)
   13f73:	75 08                	jne    13f7d <_q_find+0x55>
   13f75:	8b 45 08             	mov    0x8(%ebp),%eax
   13f78:	8b 40 04             	mov    0x4(%eax),%eax
   13f7b:	eb 1a                	jmp    13f97 <_q_find+0x6f>
   13f7d:	83 ec 04             	sub    $0x4,%esp
   13f80:	ff 75 10             	pushl  0x10(%ebp)
   13f83:	ff 75 0c             	pushl  0xc(%ebp)
   13f86:	ff 75 08             	pushl  0x8(%ebp)
   13f89:	e8 86 fb ff ff       	call   13b14 <_qi_search>
   13f8e:	83 c4 10             	add    $0x10,%esp
   13f91:	89 45 f4             	mov    %eax,-0xc(%ebp)
   13f94:	8b 45 f4             	mov    -0xc(%ebp),%eax
   13f97:	c9                   	leave  
   13f98:	c3                   	ret    

00013f99 <_q_remove>:
   13f99:	55                   	push   %ebp
   13f9a:	89 e5                	mov    %esp,%ebp
   13f9c:	83 ec 18             	sub    $0x18,%esp
   13f9f:	83 7d 08 00          	cmpl   $0x0,0x8(%ebp)
   13fa3:	75 3b                	jne    13fe0 <_q_remove+0x47>
   13fa5:	83 ec 04             	sub    $0x4,%esp
   13fa8:	68 75 9a 01 00       	push   $0x19a75
   13fad:	6a 00                	push   $0x0
   13faf:	68 b0 01 00 00       	push   $0x1b0
   13fb4:	68 1a 9a 01 00       	push   $0x19a1a
   13fb9:	68 6c 9b 01 00       	push   $0x19b6c
   13fbe:	68 23 9a 01 00       	push   $0x19a23
   13fc3:	68 e0 f8 01 00       	push   $0x1f8e0
   13fc8:	e8 e8 db ff ff       	call   11bb5 <__sprint>
   13fcd:	83 c4 20             	add    $0x20,%esp
   13fd0:	83 ec 0c             	sub    $0xc,%esp
   13fd3:	68 e0 f8 01 00       	push   $0x1f8e0
   13fd8:	e8 b3 e9 ff ff       	call   12990 <_kpanic>
   13fdd:	83 c4 10             	add    $0x10,%esp
   13fe0:	8b 45 08             	mov    0x8(%ebp),%eax
   13fe3:	8b 00                	mov    (%eax),%eax
   13fe5:	85 c0                	test   %eax,%eax
   13fe7:	75 07                	jne    13ff0 <_q_remove+0x57>
   13fe9:	b8 00 00 00 00       	mov    $0x0,%eax
   13fee:	eb 7a                	jmp    1406a <_q_remove+0xd1>
   13ff0:	8b 45 08             	mov    0x8(%ebp),%eax
   13ff3:	8b 40 04             	mov    0x4(%eax),%eax
   13ff6:	89 45 f4             	mov    %eax,-0xc(%ebp)
   13ff9:	8b 45 f4             	mov    -0xc(%ebp),%eax
   13ffc:	8b 50 0c             	mov    0xc(%eax),%edx
   13fff:	8b 45 08             	mov    0x8(%ebp),%eax
   14002:	89 50 04             	mov    %edx,0x4(%eax)
   14005:	8b 45 08             	mov    0x8(%ebp),%eax
   14008:	8b 40 04             	mov    0x4(%eax),%eax
   1400b:	85 c0                	test   %eax,%eax
   1400d:	75 0c                	jne    1401b <_q_remove+0x82>
   1400f:	8b 45 08             	mov    0x8(%ebp),%eax
   14012:	c7 40 08 00 00 00 00 	movl   $0x0,0x8(%eax)
   14019:	eb 0d                	jmp    14028 <_q_remove+0x8f>
   1401b:	8b 45 08             	mov    0x8(%ebp),%eax
   1401e:	8b 40 04             	mov    0x4(%eax),%eax
   14021:	c7 40 08 00 00 00 00 	movl   $0x0,0x8(%eax)
   14028:	8b 45 08             	mov    0x8(%ebp),%eax
   1402b:	8b 00                	mov    (%eax),%eax
   1402d:	8d 50 ff             	lea    -0x1(%eax),%edx
   14030:	8b 45 08             	mov    0x8(%ebp),%eax
   14033:	89 10                	mov    %edx,(%eax)
   14035:	83 7d 0c 00          	cmpl   $0x0,0xc(%ebp)
   14039:	74 1c                	je     14057 <_q_remove+0xbe>
   1403b:	8b 45 0c             	mov    0xc(%ebp),%eax
   1403e:	89 45 f0             	mov    %eax,-0x10(%ebp)
   14041:	8b 45 f4             	mov    -0xc(%ebp),%eax
   14044:	8b 10                	mov    (%eax),%edx
   14046:	8b 45 f0             	mov    -0x10(%ebp),%eax
   14049:	89 10                	mov    %edx,(%eax)
   1404b:	8b 45 f4             	mov    -0xc(%ebp),%eax
   1404e:	8b 50 04             	mov    0x4(%eax),%edx
   14051:	8b 45 f0             	mov    -0x10(%ebp),%eax
   14054:	89 50 04             	mov    %edx,0x4(%eax)
   14057:	83 ec 0c             	sub    $0xc,%esp
   1405a:	ff 75 f4             	pushl  -0xc(%ebp)
   1405d:	e8 7e f9 ff ff       	call   139e0 <_qn_free>
   14062:	83 c4 10             	add    $0x10,%esp
   14065:	b8 01 00 00 00       	mov    $0x1,%eax
   1406a:	c9                   	leave  
   1406b:	c3                   	ret    

0001406c <_q_removeBy>:
   1406c:	55                   	push   %ebp
   1406d:	89 e5                	mov    %esp,%ebp
   1406f:	83 ec 18             	sub    $0x18,%esp
   14072:	83 7d 08 00          	cmpl   $0x0,0x8(%ebp)
   14076:	75 3b                	jne    140b3 <_q_removeBy+0x47>
   14078:	83 ec 04             	sub    $0x4,%esp
   1407b:	68 75 9a 01 00       	push   $0x19a75
   14080:	6a 00                	push   $0x0
   14082:	68 f2 01 00 00       	push   $0x1f2
   14087:	68 1a 9a 01 00       	push   $0x19a1a
   1408c:	68 78 9b 01 00       	push   $0x19b78
   14091:	68 23 9a 01 00       	push   $0x19a23
   14096:	68 e0 f8 01 00       	push   $0x1f8e0
   1409b:	e8 15 db ff ff       	call   11bb5 <__sprint>
   140a0:	83 c4 20             	add    $0x20,%esp
   140a3:	83 ec 0c             	sub    $0xc,%esp
   140a6:	68 e0 f8 01 00       	push   $0x1f8e0
   140ab:	e8 e0 e8 ff ff       	call   12990 <_kpanic>
   140b0:	83 c4 10             	add    $0x10,%esp
   140b3:	8b 45 08             	mov    0x8(%ebp),%eax
   140b6:	8b 00                	mov    (%eax),%eax
   140b8:	85 c0                	test   %eax,%eax
   140ba:	75 07                	jne    140c3 <_q_removeBy+0x57>
   140bc:	b8 00 00 00 00       	mov    $0x0,%eax
   140c1:	eb 54                	jmp    14117 <_q_removeBy+0xab>
   140c3:	83 ec 04             	sub    $0x4,%esp
   140c6:	ff 75 14             	pushl  0x14(%ebp)
   140c9:	ff 75 10             	pushl  0x10(%ebp)
   140cc:	ff 75 08             	pushl  0x8(%ebp)
   140cf:	e8 40 fa ff ff       	call   13b14 <_qi_search>
   140d4:	83 c4 10             	add    $0x10,%esp
   140d7:	89 45 f4             	mov    %eax,-0xc(%ebp)
   140da:	83 7d f4 00          	cmpl   $0x0,-0xc(%ebp)
   140de:	74 30                	je     14110 <_q_removeBy+0xa4>
   140e0:	83 7d 0c 00          	cmpl   $0x0,0xc(%ebp)
   140e4:	74 1c                	je     14102 <_q_removeBy+0x96>
   140e6:	8b 45 0c             	mov    0xc(%ebp),%eax
   140e9:	89 45 f0             	mov    %eax,-0x10(%ebp)
   140ec:	8b 45 f4             	mov    -0xc(%ebp),%eax
   140ef:	8b 10                	mov    (%eax),%edx
   140f1:	8b 45 f0             	mov    -0x10(%ebp),%eax
   140f4:	89 10                	mov    %edx,(%eax)
   140f6:	8b 45 f4             	mov    -0xc(%ebp),%eax
   140f9:	8b 50 04             	mov    0x4(%eax),%edx
   140fc:	8b 45 f0             	mov    -0x10(%ebp),%eax
   140ff:	89 50 04             	mov    %edx,0x4(%eax)
   14102:	83 ec 0c             	sub    $0xc,%esp
   14105:	ff 75 f4             	pushl  -0xc(%ebp)
   14108:	e8 d3 f8 ff ff       	call   139e0 <_qn_free>
   1410d:	83 c4 10             	add    $0x10,%esp
   14110:	83 7d f4 00          	cmpl   $0x0,-0xc(%ebp)
   14114:	0f 95 c0             	setne  %al
   14117:	c9                   	leave  
   14118:	c3                   	ret    

00014119 <_q_forEach>:
   14119:	55                   	push   %ebp
   1411a:	89 e5                	mov    %esp,%ebp
   1411c:	83 ec 18             	sub    $0x18,%esp
   1411f:	83 7d 08 00          	cmpl   $0x0,0x8(%ebp)
   14123:	75 3b                	jne    14160 <_q_forEach+0x47>
   14125:	83 ec 04             	sub    $0x4,%esp
   14128:	68 75 9a 01 00       	push   $0x19a75
   1412d:	6a 00                	push   $0x0
   1412f:	68 28 02 00 00       	push   $0x228
   14134:	68 1a 9a 01 00       	push   $0x19a1a
   14139:	68 84 9b 01 00       	push   $0x19b84
   1413e:	68 23 9a 01 00       	push   $0x19a23
   14143:	68 e0 f8 01 00       	push   $0x1f8e0
   14148:	e8 68 da ff ff       	call   11bb5 <__sprint>
   1414d:	83 c4 20             	add    $0x20,%esp
   14150:	83 ec 0c             	sub    $0xc,%esp
   14153:	68 e0 f8 01 00       	push   $0x1f8e0
   14158:	e8 33 e8 ff ff       	call   12990 <_kpanic>
   1415d:	83 c4 10             	add    $0x10,%esp
   14160:	8b 45 08             	mov    0x8(%ebp),%eax
   14163:	8b 40 04             	mov    0x4(%eax),%eax
   14166:	89 45 f4             	mov    %eax,-0xc(%ebp)
   14169:	eb 21                	jmp    1418c <_q_forEach+0x73>
   1416b:	8b 45 f4             	mov    -0xc(%ebp),%eax
   1416e:	8b 50 04             	mov    0x4(%eax),%edx
   14171:	8b 45 f4             	mov    -0xc(%ebp),%eax
   14174:	8b 00                	mov    (%eax),%eax
   14176:	83 ec 08             	sub    $0x8,%esp
   14179:	52                   	push   %edx
   1417a:	50                   	push   %eax
   1417b:	8b 45 0c             	mov    0xc(%ebp),%eax
   1417e:	ff d0                	call   *%eax
   14180:	83 c4 10             	add    $0x10,%esp
   14183:	8b 45 f4             	mov    -0xc(%ebp),%eax
   14186:	8b 40 0c             	mov    0xc(%eax),%eax
   14189:	89 45 f4             	mov    %eax,-0xc(%ebp)
   1418c:	83 7d f4 00          	cmpl   $0x0,-0xc(%ebp)
   14190:	75 d9                	jne    1416b <_q_forEach+0x52>
   14192:	90                   	nop
   14193:	c9                   	leave  
   14194:	c3                   	ret    

00014195 <_q_dump>:
   14195:	55                   	push   %ebp
   14196:	89 e5                	mov    %esp,%ebp
   14198:	83 ec 18             	sub    $0x18,%esp
   1419b:	83 ec 08             	sub    $0x8,%esp
   1419e:	ff 75 08             	pushl  0x8(%ebp)
   141a1:	68 bb 9a 01 00       	push   $0x19abb
   141a6:	e8 a8 d4 ff ff       	call   11653 <__cio_printf>
   141ab:	83 c4 10             	add    $0x10,%esp
   141ae:	83 7d 0c 00          	cmpl   $0x0,0xc(%ebp)
   141b2:	75 15                	jne    141c9 <_q_dump+0x34>
   141b4:	83 ec 0c             	sub    $0xc,%esp
   141b7:	68 c0 9a 01 00       	push   $0x19ac0
   141bc:	e8 18 ce ff ff       	call   10fd9 <__cio_puts>
   141c1:	83 c4 10             	add    $0x10,%esp
   141c4:	e9 dc 00 00 00       	jmp    142a5 <_q_dump+0x110>
   141c9:	8b 45 0c             	mov    0xc(%ebp),%eax
   141cc:	8b 00                	mov    (%eax),%eax
   141ce:	8b 55 0c             	mov    0xc(%ebp),%edx
   141d1:	8b 52 08             	mov    0x8(%edx),%edx
   141d4:	89 d1                	mov    %edx,%ecx
   141d6:	8b 55 0c             	mov    0xc(%ebp),%edx
   141d9:	8b 52 04             	mov    0x4(%edx),%edx
   141dc:	50                   	push   %eax
   141dd:	51                   	push   %ecx
   141de:	52                   	push   %edx
   141df:	68 c9 9a 01 00       	push   $0x19ac9
   141e4:	e8 6a d4 ff ff       	call   11653 <__cio_printf>
   141e9:	83 c4 10             	add    $0x10,%esp
   141ec:	8b 45 0c             	mov    0xc(%ebp),%eax
   141ef:	8b 40 0c             	mov    0xc(%eax),%eax
   141f2:	85 c0                	test   %eax,%eax
   141f4:	74 19                	je     1420f <_q_dump+0x7a>
   141f6:	8b 45 0c             	mov    0xc(%ebp),%eax
   141f9:	8b 40 0c             	mov    0xc(%eax),%eax
   141fc:	83 ec 08             	sub    $0x8,%esp
   141ff:	50                   	push   %eax
   14200:	68 e6 9a 01 00       	push   $0x19ae6
   14205:	e8 49 d4 ff ff       	call   11653 <__cio_printf>
   1420a:	83 c4 10             	add    $0x10,%esp
   1420d:	eb 10                	jmp    1421f <_q_dump+0x8a>
   1420f:	83 ec 0c             	sub    $0xc,%esp
   14212:	68 f3 9a 01 00       	push   $0x19af3
   14217:	e8 bd cd ff ff       	call   10fd9 <__cio_puts>
   1421c:	83 c4 10             	add    $0x10,%esp
   1421f:	8b 45 0c             	mov    0xc(%ebp),%eax
   14222:	8b 00                	mov    (%eax),%eax
   14224:	85 c0                	test   %eax,%eax
   14226:	74 7d                	je     142a5 <_q_dump+0x110>
   14228:	83 ec 0c             	sub    $0xc,%esp
   1422b:	68 fa 9a 01 00       	push   $0x19afa
   14230:	e8 a4 cd ff ff       	call   10fd9 <__cio_puts>
   14235:	83 c4 10             	add    $0x10,%esp
   14238:	c7 45 f0 00 00 00 00 	movl   $0x0,-0x10(%ebp)
   1423f:	8b 45 0c             	mov    0xc(%ebp),%eax
   14242:	8b 40 04             	mov    0x4(%eax),%eax
   14245:	89 45 f4             	mov    %eax,-0xc(%ebp)
   14248:	eb 2c                	jmp    14276 <_q_dump+0xe1>
   1424a:	8b 45 f4             	mov    -0xc(%ebp),%eax
   1424d:	8b 40 04             	mov    0x4(%eax),%eax
   14250:	89 c2                	mov    %eax,%edx
   14252:	8b 45 f4             	mov    -0xc(%ebp),%eax
   14255:	8b 00                	mov    (%eax),%eax
   14257:	83 ec 04             	sub    $0x4,%esp
   1425a:	52                   	push   %edx
   1425b:	50                   	push   %eax
   1425c:	68 02 9b 01 00       	push   $0x19b02
   14261:	e8 ed d3 ff ff       	call   11653 <__cio_printf>
   14266:	83 c4 10             	add    $0x10,%esp
   14269:	83 45 f0 01          	addl   $0x1,-0x10(%ebp)
   1426d:	8b 45 f4             	mov    -0xc(%ebp),%eax
   14270:	8b 40 0c             	mov    0xc(%eax),%eax
   14273:	89 45 f4             	mov    %eax,-0xc(%ebp)
   14276:	83 7d f0 04          	cmpl   $0x4,-0x10(%ebp)
   1427a:	7f 06                	jg     14282 <_q_dump+0xed>
   1427c:	83 7d f4 00          	cmpl   $0x0,-0xc(%ebp)
   14280:	75 c8                	jne    1424a <_q_dump+0xb5>
   14282:	83 7d f4 00          	cmpl   $0x0,-0xc(%ebp)
   14286:	74 10                	je     14298 <_q_dump+0x103>
   14288:	83 ec 0c             	sub    $0xc,%esp
   1428b:	68 0d 9b 01 00       	push   $0x19b0d
   14290:	e8 44 cd ff ff       	call   10fd9 <__cio_puts>
   14295:	83 c4 10             	add    $0x10,%esp
   14298:	83 ec 0c             	sub    $0xc,%esp
   1429b:	6a 0a                	push   $0xa
   1429d:	e8 f7 cb ff ff       	call   10e99 <__cio_putchar>
   142a2:	83 c4 10             	add    $0x10,%esp
   142a5:	c9                   	leave  
   142a6:	c3                   	ret    

000142a7 <_sched_init>:
   142a7:	55                   	push   %ebp
   142a8:	89 e5                	mov    %esp,%ebp
   142aa:	83 ec 18             	sub    $0x18,%esp
   142ad:	83 ec 0c             	sub    $0xc,%esp
   142b0:	68 90 9b 01 00       	push   $0x19b90
   142b5:	e8 1f cd ff ff       	call   10fd9 <__cio_puts>
   142ba:	83 c4 10             	add    $0x10,%esp
   142bd:	c7 45 f4 00 00 00 00 	movl   $0x0,-0xc(%ebp)
   142c4:	eb 71                	jmp    14337 <_sched_init+0x90>
   142c6:	8b 45 f4             	mov    -0xc(%ebp),%eax
   142c9:	c7 04 85 88 fc 01 00 	movl   $0x0,0x1fc88(,%eax,4)
   142d0:	00 00 00 00 
   142d4:	83 ec 0c             	sub    $0xc,%esp
   142d7:	6a 00                	push   $0x0
   142d9:	e8 c4 f9 ff ff       	call   13ca2 <_q_alloc>
   142de:	83 c4 10             	add    $0x10,%esp
   142e1:	89 c2                	mov    %eax,%edx
   142e3:	8b 45 f4             	mov    -0xc(%ebp),%eax
   142e6:	89 14 85 98 fc 01 00 	mov    %edx,0x1fc98(,%eax,4)
   142ed:	8b 45 f4             	mov    -0xc(%ebp),%eax
   142f0:	8b 04 85 98 fc 01 00 	mov    0x1fc98(,%eax,4),%eax
   142f7:	85 c0                	test   %eax,%eax
   142f9:	75 38                	jne    14333 <_sched_init+0x8c>
   142fb:	83 ec 04             	sub    $0x4,%esp
   142fe:	68 97 9b 01 00       	push   $0x19b97
   14303:	6a 00                	push   $0x0
   14305:	6a 45                	push   $0x45
   14307:	68 ab 9b 01 00       	push   $0x19bab
   1430c:	68 24 9c 01 00       	push   $0x19c24
   14311:	68 b3 9b 01 00       	push   $0x19bb3
   14316:	68 e0 f8 01 00       	push   $0x1f8e0
   1431b:	e8 95 d8 ff ff       	call   11bb5 <__sprint>
   14320:	83 c4 20             	add    $0x20,%esp
   14323:	83 ec 0c             	sub    $0xc,%esp
   14326:	68 e0 f8 01 00       	push   $0x1f8e0
   1432b:	e8 60 e6 ff ff       	call   12990 <_kpanic>
   14330:	83 c4 10             	add    $0x10,%esp
   14333:	83 45 f4 01          	addl   $0x1,-0xc(%ebp)
   14337:	83 7d f4 02          	cmpl   $0x2,-0xc(%ebp)
   1433b:	7e 89                	jle    142c6 <_sched_init+0x1f>
   1433d:	c7 05 94 fc 01 00 00 	movl   $0x0,0x1fc94
   14344:	00 00 00 
   14347:	90                   	nop
   14348:	c9                   	leave  
   14349:	c3                   	ret    

0001434a <_schedule>:
   1434a:	55                   	push   %ebp
   1434b:	89 e5                	mov    %esp,%ebp
   1434d:	53                   	push   %ebx
   1434e:	83 ec 04             	sub    $0x4,%esp
   14351:	83 7d 08 00          	cmpl   $0x0,0x8(%ebp)
   14355:	75 38                	jne    1438f <_schedule+0x45>
   14357:	83 ec 04             	sub    $0x4,%esp
   1435a:	68 d0 9b 01 00       	push   $0x19bd0
   1435f:	6a 01                	push   $0x1
   14361:	6a 5a                	push   $0x5a
   14363:	68 ab 9b 01 00       	push   $0x19bab
   14368:	68 30 9c 01 00       	push   $0x19c30
   1436d:	68 b3 9b 01 00       	push   $0x19bb3
   14372:	68 e0 f8 01 00       	push   $0x1f8e0
   14377:	e8 39 d8 ff ff       	call   11bb5 <__sprint>
   1437c:	83 c4 20             	add    $0x20,%esp
   1437f:	83 ec 0c             	sub    $0xc,%esp
   14382:	68 e0 f8 01 00       	push   $0x1f8e0
   14387:	e8 04 e6 ff ff       	call   12990 <_kpanic>
   1438c:	83 c4 10             	add    $0x10,%esp
   1438f:	8b 45 08             	mov    0x8(%ebp),%eax
   14392:	0f b6 40 18          	movzbl 0x18(%eax),%eax
   14396:	3c 08                	cmp    $0x8,%al
   14398:	75 13                	jne    143ad <_schedule+0x63>
   1439a:	83 ec 0c             	sub    $0xc,%esp
   1439d:	ff 75 08             	pushl  0x8(%ebp)
   143a0:	e8 3a f0 ff ff       	call   133df <_performExit>
   143a5:	83 c4 10             	add    $0x10,%esp
   143a8:	e9 86 00 00 00       	jmp    14433 <_schedule+0xe9>
   143ad:	8b 45 08             	mov    0x8(%ebp),%eax
   143b0:	0f b6 40 19          	movzbl 0x19(%eax),%eax
   143b4:	3c 02                	cmp    $0x2,%al
   143b6:	76 38                	jbe    143f0 <_schedule+0xa6>
   143b8:	83 ec 04             	sub    $0x4,%esp
   143bb:	68 d9 9b 01 00       	push   $0x19bd9
   143c0:	6a 01                	push   $0x1
   143c2:	6a 66                	push   $0x66
   143c4:	68 ab 9b 01 00       	push   $0x19bab
   143c9:	68 30 9c 01 00       	push   $0x19c30
   143ce:	68 b3 9b 01 00       	push   $0x19bb3
   143d3:	68 e0 f8 01 00       	push   $0x1f8e0
   143d8:	e8 d8 d7 ff ff       	call   11bb5 <__sprint>
   143dd:	83 c4 20             	add    $0x20,%esp
   143e0:	83 ec 0c             	sub    $0xc,%esp
   143e3:	68 e0 f8 01 00       	push   $0x1f8e0
   143e8:	e8 a3 e5 ff ff       	call   12990 <_kpanic>
   143ed:	83 c4 10             	add    $0x10,%esp
   143f0:	8b 45 08             	mov    0x8(%ebp),%eax
   143f3:	c6 40 18 02          	movb   $0x2,0x18(%eax)
   143f7:	8b 45 08             	mov    0x8(%ebp),%eax
   143fa:	0f b7 40 14          	movzwl 0x14(%eax),%eax
   143fe:	0f b7 d0             	movzwl %ax,%edx
   14401:	8b 45 08             	mov    0x8(%ebp),%eax
   14404:	0f b6 40 19          	movzbl 0x19(%eax),%eax
   14408:	0f b6 c0             	movzbl %al,%eax
   1440b:	8b 04 85 98 fc 01 00 	mov    0x1fc98(,%eax,4),%eax
   14412:	8b 4d 08             	mov    0x8(%ebp),%ecx
   14415:	0f b6 49 19          	movzbl 0x19(%ecx),%ecx
   14419:	0f b6 d9             	movzbl %cl,%ebx
   1441c:	83 ec 04             	sub    $0x4,%esp
   1441f:	52                   	push   %edx
   14420:	ff 75 08             	pushl  0x8(%ebp)
   14423:	50                   	push   %eax
   14424:	e8 89 f9 ff ff       	call   13db2 <_q_insert>
   14429:	83 c4 10             	add    $0x10,%esp
   1442c:	89 04 9d 88 fc 01 00 	mov    %eax,0x1fc88(,%ebx,4)
   14433:	8b 5d fc             	mov    -0x4(%ebp),%ebx
   14436:	c9                   	leave  
   14437:	c3                   	ret    

00014438 <_dispatch>:
   14438:	55                   	push   %ebp
   14439:	89 e5                	mov    %esp,%ebp
   1443b:	83 ec 18             	sub    $0x18,%esp
   1443e:	c7 45 f0 00 00 00 00 	movl   $0x0,-0x10(%ebp)
   14445:	c7 45 f4 00 00 00 00 	movl   $0x0,-0xc(%ebp)
   1444c:	eb 12                	jmp    14460 <_dispatch+0x28>
   1444e:	8b 45 f4             	mov    -0xc(%ebp),%eax
   14451:	8b 04 85 88 fc 01 00 	mov    0x1fc88(,%eax,4),%eax
   14458:	85 c0                	test   %eax,%eax
   1445a:	75 0c                	jne    14468 <_dispatch+0x30>
   1445c:	83 45 f4 01          	addl   $0x1,-0xc(%ebp)
   14460:	83 7d f4 02          	cmpl   $0x2,-0xc(%ebp)
   14464:	7e e8                	jle    1444e <_dispatch+0x16>
   14466:	eb 01                	jmp    14469 <_dispatch+0x31>
   14468:	90                   	nop
   14469:	83 7d f4 02          	cmpl   $0x2,-0xc(%ebp)
   1446d:	7e 3b                	jle    144aa <_dispatch+0x72>
   1446f:	83 ec 04             	sub    $0x4,%esp
   14472:	68 f1 9b 01 00       	push   $0x19bf1
   14477:	6a 00                	push   $0x0
   14479:	68 94 00 00 00       	push   $0x94
   1447e:	68 ab 9b 01 00       	push   $0x19bab
   14483:	68 3c 9c 01 00       	push   $0x19c3c
   14488:	68 b3 9b 01 00       	push   $0x19bb3
   1448d:	68 e0 f8 01 00       	push   $0x1f8e0
   14492:	e8 1e d7 ff ff       	call   11bb5 <__sprint>
   14497:	83 c4 20             	add    $0x20,%esp
   1449a:	83 ec 0c             	sub    $0xc,%esp
   1449d:	68 e0 f8 01 00       	push   $0x1f8e0
   144a2:	e8 e9 e4 ff ff       	call   12990 <_kpanic>
   144a7:	83 c4 10             	add    $0x10,%esp
   144aa:	8b 45 f4             	mov    -0xc(%ebp),%eax
   144ad:	8b 04 85 98 fc 01 00 	mov    0x1fc98(,%eax,4),%eax
   144b4:	83 ec 08             	sub    $0x8,%esp
   144b7:	8d 55 e8             	lea    -0x18(%ebp),%edx
   144ba:	52                   	push   %edx
   144bb:	50                   	push   %eax
   144bc:	e8 d8 fa ff ff       	call   13f99 <_q_remove>
   144c1:	83 c4 10             	add    $0x10,%esp
   144c4:	84 c0                	test   %al,%al
   144c6:	75 3b                	jne    14503 <_dispatch+0xcb>
   144c8:	83 ec 04             	sub    $0x4,%esp
   144cb:	68 00 9c 01 00       	push   $0x19c00
   144d0:	6a 00                	push   $0x0
   144d2:	68 98 00 00 00       	push   $0x98
   144d7:	68 ab 9b 01 00       	push   $0x19bab
   144dc:	68 3c 9c 01 00       	push   $0x19c3c
   144e1:	68 b3 9b 01 00       	push   $0x19bb3
   144e6:	68 e0 f8 01 00       	push   $0x1f8e0
   144eb:	e8 c5 d6 ff ff       	call   11bb5 <__sprint>
   144f0:	83 c4 20             	add    $0x20,%esp
   144f3:	83 ec 0c             	sub    $0xc,%esp
   144f6:	68 e0 f8 01 00       	push   $0x1f8e0
   144fb:	e8 90 e4 ff ff       	call   12990 <_kpanic>
   14500:	83 c4 10             	add    $0x10,%esp
   14503:	8b 45 f4             	mov    -0xc(%ebp),%eax
   14506:	8b 04 85 88 fc 01 00 	mov    0x1fc88(,%eax,4),%eax
   1450d:	8d 50 ff             	lea    -0x1(%eax),%edx
   14510:	8b 45 f4             	mov    -0xc(%ebp),%eax
   14513:	89 14 85 88 fc 01 00 	mov    %edx,0x1fc88(,%eax,4)
   1451a:	8b 45 ec             	mov    -0x14(%ebp),%eax
   1451d:	89 45 f0             	mov    %eax,-0x10(%ebp)
   14520:	8b 45 f0             	mov    -0x10(%ebp),%eax
   14523:	0f b6 40 18          	movzbl 0x18(%eax),%eax
   14527:	3c 08                	cmp    $0x8,%al
   14529:	75 13                	jne    1453e <_dispatch+0x106>
   1452b:	83 ec 0c             	sub    $0xc,%esp
   1452e:	ff 75 f0             	pushl  -0x10(%ebp)
   14531:	e8 a9 ee ff ff       	call   133df <_performExit>
   14536:	83 c4 10             	add    $0x10,%esp
   14539:	e9 07 ff ff ff       	jmp    14445 <_dispatch+0xd>
   1453e:	8b 45 f0             	mov    -0x10(%ebp),%eax
   14541:	c6 40 18 03          	movb   $0x3,0x18(%eax)
   14545:	8b 45 f0             	mov    -0x10(%ebp),%eax
   14548:	c6 40 1a 03          	movb   $0x3,0x1a(%eax)
   1454c:	8b 45 f0             	mov    -0x10(%ebp),%eax
   1454f:	a3 94 fc 01 00       	mov    %eax,0x1fc94
   14554:	90                   	nop
   14555:	c9                   	leave  
   14556:	c3                   	ret    

00014557 <_sio_isr>:
   14557:	55                   	push   %ebp
   14558:	89 e5                	mov    %esp,%ebp
   1455a:	83 ec 28             	sub    $0x28,%esp
   1455d:	83 ec 0c             	sub    $0xc,%esp
   14560:	68 fa 03 00 00       	push   $0x3fa
   14565:	e8 69 c6 ff ff       	call   10bd3 <__inb>
   1456a:	83 c4 10             	add    $0x10,%esp
   1456d:	83 e0 0f             	and    $0xf,%eax
   14570:	89 45 f0             	mov    %eax,-0x10(%ebp)
   14573:	83 7d f0 0c          	cmpl   $0xc,-0x10(%ebp)
   14577:	0f 87 91 02 00 00    	ja     1480e <_sio_isr+0x2b7>
   1457d:	8b 45 f0             	mov    -0x10(%ebp),%eax
   14580:	c1 e0 02             	shl    $0x2,%eax
   14583:	05 20 9d 01 00       	add    $0x19d20,%eax
   14588:	8b 00                	mov    (%eax),%eax
   1458a:	ff e0                	jmp    *%eax
   1458c:	83 ec 0c             	sub    $0xc,%esp
   1458f:	68 fd 03 00 00       	push   $0x3fd
   14594:	e8 3a c6 ff ff       	call   10bd3 <__inb>
   14599:	83 c4 10             	add    $0x10,%esp
   1459c:	89 45 ec             	mov    %eax,-0x14(%ebp)
   1459f:	83 ec 08             	sub    $0x8,%esp
   145a2:	ff 75 ec             	pushl  -0x14(%ebp)
   145a5:	68 48 9c 01 00       	push   $0x19c48
   145aa:	e8 a4 d0 ff ff       	call   11653 <__cio_printf>
   145af:	83 c4 10             	add    $0x10,%esp
   145b2:	e9 b4 02 00 00       	jmp    1486b <_sio_isr+0x314>
   145b7:	83 ec 0c             	sub    $0xc,%esp
   145ba:	68 f8 03 00 00       	push   $0x3f8
   145bf:	e8 0f c6 ff ff       	call   10bd3 <__inb>
   145c4:	83 c4 10             	add    $0x10,%esp
   145c7:	89 45 f4             	mov    %eax,-0xc(%ebp)
   145ca:	83 7d f4 0d          	cmpl   $0xd,-0xc(%ebp)
   145ce:	75 07                	jne    145d7 <_sio_isr+0x80>
   145d0:	c7 45 f4 0a 00 00 00 	movl   $0xa,-0xc(%ebp)
   145d7:	a1 a4 fc 01 00       	mov    0x1fca4,%eax
   145dc:	83 ec 0c             	sub    $0xc,%esp
   145df:	50                   	push   %eax
   145e0:	e8 7f f7 ff ff       	call   13d64 <_q_length>
   145e5:	83 c4 10             	add    $0x10,%esp
   145e8:	85 c0                	test   %eax,%eax
   145ea:	0f 84 e3 00 00 00    	je     146d3 <_sio_isr+0x17c>
   145f0:	c7 45 d8 00 00 00 00 	movl   $0x0,-0x28(%ebp)
   145f7:	c7 45 dc 00 00 00 00 	movl   $0x0,-0x24(%ebp)
   145fe:	a1 a4 fc 01 00       	mov    0x1fca4,%eax
   14603:	83 ec 08             	sub    $0x8,%esp
   14606:	8d 55 d8             	lea    -0x28(%ebp),%edx
   14609:	52                   	push   %edx
   1460a:	50                   	push   %eax
   1460b:	e8 89 f9 ff ff       	call   13f99 <_q_remove>
   14610:	83 c4 10             	add    $0x10,%esp
   14613:	84 c0                	test   %al,%al
   14615:	75 3b                	jne    14652 <_sio_isr+0xfb>
   14617:	83 ec 04             	sub    $0x4,%esp
   1461a:	68 68 9c 01 00       	push   $0x19c68
   1461f:	6a 00                	push   $0x0
   14621:	68 be 00 00 00       	push   $0xbe
   14626:	68 95 9c 01 00       	push   $0x19c95
   1462b:	68 b0 9d 01 00       	push   $0x19db0
   14630:	68 9b 9c 01 00       	push   $0x19c9b
   14635:	68 e0 f8 01 00       	push   $0x1f8e0
   1463a:	e8 76 d5 ff ff       	call   11bb5 <__sprint>
   1463f:	83 c4 20             	add    $0x20,%esp
   14642:	83 ec 0c             	sub    $0xc,%esp
   14645:	68 e0 f8 01 00       	push   $0x1f8e0
   1464a:	e8 41 e3 ff ff       	call   12990 <_kpanic>
   1464f:	83 c4 10             	add    $0x10,%esp
   14652:	8b 45 dc             	mov    -0x24(%ebp),%eax
   14655:	85 c0                	test   %eax,%eax
   14657:	75 3b                	jne    14694 <_sio_isr+0x13d>
   14659:	83 ec 04             	sub    $0x4,%esp
   1465c:	68 b8 9c 01 00       	push   $0x19cb8
   14661:	6a 00                	push   $0x0
   14663:	68 c1 00 00 00       	push   $0xc1
   14668:	68 95 9c 01 00       	push   $0x19c95
   1466d:	68 b0 9d 01 00       	push   $0x19db0
   14672:	68 9b 9c 01 00       	push   $0x19c9b
   14677:	68 e0 f8 01 00       	push   $0x1f8e0
   1467c:	e8 34 d5 ff ff       	call   11bb5 <__sprint>
   14681:	83 c4 20             	add    $0x20,%esp
   14684:	83 ec 0c             	sub    $0xc,%esp
   14687:	68 e0 f8 01 00       	push   $0x1f8e0
   1468c:	e8 ff e2 ff ff       	call   12990 <_kpanic>
   14691:	83 c4 10             	add    $0x10,%esp
   14694:	8b 45 dc             	mov    -0x24(%ebp),%eax
   14697:	89 45 e8             	mov    %eax,-0x18(%ebp)
   1469a:	8b 45 e8             	mov    -0x18(%ebp),%eax
   1469d:	8b 00                	mov    (%eax),%eax
   1469f:	83 c0 48             	add    $0x48,%eax
   146a2:	83 c0 08             	add    $0x8,%eax
   146a5:	8b 00                	mov    (%eax),%eax
   146a7:	89 45 e4             	mov    %eax,-0x1c(%ebp)
   146aa:	8b 45 f4             	mov    -0xc(%ebp),%eax
   146ad:	89 c2                	mov    %eax,%edx
   146af:	8b 45 e4             	mov    -0x1c(%ebp),%eax
   146b2:	88 10                	mov    %dl,(%eax)
   146b4:	8b 45 e8             	mov    -0x18(%ebp),%eax
   146b7:	8b 00                	mov    (%eax),%eax
   146b9:	c7 40 30 01 00 00 00 	movl   $0x1,0x30(%eax)
   146c0:	83 ec 0c             	sub    $0xc,%esp
   146c3:	ff 75 e8             	pushl  -0x18(%ebp)
   146c6:	e8 7f fc ff ff       	call   1434a <_schedule>
   146cb:	83 c4 10             	add    $0x10,%esp
   146ce:	e9 97 01 00 00       	jmp    1486a <_sio_isr+0x313>
   146d3:	a1 48 e8 01 00       	mov    0x1e848,%eax
   146d8:	3d ff 07 00 00       	cmp    $0x7ff,%eax
   146dd:	0f 87 87 01 00 00    	ja     1486a <_sio_isr+0x313>
   146e3:	a1 40 e8 01 00       	mov    0x1e840,%eax
   146e8:	8d 50 01             	lea    0x1(%eax),%edx
   146eb:	89 15 40 e8 01 00    	mov    %edx,0x1e840
   146f1:	8b 55 f4             	mov    -0xc(%ebp),%edx
   146f4:	88 10                	mov    %dl,(%eax)
   146f6:	a1 48 e8 01 00       	mov    0x1e848,%eax
   146fb:	83 c0 01             	add    $0x1,%eax
   146fe:	a3 48 e8 01 00       	mov    %eax,0x1e848
   14703:	e9 62 01 00 00       	jmp    1486a <_sio_isr+0x313>
   14708:	83 ec 0c             	sub    $0xc,%esp
   1470b:	68 f8 03 00 00       	push   $0x3f8
   14710:	e8 be c4 ff ff       	call   10bd3 <__inb>
   14715:	83 c4 10             	add    $0x10,%esp
   14718:	89 45 f4             	mov    %eax,-0xc(%ebp)
   1471b:	83 ec 08             	sub    $0x8,%esp
   1471e:	ff 75 f4             	pushl  -0xc(%ebp)
   14721:	68 c0 9c 01 00       	push   $0x19cc0
   14726:	e8 28 cf ff ff       	call   11653 <__cio_printf>
   1472b:	83 c4 10             	add    $0x10,%esp
   1472e:	e9 38 01 00 00       	jmp    1486b <_sio_isr+0x314>
   14733:	a1 6c f0 01 00       	mov    0x1f06c,%eax
   14738:	85 c0                	test   %eax,%eax
   1473a:	74 5c                	je     14798 <_sio_isr+0x241>
   1473c:	a1 68 f0 01 00       	mov    0x1f068,%eax
   14741:	85 c0                	test   %eax,%eax
   14743:	74 53                	je     14798 <_sio_isr+0x241>
   14745:	a1 64 f0 01 00       	mov    0x1f064,%eax
   1474a:	0f b6 00             	movzbl (%eax),%eax
   1474d:	0f be c0             	movsbl %al,%eax
   14750:	83 ec 08             	sub    $0x8,%esp
   14753:	50                   	push   %eax
   14754:	68 f8 03 00 00       	push   $0x3f8
   14759:	e8 9a c4 ff ff       	call   10bf8 <__outb>
   1475e:	83 c4 10             	add    $0x10,%esp
   14761:	a1 64 f0 01 00       	mov    0x1f064,%eax
   14766:	83 c0 01             	add    $0x1,%eax
   14769:	a3 64 f0 01 00       	mov    %eax,0x1f064
   1476e:	a1 64 f0 01 00       	mov    0x1f064,%eax
   14773:	ba 60 f0 01 00       	mov    $0x1f060,%edx
   14778:	39 d0                	cmp    %edx,%eax
   1477a:	72 0a                	jb     14786 <_sio_isr+0x22f>
   1477c:	c7 05 64 f0 01 00 60 	movl   $0x1e860,0x1f064
   14783:	e8 01 00 
   14786:	a1 68 f0 01 00       	mov    0x1f068,%eax
   1478b:	83 e8 01             	sub    $0x1,%eax
   1478e:	a3 68 f0 01 00       	mov    %eax,0x1f068
   14793:	e9 d3 00 00 00       	jmp    1486b <_sio_isr+0x314>
   14798:	c7 05 68 f0 01 00 00 	movl   $0x0,0x1f068
   1479f:	00 00 00 
   147a2:	c7 05 64 f0 01 00 60 	movl   $0x1e860,0x1f064
   147a9:	e8 01 00 
   147ac:	a1 64 f0 01 00       	mov    0x1f064,%eax
   147b1:	a3 60 f0 01 00       	mov    %eax,0x1f060
   147b6:	c7 05 6c f0 01 00 00 	movl   $0x0,0x1f06c
   147bd:	00 00 00 
   147c0:	83 ec 0c             	sub    $0xc,%esp
   147c3:	6a 01                	push   $0x1
   147c5:	e8 9c 02 00 00       	call   14a66 <_sio_disable>
   147ca:	83 c4 10             	add    $0x10,%esp
   147cd:	e9 99 00 00 00       	jmp    1486b <_sio_isr+0x314>
   147d2:	83 ec 08             	sub    $0x8,%esp
   147d5:	6a 20                	push   $0x20
   147d7:	6a 20                	push   $0x20
   147d9:	e8 1a c4 ff ff       	call   10bf8 <__outb>
   147de:	83 c4 10             	add    $0x10,%esp
   147e1:	e9 8a 00 00 00       	jmp    14870 <_sio_isr+0x319>
   147e6:	83 ec 0c             	sub    $0xc,%esp
   147e9:	68 fe 03 00 00       	push   $0x3fe
   147ee:	e8 e0 c3 ff ff       	call   10bd3 <__inb>
   147f3:	83 c4 10             	add    $0x10,%esp
   147f6:	89 45 e0             	mov    %eax,-0x20(%ebp)
   147f9:	83 ec 08             	sub    $0x8,%esp
   147fc:	ff 75 e0             	pushl  -0x20(%ebp)
   147ff:	68 e4 9c 01 00       	push   $0x19ce4
   14804:	e8 4a ce ff ff       	call   11653 <__cio_printf>
   14809:	83 c4 10             	add    $0x10,%esp
   1480c:	eb 5d                	jmp    1486b <_sio_isr+0x314>
   1480e:	8b 45 f0             	mov    -0x10(%ebp),%eax
   14811:	0f b6 c0             	movzbl %al,%eax
   14814:	83 ec 04             	sub    $0x4,%esp
   14817:	50                   	push   %eax
   14818:	68 05 9d 01 00       	push   $0x19d05
   1481d:	68 e0 fa 01 00       	push   $0x1fae0
   14822:	e8 8e d3 ff ff       	call   11bb5 <__sprint>
   14827:	83 c4 10             	add    $0x10,%esp
   1482a:	83 ec 04             	sub    $0x4,%esp
   1482d:	68 18 9d 01 00       	push   $0x19d18
   14832:	6a 00                	push   $0x0
   14834:	68 19 01 00 00       	push   $0x119
   14839:	68 95 9c 01 00       	push   $0x19c95
   1483e:	68 b0 9d 01 00       	push   $0x19db0
   14843:	68 9b 9c 01 00       	push   $0x19c9b
   14848:	68 e0 f8 01 00       	push   $0x1f8e0
   1484d:	e8 63 d3 ff ff       	call   11bb5 <__sprint>
   14852:	83 c4 20             	add    $0x20,%esp
   14855:	83 ec 0c             	sub    $0xc,%esp
   14858:	68 e0 f8 01 00       	push   $0x1f8e0
   1485d:	e8 2e e1 ff ff       	call   12990 <_kpanic>
   14862:	83 c4 10             	add    $0x10,%esp
   14865:	e9 f3 fc ff ff       	jmp    1455d <_sio_isr+0x6>
   1486a:	90                   	nop
   1486b:	e9 ed fc ff ff       	jmp    1455d <_sio_isr+0x6>
   14870:	c9                   	leave  
   14871:	c3                   	ret    

00014872 <_sio_init>:
   14872:	55                   	push   %ebp
   14873:	89 e5                	mov    %esp,%ebp
   14875:	83 ec 08             	sub    $0x8,%esp
   14878:	83 ec 0c             	sub    $0xc,%esp
   1487b:	68 54 9d 01 00       	push   $0x19d54
   14880:	e8 54 c7 ff ff       	call   10fd9 <__cio_puts>
   14885:	83 c4 10             	add    $0x10,%esp
   14888:	83 ec 08             	sub    $0x8,%esp
   1488b:	68 00 08 00 00       	push   $0x800
   14890:	68 40 e0 01 00       	push   $0x1e040
   14895:	e8 59 d1 ff ff       	call   119f3 <__memclr>
   1489a:	83 c4 10             	add    $0x10,%esp
   1489d:	c7 05 44 e8 01 00 40 	movl   $0x1e040,0x1e844
   148a4:	e0 01 00 
   148a7:	a1 44 e8 01 00       	mov    0x1e844,%eax
   148ac:	a3 40 e8 01 00       	mov    %eax,0x1e840
   148b1:	c7 05 48 e8 01 00 00 	movl   $0x0,0x1e848
   148b8:	00 00 00 
   148bb:	83 ec 08             	sub    $0x8,%esp
   148be:	68 00 08 00 00       	push   $0x800
   148c3:	68 60 e8 01 00       	push   $0x1e860
   148c8:	e8 26 d1 ff ff       	call   119f3 <__memclr>
   148cd:	83 c4 10             	add    $0x10,%esp
   148d0:	c7 05 64 f0 01 00 60 	movl   $0x1e860,0x1f064
   148d7:	e8 01 00 
   148da:	a1 64 f0 01 00       	mov    0x1f064,%eax
   148df:	a3 60 f0 01 00       	mov    %eax,0x1f060
   148e4:	c7 05 68 f0 01 00 00 	movl   $0x0,0x1f068
   148eb:	00 00 00 
   148ee:	c7 05 6c f0 01 00 00 	movl   $0x0,0x1f06c
   148f5:	00 00 00 
   148f8:	83 ec 0c             	sub    $0xc,%esp
   148fb:	6a 00                	push   $0x0
   148fd:	e8 a0 f3 ff ff       	call   13ca2 <_q_alloc>
   14902:	83 c4 10             	add    $0x10,%esp
   14905:	a3 a4 fc 01 00       	mov    %eax,0x1fca4
   1490a:	83 ec 08             	sub    $0x8,%esp
   1490d:	6a 20                	push   $0x20
   1490f:	68 fa 03 00 00       	push   $0x3fa
   14914:	e8 df c2 ff ff       	call   10bf8 <__outb>
   14919:	83 c4 10             	add    $0x10,%esp
   1491c:	83 ec 08             	sub    $0x8,%esp
   1491f:	6a 00                	push   $0x0
   14921:	68 fa 03 00 00       	push   $0x3fa
   14926:	e8 cd c2 ff ff       	call   10bf8 <__outb>
   1492b:	83 c4 10             	add    $0x10,%esp
   1492e:	83 ec 08             	sub    $0x8,%esp
   14931:	6a 01                	push   $0x1
   14933:	68 fa 03 00 00       	push   $0x3fa
   14938:	e8 bb c2 ff ff       	call   10bf8 <__outb>
   1493d:	83 c4 10             	add    $0x10,%esp
   14940:	83 ec 08             	sub    $0x8,%esp
   14943:	6a 03                	push   $0x3
   14945:	68 fa 03 00 00       	push   $0x3fa
   1494a:	e8 a9 c2 ff ff       	call   10bf8 <__outb>
   1494f:	83 c4 10             	add    $0x10,%esp
   14952:	83 ec 08             	sub    $0x8,%esp
   14955:	6a 07                	push   $0x7
   14957:	68 fa 03 00 00       	push   $0x3fa
   1495c:	e8 97 c2 ff ff       	call   10bf8 <__outb>
   14961:	83 c4 10             	add    $0x10,%esp
   14964:	83 ec 08             	sub    $0x8,%esp
   14967:	6a 00                	push   $0x0
   14969:	68 f9 03 00 00       	push   $0x3f9
   1496e:	e8 85 c2 ff ff       	call   10bf8 <__outb>
   14973:	83 c4 10             	add    $0x10,%esp
   14976:	c6 05 70 f0 01 00 00 	movb   $0x0,0x1f070
   1497d:	83 ec 08             	sub    $0x8,%esp
   14980:	68 80 00 00 00       	push   $0x80
   14985:	68 fb 03 00 00       	push   $0x3fb
   1498a:	e8 69 c2 ff ff       	call   10bf8 <__outb>
   1498f:	83 c4 10             	add    $0x10,%esp
   14992:	83 ec 08             	sub    $0x8,%esp
   14995:	6a 0c                	push   $0xc
   14997:	68 f8 03 00 00       	push   $0x3f8
   1499c:	e8 57 c2 ff ff       	call   10bf8 <__outb>
   149a1:	83 c4 10             	add    $0x10,%esp
   149a4:	83 ec 08             	sub    $0x8,%esp
   149a7:	6a 00                	push   $0x0
   149a9:	68 f9 03 00 00       	push   $0x3f9
   149ae:	e8 45 c2 ff ff       	call   10bf8 <__outb>
   149b3:	83 c4 10             	add    $0x10,%esp
   149b6:	83 ec 08             	sub    $0x8,%esp
   149b9:	6a 03                	push   $0x3
   149bb:	68 fb 03 00 00       	push   $0x3fb
   149c0:	e8 33 c2 ff ff       	call   10bf8 <__outb>
   149c5:	83 c4 10             	add    $0x10,%esp
   149c8:	83 ec 08             	sub    $0x8,%esp
   149cb:	6a 0b                	push   $0xb
   149cd:	68 fc 03 00 00       	push   $0x3fc
   149d2:	e8 21 c2 ff ff       	call   10bf8 <__outb>
   149d7:	83 c4 10             	add    $0x10,%esp
   149da:	83 ec 08             	sub    $0x8,%esp
   149dd:	68 57 45 01 00       	push   $0x14557
   149e2:	6a 24                	push   $0x24
   149e4:	e8 d0 d8 ff ff       	call   122b9 <__install_isr>
   149e9:	83 c4 10             	add    $0x10,%esp
   149ec:	90                   	nop
   149ed:	c9                   	leave  
   149ee:	c3                   	ret    

000149ef <_sio_enable>:
   149ef:	55                   	push   %ebp
   149f0:	89 e5                	mov    %esp,%ebp
   149f2:	83 ec 28             	sub    $0x28,%esp
   149f5:	8b 45 08             	mov    0x8(%ebp),%eax
   149f8:	88 45 e4             	mov    %al,-0x1c(%ebp)
   149fb:	0f b6 05 70 f0 01 00 	movzbl 0x1f070,%eax
   14a02:	88 45 f7             	mov    %al,-0x9(%ebp)
   14a05:	0f b6 45 e4          	movzbl -0x1c(%ebp),%eax
   14a09:	83 e0 01             	and    $0x1,%eax
   14a0c:	85 c0                	test   %eax,%eax
   14a0e:	74 0f                	je     14a1f <_sio_enable+0x30>
   14a10:	0f b6 05 70 f0 01 00 	movzbl 0x1f070,%eax
   14a17:	83 c8 02             	or     $0x2,%eax
   14a1a:	a2 70 f0 01 00       	mov    %al,0x1f070
   14a1f:	0f b6 45 e4          	movzbl -0x1c(%ebp),%eax
   14a23:	83 e0 02             	and    $0x2,%eax
   14a26:	85 c0                	test   %eax,%eax
   14a28:	74 0f                	je     14a39 <_sio_enable+0x4a>
   14a2a:	0f b6 05 70 f0 01 00 	movzbl 0x1f070,%eax
   14a31:	83 c8 01             	or     $0x1,%eax
   14a34:	a2 70 f0 01 00       	mov    %al,0x1f070
   14a39:	0f b6 05 70 f0 01 00 	movzbl 0x1f070,%eax
   14a40:	38 45 f7             	cmp    %al,-0x9(%ebp)
   14a43:	74 1b                	je     14a60 <_sio_enable+0x71>
   14a45:	0f b6 05 70 f0 01 00 	movzbl 0x1f070,%eax
   14a4c:	0f b6 c0             	movzbl %al,%eax
   14a4f:	83 ec 08             	sub    $0x8,%esp
   14a52:	50                   	push   %eax
   14a53:	68 f9 03 00 00       	push   $0x3f9
   14a58:	e8 9b c1 ff ff       	call   10bf8 <__outb>
   14a5d:	83 c4 10             	add    $0x10,%esp
   14a60:	0f b6 45 f7          	movzbl -0x9(%ebp),%eax
   14a64:	c9                   	leave  
   14a65:	c3                   	ret    

00014a66 <_sio_disable>:
   14a66:	55                   	push   %ebp
   14a67:	89 e5                	mov    %esp,%ebp
   14a69:	83 ec 28             	sub    $0x28,%esp
   14a6c:	8b 45 08             	mov    0x8(%ebp),%eax
   14a6f:	88 45 e4             	mov    %al,-0x1c(%ebp)
   14a72:	0f b6 05 70 f0 01 00 	movzbl 0x1f070,%eax
   14a79:	88 45 f7             	mov    %al,-0x9(%ebp)
   14a7c:	0f b6 45 e4          	movzbl -0x1c(%ebp),%eax
   14a80:	83 e0 01             	and    $0x1,%eax
   14a83:	85 c0                	test   %eax,%eax
   14a85:	74 0f                	je     14a96 <_sio_disable+0x30>
   14a87:	0f b6 05 70 f0 01 00 	movzbl 0x1f070,%eax
   14a8e:	83 e0 fd             	and    $0xfffffffd,%eax
   14a91:	a2 70 f0 01 00       	mov    %al,0x1f070
   14a96:	0f b6 45 e4          	movzbl -0x1c(%ebp),%eax
   14a9a:	83 e0 02             	and    $0x2,%eax
   14a9d:	85 c0                	test   %eax,%eax
   14a9f:	74 0f                	je     14ab0 <_sio_disable+0x4a>
   14aa1:	0f b6 05 70 f0 01 00 	movzbl 0x1f070,%eax
   14aa8:	83 e0 fe             	and    $0xfffffffe,%eax
   14aab:	a2 70 f0 01 00       	mov    %al,0x1f070
   14ab0:	0f b6 05 70 f0 01 00 	movzbl 0x1f070,%eax
   14ab7:	38 45 f7             	cmp    %al,-0x9(%ebp)
   14aba:	74 1b                	je     14ad7 <_sio_disable+0x71>
   14abc:	0f b6 05 70 f0 01 00 	movzbl 0x1f070,%eax
   14ac3:	0f b6 c0             	movzbl %al,%eax
   14ac6:	83 ec 08             	sub    $0x8,%esp
   14ac9:	50                   	push   %eax
   14aca:	68 f9 03 00 00       	push   $0x3f9
   14acf:	e8 24 c1 ff ff       	call   10bf8 <__outb>
   14ad4:	83 c4 10             	add    $0x10,%esp
   14ad7:	0f b6 45 f7          	movzbl -0x9(%ebp),%eax
   14adb:	c9                   	leave  
   14adc:	c3                   	ret    

00014add <_sio_inq_length>:
   14add:	55                   	push   %ebp
   14ade:	89 e5                	mov    %esp,%ebp
   14ae0:	a1 48 e8 01 00       	mov    0x1e848,%eax
   14ae5:	5d                   	pop    %ebp
   14ae6:	c3                   	ret    

00014ae7 <_sio_readc>:
   14ae7:	55                   	push   %ebp
   14ae8:	89 e5                	mov    %esp,%ebp
   14aea:	83 ec 10             	sub    $0x10,%esp
   14aed:	c7 45 fc ff ff ff ff 	movl   $0xffffffff,-0x4(%ebp)
   14af4:	a1 48 e8 01 00       	mov    0x1e848,%eax
   14af9:	85 c0                	test   %eax,%eax
   14afb:	74 46                	je     14b43 <_sio_readc+0x5c>
   14afd:	a1 44 e8 01 00       	mov    0x1e844,%eax
   14b02:	8d 50 01             	lea    0x1(%eax),%edx
   14b05:	89 15 44 e8 01 00    	mov    %edx,0x1e844
   14b0b:	0f b6 00             	movzbl (%eax),%eax
   14b0e:	0f be c0             	movsbl %al,%eax
   14b11:	25 ff 00 00 00       	and    $0xff,%eax
   14b16:	89 45 fc             	mov    %eax,-0x4(%ebp)
   14b19:	a1 48 e8 01 00       	mov    0x1e848,%eax
   14b1e:	83 e8 01             	sub    $0x1,%eax
   14b21:	a3 48 e8 01 00       	mov    %eax,0x1e848
   14b26:	a1 48 e8 01 00       	mov    0x1e848,%eax
   14b2b:	85 c0                	test   %eax,%eax
   14b2d:	75 14                	jne    14b43 <_sio_readc+0x5c>
   14b2f:	c7 05 44 e8 01 00 40 	movl   $0x1e040,0x1e844
   14b36:	e0 01 00 
   14b39:	a1 44 e8 01 00       	mov    0x1e844,%eax
   14b3e:	a3 40 e8 01 00       	mov    %eax,0x1e840
   14b43:	8b 45 fc             	mov    -0x4(%ebp),%eax
   14b46:	c9                   	leave  
   14b47:	c3                   	ret    

00014b48 <_sio_reads>:
   14b48:	55                   	push   %ebp
   14b49:	89 e5                	mov    %esp,%ebp
   14b4b:	83 ec 10             	sub    $0x10,%esp
   14b4e:	8b 45 08             	mov    0x8(%ebp),%eax
   14b51:	89 45 fc             	mov    %eax,-0x4(%ebp)
   14b54:	c7 45 f8 00 00 00 00 	movl   $0x0,-0x8(%ebp)
   14b5b:	a1 48 e8 01 00       	mov    0x1e848,%eax
   14b60:	85 c0                	test   %eax,%eax
   14b62:	75 4c                	jne    14bb0 <_sio_reads+0x68>
   14b64:	b8 00 00 00 00       	mov    $0x0,%eax
   14b69:	eb 76                	jmp    14be1 <_sio_reads+0x99>
   14b6b:	8b 15 44 e8 01 00    	mov    0x1e844,%edx
   14b71:	8d 42 01             	lea    0x1(%edx),%eax
   14b74:	a3 44 e8 01 00       	mov    %eax,0x1e844
   14b79:	8b 45 fc             	mov    -0x4(%ebp),%eax
   14b7c:	8d 48 01             	lea    0x1(%eax),%ecx
   14b7f:	89 4d fc             	mov    %ecx,-0x4(%ebp)
   14b82:	0f b6 12             	movzbl (%edx),%edx
   14b85:	88 10                	mov    %dl,(%eax)
   14b87:	a1 44 e8 01 00       	mov    0x1e844,%eax
   14b8c:	ba 40 e8 01 00       	mov    $0x1e840,%edx
   14b91:	39 d0                	cmp    %edx,%eax
   14b93:	76 0a                	jbe    14b9f <_sio_reads+0x57>
   14b95:	c7 05 44 e8 01 00 40 	movl   $0x1e040,0x1e844
   14b9c:	e0 01 00 
   14b9f:	a1 48 e8 01 00       	mov    0x1e848,%eax
   14ba4:	83 e8 01             	sub    $0x1,%eax
   14ba7:	a3 48 e8 01 00       	mov    %eax,0x1e848
   14bac:	83 45 f8 01          	addl   $0x1,-0x8(%ebp)
   14bb0:	a1 48 e8 01 00       	mov    0x1e848,%eax
   14bb5:	85 c0                	test   %eax,%eax
   14bb7:	74 08                	je     14bc1 <_sio_reads+0x79>
   14bb9:	8b 45 f8             	mov    -0x8(%ebp),%eax
   14bbc:	3b 45 0c             	cmp    0xc(%ebp),%eax
   14bbf:	7c aa                	jl     14b6b <_sio_reads+0x23>
   14bc1:	a1 48 e8 01 00       	mov    0x1e848,%eax
   14bc6:	85 c0                	test   %eax,%eax
   14bc8:	75 14                	jne    14bde <_sio_reads+0x96>
   14bca:	c7 05 44 e8 01 00 40 	movl   $0x1e040,0x1e844
   14bd1:	e0 01 00 
   14bd4:	a1 44 e8 01 00       	mov    0x1e844,%eax
   14bd9:	a3 40 e8 01 00       	mov    %eax,0x1e840
   14bde:	8b 45 f8             	mov    -0x8(%ebp),%eax
   14be1:	c9                   	leave  
   14be2:	c3                   	ret    

00014be3 <_sio_writec>:
   14be3:	55                   	push   %ebp
   14be4:	89 e5                	mov    %esp,%ebp
   14be6:	83 ec 08             	sub    $0x8,%esp
   14be9:	83 7d 08 0a          	cmpl   $0xa,0x8(%ebp)
   14bed:	75 0d                	jne    14bfc <_sio_writec+0x19>
   14bef:	83 ec 0c             	sub    $0xc,%esp
   14bf2:	6a 0d                	push   $0xd
   14bf4:	e8 ea ff ff ff       	call   14be3 <_sio_writec>
   14bf9:	83 c4 10             	add    $0x10,%esp
   14bfc:	a1 6c f0 01 00       	mov    0x1f06c,%eax
   14c01:	85 c0                	test   %eax,%eax
   14c03:	74 22                	je     14c27 <_sio_writec+0x44>
   14c05:	a1 60 f0 01 00       	mov    0x1f060,%eax
   14c0a:	8d 50 01             	lea    0x1(%eax),%edx
   14c0d:	89 15 60 f0 01 00    	mov    %edx,0x1f060
   14c13:	8b 55 08             	mov    0x8(%ebp),%edx
   14c16:	88 10                	mov    %dl,(%eax)
   14c18:	a1 68 f0 01 00       	mov    0x1f068,%eax
   14c1d:	83 c0 01             	add    $0x1,%eax
   14c20:	a3 68 f0 01 00       	mov    %eax,0x1f068
   14c25:	eb 2a                	jmp    14c51 <_sio_writec+0x6e>
   14c27:	c7 05 6c f0 01 00 01 	movl   $0x1,0x1f06c
   14c2e:	00 00 00 
   14c31:	83 ec 08             	sub    $0x8,%esp
   14c34:	ff 75 08             	pushl  0x8(%ebp)
   14c37:	68 f8 03 00 00       	push   $0x3f8
   14c3c:	e8 b7 bf ff ff       	call   10bf8 <__outb>
   14c41:	83 c4 10             	add    $0x10,%esp
   14c44:	83 ec 0c             	sub    $0xc,%esp
   14c47:	6a 01                	push   $0x1
   14c49:	e8 a1 fd ff ff       	call   149ef <_sio_enable>
   14c4e:	83 c4 10             	add    $0x10,%esp
   14c51:	c9                   	leave  
   14c52:	c3                   	ret    

00014c53 <_sio_write>:
   14c53:	55                   	push   %ebp
   14c54:	89 e5                	mov    %esp,%ebp
   14c56:	83 ec 18             	sub    $0x18,%esp
   14c59:	8b 45 08             	mov    0x8(%ebp),%eax
   14c5c:	0f b6 00             	movzbl (%eax),%eax
   14c5f:	0f be c0             	movsbl %al,%eax
   14c62:	89 45 ec             	mov    %eax,-0x14(%ebp)
   14c65:	8b 45 08             	mov    0x8(%ebp),%eax
   14c68:	89 45 f4             	mov    %eax,-0xc(%ebp)
   14c6b:	c7 45 f0 00 00 00 00 	movl   $0x0,-0x10(%ebp)
   14c72:	a1 6c f0 01 00       	mov    0x1f06c,%eax
   14c77:	85 c0                	test   %eax,%eax
   14c79:	75 4f                	jne    14cca <_sio_write+0x77>
   14c7b:	83 45 f4 01          	addl   $0x1,-0xc(%ebp)
   14c7f:	83 45 f0 01          	addl   $0x1,-0x10(%ebp)
   14c83:	eb 45                	jmp    14cca <_sio_write+0x77>
   14c85:	8b 55 f4             	mov    -0xc(%ebp),%edx
   14c88:	8d 42 01             	lea    0x1(%edx),%eax
   14c8b:	89 45 f4             	mov    %eax,-0xc(%ebp)
   14c8e:	a1 60 f0 01 00       	mov    0x1f060,%eax
   14c93:	8d 48 01             	lea    0x1(%eax),%ecx
   14c96:	89 0d 60 f0 01 00    	mov    %ecx,0x1f060
   14c9c:	0f b6 12             	movzbl (%edx),%edx
   14c9f:	88 10                	mov    %dl,(%eax)
   14ca1:	a1 60 f0 01 00       	mov    0x1f060,%eax
   14ca6:	ba 60 f0 01 00       	mov    $0x1f060,%edx
   14cab:	39 d0                	cmp    %edx,%eax
   14cad:	72 0a                	jb     14cb9 <_sio_write+0x66>
   14caf:	c7 05 60 f0 01 00 60 	movl   $0x1e860,0x1f060
   14cb6:	e8 01 00 
   14cb9:	a1 68 f0 01 00       	mov    0x1f068,%eax
   14cbe:	83 c0 01             	add    $0x1,%eax
   14cc1:	a3 68 f0 01 00       	mov    %eax,0x1f068
   14cc6:	83 45 f0 01          	addl   $0x1,-0x10(%ebp)
   14cca:	8b 45 f0             	mov    -0x10(%ebp),%eax
   14ccd:	3b 45 0c             	cmp    0xc(%ebp),%eax
   14cd0:	7d 0c                	jge    14cde <_sio_write+0x8b>
   14cd2:	a1 68 f0 01 00       	mov    0x1f068,%eax
   14cd7:	3d ff 07 00 00       	cmp    $0x7ff,%eax
   14cdc:	76 a7                	jbe    14c85 <_sio_write+0x32>
   14cde:	a1 6c f0 01 00       	mov    0x1f06c,%eax
   14ce3:	85 c0                	test   %eax,%eax
   14ce5:	75 0e                	jne    14cf5 <_sio_write+0xa2>
   14ce7:	83 ec 0c             	sub    $0xc,%esp
   14cea:	ff 75 ec             	pushl  -0x14(%ebp)
   14ced:	e8 f1 fe ff ff       	call   14be3 <_sio_writec>
   14cf2:	83 c4 10             	add    $0x10,%esp
   14cf5:	8b 45 f0             	mov    -0x10(%ebp),%eax
   14cf8:	c9                   	leave  
   14cf9:	c3                   	ret    

00014cfa <_sio_puts>:
   14cfa:	55                   	push   %ebp
   14cfb:	89 e5                	mov    %esp,%ebp
   14cfd:	83 ec 18             	sub    $0x18,%esp
   14d00:	c7 45 f4 00 00 00 00 	movl   $0x0,-0xc(%ebp)
   14d07:	eb 1f                	jmp    14d28 <_sio_puts+0x2e>
   14d09:	8b 45 08             	mov    0x8(%ebp),%eax
   14d0c:	8d 50 01             	lea    0x1(%eax),%edx
   14d0f:	89 55 08             	mov    %edx,0x8(%ebp)
   14d12:	0f b6 00             	movzbl (%eax),%eax
   14d15:	0f be c0             	movsbl %al,%eax
   14d18:	83 ec 0c             	sub    $0xc,%esp
   14d1b:	50                   	push   %eax
   14d1c:	e8 c2 fe ff ff       	call   14be3 <_sio_writec>
   14d21:	83 c4 10             	add    $0x10,%esp
   14d24:	83 45 f4 01          	addl   $0x1,-0xc(%ebp)
   14d28:	8b 45 08             	mov    0x8(%ebp),%eax
   14d2b:	0f b6 00             	movzbl (%eax),%eax
   14d2e:	84 c0                	test   %al,%al
   14d30:	75 d7                	jne    14d09 <_sio_puts+0xf>
   14d32:	8b 45 f4             	mov    -0xc(%ebp),%eax
   14d35:	c9                   	leave  
   14d36:	c3                   	ret    

00014d37 <_sio_dump>:
   14d37:	55                   	push   %ebp
   14d38:	89 e5                	mov    %esp,%ebp
   14d3a:	57                   	push   %edi
   14d3b:	56                   	push   %esi
   14d3c:	53                   	push   %ebx
   14d3d:	83 ec 2c             	sub    $0x2c,%esp
   14d40:	8b 45 08             	mov    0x8(%ebp),%eax
   14d43:	88 45 d4             	mov    %al,-0x2c(%ebp)
   14d46:	8b 0d 68 f0 01 00    	mov    0x1f068,%ecx
   14d4c:	8b 15 48 e8 01 00    	mov    0x1e848,%edx
   14d52:	0f b6 05 70 f0 01 00 	movzbl 0x1f070,%eax
   14d59:	0f b6 c0             	movzbl %al,%eax
   14d5c:	83 e0 01             	and    $0x1,%eax
   14d5f:	85 c0                	test   %eax,%eax
   14d61:	74 07                	je     14d6a <_sio_dump+0x33>
   14d63:	bf 52 00 00 00       	mov    $0x52,%edi
   14d68:	eb 05                	jmp    14d6f <_sio_dump+0x38>
   14d6a:	bf 72 00 00 00       	mov    $0x72,%edi
   14d6f:	0f b6 05 70 f0 01 00 	movzbl 0x1f070,%eax
   14d76:	0f b6 c0             	movzbl %al,%eax
   14d79:	83 e0 02             	and    $0x2,%eax
   14d7c:	85 c0                	test   %eax,%eax
   14d7e:	74 07                	je     14d87 <_sio_dump+0x50>
   14d80:	be 54 00 00 00       	mov    $0x54,%esi
   14d85:	eb 05                	jmp    14d8c <_sio_dump+0x55>
   14d87:	be 74 00 00 00       	mov    $0x74,%esi
   14d8c:	a1 6c f0 01 00       	mov    0x1f06c,%eax
   14d91:	85 c0                	test   %eax,%eax
   14d93:	74 07                	je     14d9c <_sio_dump+0x65>
   14d95:	bb 2a 00 00 00       	mov    $0x2a,%ebx
   14d9a:	eb 05                	jmp    14da1 <_sio_dump+0x6a>
   14d9c:	bb 2e 00 00 00       	mov    $0x2e,%ebx
   14da1:	0f b6 05 70 f0 01 00 	movzbl 0x1f070,%eax
   14da8:	0f b6 c0             	movzbl %al,%eax
   14dab:	83 ec 0c             	sub    $0xc,%esp
   14dae:	51                   	push   %ecx
   14daf:	52                   	push   %edx
   14db0:	57                   	push   %edi
   14db1:	56                   	push   %esi
   14db2:	53                   	push   %ebx
   14db3:	50                   	push   %eax
   14db4:	68 5c 9d 01 00       	push   $0x19d5c
   14db9:	6a 00                	push   $0x0
   14dbb:	6a 30                	push   $0x30
   14dbd:	e8 71 c8 ff ff       	call   11633 <__cio_printf_at>
   14dc2:	83 c4 30             	add    $0x30,%esp
   14dc5:	80 7d d4 00          	cmpb   $0x0,-0x2c(%ebp)
   14dc9:	0f 84 dc 00 00 00    	je     14eab <_sio_dump+0x174>
   14dcf:	a1 48 e8 01 00       	mov    0x1e848,%eax
   14dd4:	85 c0                	test   %eax,%eax
   14dd6:	74 5c                	je     14e34 <_sio_dump+0xfd>
   14dd8:	83 ec 0c             	sub    $0xc,%esp
   14ddb:	68 7f 9d 01 00       	push   $0x19d7f
   14de0:	e8 f4 c1 ff ff       	call   10fd9 <__cio_puts>
   14de5:	83 c4 10             	add    $0x10,%esp
   14de8:	a1 44 e8 01 00       	mov    0x1e844,%eax
   14ded:	89 45 e0             	mov    %eax,-0x20(%ebp)
   14df0:	c7 45 e4 00 00 00 00 	movl   $0x0,-0x1c(%ebp)
   14df7:	eb 1f                	jmp    14e18 <_sio_dump+0xe1>
   14df9:	8b 45 e0             	mov    -0x20(%ebp),%eax
   14dfc:	8d 50 01             	lea    0x1(%eax),%edx
   14dff:	89 55 e0             	mov    %edx,-0x20(%ebp)
   14e02:	0f b6 00             	movzbl (%eax),%eax
   14e05:	0f be c0             	movsbl %al,%eax
   14e08:	83 ec 0c             	sub    $0xc,%esp
   14e0b:	50                   	push   %eax
   14e0c:	e8 61 cb ff ff       	call   11972 <__put_char_or_code>
   14e11:	83 c4 10             	add    $0x10,%esp
   14e14:	83 45 e4 01          	addl   $0x1,-0x1c(%ebp)
   14e18:	8b 55 e4             	mov    -0x1c(%ebp),%edx
   14e1b:	a1 48 e8 01 00       	mov    0x1e848,%eax
   14e20:	39 c2                	cmp    %eax,%edx
   14e22:	72 d5                	jb     14df9 <_sio_dump+0xc2>
   14e24:	83 ec 0c             	sub    $0xc,%esp
   14e27:	68 92 9d 01 00       	push   $0x19d92
   14e2c:	e8 a8 c1 ff ff       	call   10fd9 <__cio_puts>
   14e31:	83 c4 10             	add    $0x10,%esp
   14e34:	a1 68 f0 01 00       	mov    0x1f068,%eax
   14e39:	85 c0                	test   %eax,%eax
   14e3b:	74 6f                	je     14eac <_sio_dump+0x175>
   14e3d:	83 ec 0c             	sub    $0xc,%esp
   14e40:	68 95 9d 01 00       	push   $0x19d95
   14e45:	e8 8f c1 ff ff       	call   10fd9 <__cio_puts>
   14e4a:	83 c4 10             	add    $0x10,%esp
   14e4d:	83 ec 0c             	sub    $0xc,%esp
   14e50:	68 a9 9d 01 00       	push   $0x19da9
   14e55:	e8 7f c1 ff ff       	call   10fd9 <__cio_puts>
   14e5a:	83 c4 10             	add    $0x10,%esp
   14e5d:	a1 64 f0 01 00       	mov    0x1f064,%eax
   14e62:	89 45 e0             	mov    %eax,-0x20(%ebp)
   14e65:	c7 45 e4 00 00 00 00 	movl   $0x0,-0x1c(%ebp)
   14e6c:	eb 1f                	jmp    14e8d <_sio_dump+0x156>
   14e6e:	8b 45 e0             	mov    -0x20(%ebp),%eax
   14e71:	8d 50 01             	lea    0x1(%eax),%edx
   14e74:	89 55 e0             	mov    %edx,-0x20(%ebp)
   14e77:	0f b6 00             	movzbl (%eax),%eax
   14e7a:	0f be c0             	movsbl %al,%eax
   14e7d:	83 ec 0c             	sub    $0xc,%esp
   14e80:	50                   	push   %eax
   14e81:	e8 ec ca ff ff       	call   11972 <__put_char_or_code>
   14e86:	83 c4 10             	add    $0x10,%esp
   14e89:	83 45 e4 01          	addl   $0x1,-0x1c(%ebp)
   14e8d:	8b 55 e4             	mov    -0x1c(%ebp),%edx
   14e90:	a1 68 f0 01 00       	mov    0x1f068,%eax
   14e95:	39 c2                	cmp    %eax,%edx
   14e97:	72 d5                	jb     14e6e <_sio_dump+0x137>
   14e99:	83 ec 0c             	sub    $0xc,%esp
   14e9c:	68 92 9d 01 00       	push   $0x19d92
   14ea1:	e8 33 c1 ff ff       	call   10fd9 <__cio_puts>
   14ea6:	83 c4 10             	add    $0x10,%esp
   14ea9:	eb 01                	jmp    14eac <_sio_dump+0x175>
   14eab:	90                   	nop
   14eac:	8d 65 f4             	lea    -0xc(%ebp),%esp
   14eaf:	5b                   	pop    %ebx
   14eb0:	5e                   	pop    %esi
   14eb1:	5f                   	pop    %edi
   14eb2:	5d                   	pop    %ebp
   14eb3:	c3                   	ret    

00014eb4 <_stk_init>:
   14eb4:	55                   	push   %ebp
   14eb5:	89 e5                	mov    %esp,%ebp
   14eb7:	83 ec 08             	sub    $0x8,%esp
   14eba:	83 ec 0c             	sub    $0xc,%esp
   14ebd:	68 bc 9d 01 00       	push   $0x19dbc
   14ec2:	e8 12 c1 ff ff       	call   10fd9 <__cio_puts>
   14ec7:	83 c4 10             	add    $0x10,%esp
   14eca:	83 ec 0c             	sub    $0xc,%esp
   14ecd:	68 80 f0 01 00       	push   $0x1f080
   14ed2:	e8 b1 0e 00 00       	call   15d88 <_vec_clear>
   14ed7:	83 c4 10             	add    $0x10,%esp
   14eda:	e8 5b 00 00 00       	call   14f3a <_stk_alloc>
   14edf:	a3 e0 fb 01 00       	mov    %eax,0x1fbe0
   14ee4:	a1 e0 fb 01 00       	mov    0x1fbe0,%eax
   14ee9:	85 c0                	test   %eax,%eax
   14eeb:	75 38                	jne    14f25 <_stk_init+0x71>
   14eed:	83 ec 04             	sub    $0x4,%esp
   14ef0:	68 c4 9d 01 00       	push   $0x19dc4
   14ef5:	6a 00                	push   $0x0
   14ef7:	6a 42                	push   $0x42
   14ef9:	68 d6 9d 01 00       	push   $0x19dd6
   14efe:	68 20 9e 01 00       	push   $0x19e20
   14f03:	68 df 9d 01 00       	push   $0x19ddf
   14f08:	68 e0 f8 01 00       	push   $0x1f8e0
   14f0d:	e8 a3 cc ff ff       	call   11bb5 <__sprint>
   14f12:	83 c4 20             	add    $0x20,%esp
   14f15:	83 ec 0c             	sub    $0xc,%esp
   14f18:	68 e0 f8 01 00       	push   $0x1f8e0
   14f1d:	e8 6e da ff ff       	call   12990 <_kpanic>
   14f22:	83 c4 10             	add    $0x10,%esp
   14f25:	a1 e0 fb 01 00       	mov    0x1fbe0,%eax
   14f2a:	05 00 40 00 00       	add    $0x4000,%eax
   14f2f:	83 e8 08             	sub    $0x8,%eax
   14f32:	a3 e4 fb 01 00       	mov    %eax,0x1fbe4
   14f37:	90                   	nop
   14f38:	c9                   	leave  
   14f39:	c3                   	ret    

00014f3a <_stk_alloc>:
   14f3a:	55                   	push   %ebp
   14f3b:	89 e5                	mov    %esp,%ebp
   14f3d:	83 ec 18             	sub    $0x18,%esp
   14f40:	a1 80 f0 01 00       	mov    0x1f080,%eax
   14f45:	85 c0                	test   %eax,%eax
   14f47:	75 12                	jne    14f5b <_stk_alloc+0x21>
   14f49:	83 ec 0c             	sub    $0xc,%esp
   14f4c:	6a 04                	push   $0x4
   14f4e:	e8 41 de ff ff       	call   12d94 <_km_page_alloc>
   14f53:	83 c4 10             	add    $0x10,%esp
   14f56:	89 45 f4             	mov    %eax,-0xc(%ebp)
   14f59:	eb 13                	jmp    14f6e <_stk_alloc+0x34>
   14f5b:	83 ec 0c             	sub    $0xc,%esp
   14f5e:	68 80 f0 01 00       	push   $0x1f080
   14f63:	e8 92 0f 00 00       	call   15efa <_vec_remove>
   14f68:	83 c4 10             	add    $0x10,%esp
   14f6b:	89 45 f4             	mov    %eax,-0xc(%ebp)
   14f6e:	83 ec 08             	sub    $0x8,%esp
   14f71:	68 00 40 00 00       	push   $0x4000
   14f76:	ff 75 f4             	pushl  -0xc(%ebp)
   14f79:	e8 75 ca ff ff       	call   119f3 <__memclr>
   14f7e:	83 c4 10             	add    $0x10,%esp
   14f81:	8b 45 f4             	mov    -0xc(%ebp),%eax
   14f84:	c9                   	leave  
   14f85:	c3                   	ret    

00014f86 <_stk_free>:
   14f86:	55                   	push   %ebp
   14f87:	89 e5                	mov    %esp,%ebp
   14f89:	83 ec 08             	sub    $0x8,%esp
   14f8c:	83 7d 08 00          	cmpl   $0x0,0x8(%ebp)
   14f90:	74 17                	je     14fa9 <_stk_free+0x23>
   14f92:	83 ec 04             	sub    $0x4,%esp
   14f95:	ff 75 08             	pushl  0x8(%ebp)
   14f98:	6a 00                	push   $0x0
   14f9a:	68 80 f0 01 00       	push   $0x1f080
   14f9f:	e8 55 0e 00 00       	call   15df9 <_vec_add>
   14fa4:	83 c4 10             	add    $0x10,%esp
   14fa7:	eb 01                	jmp    14faa <_stk_free+0x24>
   14fa9:	90                   	nop
   14faa:	c9                   	leave  
   14fab:	c3                   	ret    

00014fac <_stk_setup>:
   14fac:	55                   	push   %ebp
   14fad:	89 e5                	mov    %esp,%ebp
   14faf:	83 ec 18             	sub    $0x18,%esp
   14fb2:	81 7d 0c 00 04 00 00 	cmpl   $0x400,0xc(%ebp)
   14fb9:	76 0a                	jbe    14fc5 <_stk_setup+0x19>
   14fbb:	b8 00 00 00 00       	mov    $0x0,%eax
   14fc0:	e9 b2 00 00 00       	jmp    15077 <_stk_setup+0xcb>
   14fc5:	83 7d 08 00          	cmpl   $0x0,0x8(%ebp)
   14fc9:	75 0a                	jne    14fd5 <_stk_setup+0x29>
   14fcb:	b8 00 00 00 00       	mov    $0x0,%eax
   14fd0:	e9 a2 00 00 00       	jmp    15077 <_stk_setup+0xcb>
   14fd5:	83 7d 0c 00          	cmpl   $0x0,0xc(%ebp)
   14fd9:	74 06                	je     14fe1 <_stk_setup+0x35>
   14fdb:	83 7d 10 00          	cmpl   $0x0,0x10(%ebp)
   14fdf:	74 0c                	je     14fed <_stk_setup+0x41>
   14fe1:	83 7d 0c 00          	cmpl   $0x0,0xc(%ebp)
   14fe5:	75 10                	jne    14ff7 <_stk_setup+0x4b>
   14fe7:	83 7d 10 00          	cmpl   $0x0,0x10(%ebp)
   14feb:	74 0a                	je     14ff7 <_stk_setup+0x4b>
   14fed:	b8 00 00 00 00       	mov    $0x0,%eax
   14ff2:	e9 80 00 00 00       	jmp    15077 <_stk_setup+0xcb>
   14ff7:	8b 45 08             	mov    0x8(%ebp),%eax
   14ffa:	05 00 40 00 00       	add    $0x4000,%eax
   14fff:	83 e8 04             	sub    $0x4,%eax
   15002:	89 45 f4             	mov    %eax,-0xc(%ebp)
   15005:	8b 45 f4             	mov    -0xc(%ebp),%eax
   15008:	8d 50 fc             	lea    -0x4(%eax),%edx
   1500b:	89 55 f4             	mov    %edx,-0xc(%ebp)
   1500e:	c7 00 00 00 00 00    	movl   $0x0,(%eax)
   15014:	8b 45 f4             	mov    -0xc(%ebp),%eax
   15017:	2b 45 0c             	sub    0xc(%ebp),%eax
   1501a:	83 e0 f0             	and    $0xfffffff0,%eax
   1501d:	89 45 f4             	mov    %eax,-0xc(%ebp)
   15020:	83 7d 0c 00          	cmpl   $0x0,0xc(%ebp)
   15024:	74 14                	je     1503a <_stk_setup+0x8e>
   15026:	83 ec 04             	sub    $0x4,%esp
   15029:	ff 75 0c             	pushl  0xc(%ebp)
   1502c:	ff 75 10             	pushl  0x10(%ebp)
   1502f:	ff 75 f4             	pushl  -0xc(%ebp)
   15032:	e8 dd c9 ff ff       	call   11a14 <__memcpy>
   15037:	83 c4 10             	add    $0x10,%esp
   1503a:	8b 45 f4             	mov    -0xc(%ebp),%eax
   1503d:	8d 50 f0             	lea    -0x10(%eax),%edx
   15040:	8b 45 0c             	mov    0xc(%ebp),%eax
   15043:	89 02                	mov    %eax,(%edx)
   15045:	83 7d 0c 00          	cmpl   $0x0,0xc(%ebp)
   15049:	74 05                	je     15050 <_stk_setup+0xa4>
   1504b:	8b 45 f4             	mov    -0xc(%ebp),%eax
   1504e:	eb 05                	jmp    15055 <_stk_setup+0xa9>
   15050:	b8 00 00 00 00       	mov    $0x0,%eax
   15055:	8b 55 f4             	mov    -0xc(%ebp),%edx
   15058:	83 ea 0c             	sub    $0xc,%edx
   1505b:	89 02                	mov    %eax,(%edx)
   1505d:	83 6d f4 14          	subl   $0x14,-0xc(%ebp)
   15061:	ba 2d 92 01 00       	mov    $0x1922d,%edx
   15066:	8b 45 f4             	mov    -0xc(%ebp),%eax
   15069:	89 10                	mov    %edx,(%eax)
   1506b:	8b 45 f4             	mov    -0xc(%ebp),%eax
   1506e:	83 e8 48             	sub    $0x48,%eax
   15071:	89 45 f0             	mov    %eax,-0x10(%ebp)
   15074:	8b 45 f0             	mov    -0x10(%ebp),%eax
   15077:	c9                   	leave  
   15078:	c3                   	ret    

00015079 <_stk_dump>:
   15079:	55                   	push   %ebp
   1507a:	89 e5                	mov    %esp,%ebp
   1507c:	57                   	push   %edi
   1507d:	56                   	push   %esi
   1507e:	53                   	push   %ebx
   1507f:	81 ec dc 00 00 00    	sub    $0xdc,%esp
   15085:	c7 45 e4 00 10 00 00 	movl   $0x1000,-0x1c(%ebp)
   1508c:	c7 45 e0 00 00 00 00 	movl   $0x0,-0x20(%ebp)
   15093:	8b 45 0c             	mov    0xc(%ebp),%eax
   15096:	89 45 dc             	mov    %eax,-0x24(%ebp)
   15099:	8b 45 0c             	mov    0xc(%ebp),%eax
   1509c:	89 45 d8             	mov    %eax,-0x28(%ebp)
   1509f:	c7 85 37 ff ff ff 30 	movl   $0x33323130,-0xc9(%ebp)
   150a6:	31 32 33 
   150a9:	c7 85 3b ff ff ff 34 	movl   $0x37363534,-0xc5(%ebp)
   150b0:	35 36 37 
   150b3:	c7 85 3f ff ff ff 38 	movl   $0x42413938,-0xc1(%ebp)
   150ba:	39 41 42 
   150bd:	c7 85 43 ff ff ff 43 	movl   $0x46454443,-0xbd(%ebp)
   150c4:	44 45 46 
   150c7:	c6 85 47 ff ff ff 00 	movb   $0x0,-0xb9(%ebp)
   150ce:	83 7d 10 00          	cmpl   $0x0,0x10(%ebp)
   150d2:	74 37                	je     1510b <_stk_dump+0x92>
   150d4:	8b 45 10             	mov    0x10(%ebp),%eax
   150d7:	89 45 e4             	mov    %eax,-0x1c(%ebp)
   150da:	8b 45 e4             	mov    -0x1c(%ebp),%eax
   150dd:	83 e0 03             	and    $0x3,%eax
   150e0:	85 c0                	test   %eax,%eax
   150e2:	74 0c                	je     150f0 <_stk_dump+0x77>
   150e4:	8b 45 e4             	mov    -0x1c(%ebp),%eax
   150e7:	83 e0 fc             	and    $0xfffffffc,%eax
   150ea:	83 c0 04             	add    $0x4,%eax
   150ed:	89 45 e4             	mov    %eax,-0x1c(%ebp)
   150f0:	8b 55 e4             	mov    -0x1c(%ebp),%edx
   150f3:	b8 00 00 00 00       	mov    $0x0,%eax
   150f8:	29 d0                	sub    %edx,%eax
   150fa:	c1 e0 02             	shl    $0x2,%eax
   150fd:	05 00 40 00 00       	add    $0x4000,%eax
   15102:	01 45 d8             	add    %eax,-0x28(%ebp)
   15105:	8b 45 d8             	mov    -0x28(%ebp),%eax
   15108:	89 45 dc             	mov    %eax,-0x24(%ebp)
   1510b:	83 ec 0c             	sub    $0xc,%esp
   1510e:	68 fc 9d 01 00       	push   $0x19dfc
   15113:	e8 c1 be ff ff       	call   10fd9 <__cio_puts>
   15118:	83 c4 10             	add    $0x10,%esp
   1511b:	83 7d 08 00          	cmpl   $0x0,0x8(%ebp)
   1511f:	74 15                	je     15136 <_stk_dump+0xbd>
   15121:	83 ec 08             	sub    $0x8,%esp
   15124:	ff 75 08             	pushl  0x8(%ebp)
   15127:	68 06 9e 01 00       	push   $0x19e06
   1512c:	e8 22 c5 ff ff       	call   11653 <__cio_printf>
   15131:	83 c4 10             	add    $0x10,%esp
   15134:	eb 10                	jmp    15146 <_stk_dump+0xcd>
   15136:	83 ec 0c             	sub    $0xc,%esp
   15139:	68 0e 9e 01 00       	push   $0x19e0e
   1513e:	e8 96 be ff ff       	call   10fd9 <__cio_puts>
   15143:	83 c4 10             	add    $0x10,%esp
   15146:	c6 45 90 00          	movb   $0x0,-0x70(%ebp)
   1514a:	e9 5e 01 00 00       	jmp    152ad <_stk_dump+0x234>
   1514f:	8d 9d 60 ff ff ff    	lea    -0xa0(%ebp),%ebx
   15155:	8d bd 48 ff ff ff    	lea    -0xb8(%ebp),%edi
   1515b:	8b 45 dc             	mov    -0x24(%ebp),%eax
   1515e:	89 45 c8             	mov    %eax,-0x38(%ebp)
   15161:	c7 45 d4 00 00 00 00 	movl   $0x0,-0x2c(%ebp)
   15168:	e9 a5 00 00 00       	jmp    15212 <_stk_dump+0x199>
   1516d:	8b 45 d8             	mov    -0x28(%ebp),%eax
   15170:	8d 50 04             	lea    0x4(%eax),%edx
   15173:	89 55 d8             	mov    %edx,-0x28(%ebp)
   15176:	8b 00                	mov    (%eax),%eax
   15178:	89 85 24 ff ff ff    	mov    %eax,-0xdc(%ebp)
   1517e:	89 c6                	mov    %eax,%esi
   15180:	89 d8                	mov    %ebx,%eax
   15182:	8d 58 01             	lea    0x1(%eax),%ebx
   15185:	c6 00 20             	movb   $0x20,(%eax)
   15188:	89 d8                	mov    %ebx,%eax
   1518a:	8d 58 01             	lea    0x1(%eax),%ebx
   1518d:	c6 00 20             	movb   $0x20,(%eax)
   15190:	c7 45 d0 00 00 00 00 	movl   $0x0,-0x30(%ebp)
   15197:	eb 24                	jmp    151bd <_stk_dump+0x144>
   15199:	89 f0                	mov    %esi,%eax
   1519b:	c1 e8 1c             	shr    $0x1c,%eax
   1519e:	89 45 c0             	mov    %eax,-0x40(%ebp)
   151a1:	89 da                	mov    %ebx,%edx
   151a3:	8d 5a 01             	lea    0x1(%edx),%ebx
   151a6:	8d 8d 37 ff ff ff    	lea    -0xc9(%ebp),%ecx
   151ac:	8b 45 c0             	mov    -0x40(%ebp),%eax
   151af:	01 c8                	add    %ecx,%eax
   151b1:	0f b6 00             	movzbl (%eax),%eax
   151b4:	88 02                	mov    %al,(%edx)
   151b6:	c1 e6 04             	shl    $0x4,%esi
   151b9:	83 45 d0 01          	addl   $0x1,-0x30(%ebp)
   151bd:	83 7d d0 07          	cmpl   $0x7,-0x30(%ebp)
   151c1:	7e d6                	jle    15199 <_stk_dump+0x120>
   151c3:	8b b5 24 ff ff ff    	mov    -0xdc(%ebp),%esi
   151c9:	89 f8                	mov    %edi,%eax
   151cb:	8d 78 01             	lea    0x1(%eax),%edi
   151ce:	c6 00 20             	movb   $0x20,(%eax)
   151d1:	c7 45 cc 00 00 00 00 	movl   $0x0,-0x34(%ebp)
   151d8:	eb 2e                	jmp    15208 <_stk_dump+0x18f>
   151da:	89 f0                	mov    %esi,%eax
   151dc:	c1 e8 18             	shr    $0x18,%eax
   151df:	89 45 c4             	mov    %eax,-0x3c(%ebp)
   151e2:	83 7d c4 1f          	cmpl   $0x1f,-0x3c(%ebp)
   151e6:	76 0d                	jbe    151f5 <_stk_dump+0x17c>
   151e8:	83 7d c4 7e          	cmpl   $0x7e,-0x3c(%ebp)
   151ec:	77 07                	ja     151f5 <_stk_dump+0x17c>
   151ee:	8b 45 c4             	mov    -0x3c(%ebp),%eax
   151f1:	89 c2                	mov    %eax,%edx
   151f3:	eb 05                	jmp    151fa <_stk_dump+0x181>
   151f5:	ba 2e 00 00 00       	mov    $0x2e,%edx
   151fa:	89 f8                	mov    %edi,%eax
   151fc:	8d 78 01             	lea    0x1(%eax),%edi
   151ff:	88 10                	mov    %dl,(%eax)
   15201:	c1 e6 08             	shl    $0x8,%esi
   15204:	83 45 cc 01          	addl   $0x1,-0x34(%ebp)
   15208:	83 7d cc 03          	cmpl   $0x3,-0x34(%ebp)
   1520c:	7e cc                	jle    151da <_stk_dump+0x161>
   1520e:	83 45 d4 01          	addl   $0x1,-0x2c(%ebp)
   15212:	83 7d d4 03          	cmpl   $0x3,-0x2c(%ebp)
   15216:	0f 8e 51 ff ff ff    	jle    1516d <_stk_dump+0xf4>
   1521c:	c6 03 00             	movb   $0x0,(%ebx)
   1521f:	c6 07 00             	movb   $0x0,(%edi)
   15222:	83 6d e4 04          	subl   $0x4,-0x1c(%ebp)
   15226:	83 45 dc 10          	addl   $0x10,-0x24(%ebp)
   1522a:	83 ec 08             	sub    $0x8,%esp
   1522d:	8d 85 60 ff ff ff    	lea    -0xa0(%ebp),%eax
   15233:	50                   	push   %eax
   15234:	8d 45 90             	lea    -0x70(%ebp),%eax
   15237:	50                   	push   %eax
   15238:	e8 26 c8 ff ff       	call   11a63 <__strcmp>
   1523d:	83 c4 10             	add    $0x10,%esp
   15240:	85 c0                	test   %eax,%eax
   15242:	75 06                	jne    1524a <_stk_dump+0x1d1>
   15244:	83 45 e0 01          	addl   $0x1,-0x20(%ebp)
   15248:	eb 63                	jmp    152ad <_stk_dump+0x234>
   1524a:	83 7d e0 00          	cmpl   $0x0,-0x20(%ebp)
   1524e:	74 07                	je     15257 <_stk_dump+0x1de>
   15250:	b8 2a 00 00 00       	mov    $0x2a,%eax
   15255:	eb 05                	jmp    1525c <_stk_dump+0x1e3>
   15257:	b8 20 00 00 00       	mov    $0x20,%eax
   1525c:	83 ec 04             	sub    $0x4,%esp
   1525f:	50                   	push   %eax
   15260:	ff 75 c8             	pushl  -0x38(%ebp)
   15263:	68 11 9e 01 00       	push   $0x19e11
   15268:	e8 e6 c3 ff ff       	call   11653 <__cio_printf>
   1526d:	83 c4 10             	add    $0x10,%esp
   15270:	c7 45 e0 00 00 00 00 	movl   $0x0,-0x20(%ebp)
   15277:	83 ec 04             	sub    $0x4,%esp
   1527a:	8d 85 48 ff ff ff    	lea    -0xb8(%ebp),%eax
   15280:	50                   	push   %eax
   15281:	8d 85 60 ff ff ff    	lea    -0xa0(%ebp),%eax
   15287:	50                   	push   %eax
   15288:	68 18 9e 01 00       	push   $0x19e18
   1528d:	e8 c1 c3 ff ff       	call   11653 <__cio_printf>
   15292:	83 c4 10             	add    $0x10,%esp
   15295:	83 ec 04             	sub    $0x4,%esp
   15298:	6a 30                	push   $0x30
   1529a:	8d 85 60 ff ff ff    	lea    -0xa0(%ebp),%eax
   152a0:	50                   	push   %eax
   152a1:	8d 45 90             	lea    -0x70(%ebp),%eax
   152a4:	50                   	push   %eax
   152a5:	e8 6a c7 ff ff       	call   11a14 <__memcpy>
   152aa:	83 c4 10             	add    $0x10,%esp
   152ad:	83 7d e4 00          	cmpl   $0x0,-0x1c(%ebp)
   152b1:	0f 8f 98 fe ff ff    	jg     1514f <_stk_dump+0xd6>
   152b7:	90                   	nop
   152b8:	8d 65 f4             	lea    -0xc(%ebp),%esp
   152bb:	5b                   	pop    %ebx
   152bc:	5e                   	pop    %esi
   152bd:	5f                   	pop    %edi
   152be:	5d                   	pop    %ebp
   152bf:	c3                   	ret    

000152c0 <_sys_isr>:
   152c0:	55                   	push   %ebp
   152c1:	89 e5                	mov    %esp,%ebp
   152c3:	83 ec 18             	sub    $0x18,%esp
   152c6:	a1 94 fc 01 00       	mov    0x1fc94,%eax
   152cb:	85 c0                	test   %eax,%eax
   152cd:	75 38                	jne    15307 <_sys_isr+0x47>
   152cf:	83 ec 04             	sub    $0x4,%esp
   152d2:	68 2c 9e 01 00       	push   $0x19e2c
   152d7:	6a 00                	push   $0x0
   152d9:	6a 60                	push   $0x60
   152db:	68 3a 9e 01 00       	push   $0x19e3a
   152e0:	68 a0 9f 01 00       	push   $0x19fa0
   152e5:	68 45 9e 01 00       	push   $0x19e45
   152ea:	68 e0 f8 01 00       	push   $0x1f8e0
   152ef:	e8 c1 c8 ff ff       	call   11bb5 <__sprint>
   152f4:	83 c4 20             	add    $0x20,%esp
   152f7:	83 ec 0c             	sub    $0xc,%esp
   152fa:	68 e0 f8 01 00       	push   $0x1f8e0
   152ff:	e8 8c d6 ff ff       	call   12990 <_kpanic>
   15304:	83 c4 10             	add    $0x10,%esp
   15307:	a1 94 fc 01 00       	mov    0x1fc94,%eax
   1530c:	8b 00                	mov    (%eax),%eax
   1530e:	85 c0                	test   %eax,%eax
   15310:	75 38                	jne    1534a <_sys_isr+0x8a>
   15312:	83 ec 04             	sub    $0x4,%esp
   15315:	68 62 9e 01 00       	push   $0x19e62
   1531a:	6a 01                	push   $0x1
   1531c:	6a 63                	push   $0x63
   1531e:	68 3a 9e 01 00       	push   $0x19e3a
   15323:	68 a0 9f 01 00       	push   $0x19fa0
   15328:	68 45 9e 01 00       	push   $0x19e45
   1532d:	68 e0 f8 01 00       	push   $0x1f8e0
   15332:	e8 7e c8 ff ff       	call   11bb5 <__sprint>
   15337:	83 c4 20             	add    $0x20,%esp
   1533a:	83 ec 0c             	sub    $0xc,%esp
   1533d:	68 e0 f8 01 00       	push   $0x1f8e0
   15342:	e8 49 d6 ff ff       	call   12990 <_kpanic>
   15347:	83 c4 10             	add    $0x10,%esp
   1534a:	a1 94 fc 01 00       	mov    0x1fc94,%eax
   1534f:	8b 00                	mov    (%eax),%eax
   15351:	8b 40 30             	mov    0x30(%eax),%eax
   15354:	89 45 f4             	mov    %eax,-0xc(%ebp)
   15357:	83 7d f4 07          	cmpl   $0x7,-0xc(%ebp)
   1535b:	76 72                	jbe    153cf <_sys_isr+0x10f>
   1535d:	a1 94 fc 01 00       	mov    0x1fc94,%eax
   15362:	0f b7 40 14          	movzwl 0x14(%eax),%eax
   15366:	0f b7 c0             	movzwl %ax,%eax
   15369:	ff 75 f4             	pushl  -0xc(%ebp)
   1536c:	50                   	push   %eax
   1536d:	68 79 9e 01 00       	push   $0x19e79
   15372:	68 e0 fa 01 00       	push   $0x1fae0
   15377:	e8 39 c8 ff ff       	call   11bb5 <__sprint>
   1537c:	83 c4 10             	add    $0x10,%esp
   1537f:	6a 70                	push   $0x70
   15381:	68 3a 9e 01 00       	push   $0x19e3a
   15386:	68 a0 9f 01 00       	push   $0x19fa0
   1538b:	68 91 9e 01 00       	push   $0x19e91
   15390:	e8 be c2 ff ff       	call   11653 <__cio_printf>
   15395:	83 c4 10             	add    $0x10,%esp
   15398:	83 ec 0c             	sub    $0xc,%esp
   1539b:	68 e0 fa 01 00       	push   $0x1fae0
   153a0:	e8 34 bc ff ff       	call   10fd9 <__cio_puts>
   153a5:	83 c4 10             	add    $0x10,%esp
   153a8:	83 ec 0c             	sub    $0xc,%esp
   153ab:	6a 0a                	push   $0xa
   153ad:	e8 e7 ba ff ff       	call   10e99 <__cio_putchar>
   153b2:	83 c4 10             	add    $0x10,%esp
   153b5:	c7 45 f4 00 00 00 00 	movl   $0x0,-0xc(%ebp)
   153bc:	a1 94 fc 01 00       	mov    0x1fc94,%eax
   153c1:	8b 00                	mov    (%eax),%eax
   153c3:	83 c0 48             	add    $0x48,%eax
   153c6:	83 c0 04             	add    $0x4,%eax
   153c9:	c7 00 f5 ff ff ff    	movl   $0xfffffff5,(%eax)
   153cf:	8b 45 f4             	mov    -0xc(%ebp),%eax
   153d2:	8b 04 85 80 f4 01 00 	mov    0x1f480(,%eax,4),%eax
   153d9:	8b 15 94 fc 01 00    	mov    0x1fc94,%edx
   153df:	83 ec 0c             	sub    $0xc,%esp
   153e2:	52                   	push   %edx
   153e3:	ff d0                	call   *%eax
   153e5:	83 c4 10             	add    $0x10,%esp
   153e8:	83 ec 08             	sub    $0x8,%esp
   153eb:	6a 20                	push   $0x20
   153ed:	6a 20                	push   $0x20
   153ef:	e8 04 b8 ff ff       	call   10bf8 <__outb>
   153f4:	83 c4 10             	add    $0x10,%esp
   153f7:	90                   	nop
   153f8:	c9                   	leave  
   153f9:	c3                   	ret    

000153fa <_sys_exit>:
   153fa:	55                   	push   %ebp
   153fb:	89 e5                	mov    %esp,%ebp
   153fd:	83 ec 08             	sub    $0x8,%esp
   15400:	8b 45 08             	mov    0x8(%ebp),%eax
   15403:	8b 00                	mov    (%eax),%eax
   15405:	83 c0 48             	add    $0x48,%eax
   15408:	83 c0 04             	add    $0x4,%eax
   1540b:	8b 00                	mov    (%eax),%eax
   1540d:	89 c2                	mov    %eax,%edx
   1540f:	8b 45 08             	mov    0x8(%ebp),%eax
   15412:	89 50 08             	mov    %edx,0x8(%eax)
   15415:	83 ec 0c             	sub    $0xc,%esp
   15418:	ff 75 08             	pushl  0x8(%ebp)
   1541b:	e8 bf df ff ff       	call   133df <_performExit>
   15420:	83 c4 10             	add    $0x10,%esp
   15423:	e8 10 f0 ff ff       	call   14438 <_dispatch>
   15428:	90                   	nop
   15429:	c9                   	leave  
   1542a:	c3                   	ret    

0001542b <_sys_spawn>:
   1542b:	55                   	push   %ebp
   1542c:	89 e5                	mov    %esp,%ebp
   1542e:	83 ec 28             	sub    $0x28,%esp
   15431:	a1 00 fc 01 00       	mov    0x1fc00,%eax
   15436:	83 f8 18             	cmp    $0x18,%eax
   15439:	76 11                	jbe    1544c <_sys_spawn+0x21>
   1543b:	8b 45 08             	mov    0x8(%ebp),%eax
   1543e:	8b 00                	mov    (%eax),%eax
   15440:	c7 40 30 f6 ff ff ff 	movl   $0xfffffff6,0x30(%eax)
   15447:	e9 ed 02 00 00       	jmp    15739 <_sys_spawn+0x30e>
   1544c:	8b 45 08             	mov    0x8(%ebp),%eax
   1544f:	8b 00                	mov    (%eax),%eax
   15451:	83 c0 48             	add    $0x48,%eax
   15454:	83 c0 08             	add    $0x8,%eax
   15457:	8b 00                	mov    (%eax),%eax
   15459:	88 45 f3             	mov    %al,-0xd(%ebp)
   1545c:	8b 45 08             	mov    0x8(%ebp),%eax
   1545f:	0f b6 40 19          	movzbl 0x19(%eax),%eax
   15463:	38 45 f3             	cmp    %al,-0xd(%ebp)
   15466:	73 11                	jae    15479 <_sys_spawn+0x4e>
   15468:	8b 45 08             	mov    0x8(%ebp),%eax
   1546b:	8b 00                	mov    (%eax),%eax
   1546d:	c7 40 30 fb ff ff ff 	movl   $0xfffffffb,0x30(%eax)
   15474:	e9 c0 02 00 00       	jmp    15739 <_sys_spawn+0x30e>
   15479:	e8 91 dd ff ff       	call   1320f <_pcb_alloc>
   1547e:	89 45 ec             	mov    %eax,-0x14(%ebp)
   15481:	83 7d ec 00          	cmpl   $0x0,-0x14(%ebp)
   15485:	75 3b                	jne    154c2 <_sys_spawn+0x97>
   15487:	83 ec 04             	sub    $0x4,%esp
   1548a:	68 a5 9e 01 00       	push   $0x19ea5
   1548f:	6a 01                	push   $0x1
   15491:	68 c6 00 00 00       	push   $0xc6
   15496:	68 3a 9e 01 00       	push   $0x19e3a
   1549b:	68 ac 9f 01 00       	push   $0x19fac
   154a0:	68 45 9e 01 00       	push   $0x19e45
   154a5:	68 e0 f8 01 00       	push   $0x1f8e0
   154aa:	e8 06 c7 ff ff       	call   11bb5 <__sprint>
   154af:	83 c4 20             	add    $0x20,%esp
   154b2:	83 ec 0c             	sub    $0xc,%esp
   154b5:	68 e0 f8 01 00       	push   $0x1f8e0
   154ba:	e8 d1 d4 ff ff       	call   12990 <_kpanic>
   154bf:	83 c4 10             	add    $0x10,%esp
   154c2:	83 7d ec 00          	cmpl   $0x0,-0x14(%ebp)
   154c6:	75 11                	jne    154d9 <_sys_spawn+0xae>
   154c8:	8b 45 08             	mov    0x8(%ebp),%eax
   154cb:	8b 00                	mov    (%eax),%eax
   154cd:	c7 40 30 f6 ff ff ff 	movl   $0xfffffff6,0x30(%eax)
   154d4:	e9 60 02 00 00       	jmp    15739 <_sys_spawn+0x30e>
   154d9:	e8 5c fa ff ff       	call   14f3a <_stk_alloc>
   154de:	89 c2                	mov    %eax,%edx
   154e0:	8b 45 ec             	mov    -0x14(%ebp),%eax
   154e3:	89 50 04             	mov    %edx,0x4(%eax)
   154e6:	8b 45 ec             	mov    -0x14(%ebp),%eax
   154e9:	8b 40 04             	mov    0x4(%eax),%eax
   154ec:	85 c0                	test   %eax,%eax
   154ee:	75 3b                	jne    1552b <_sys_spawn+0x100>
   154f0:	83 ec 04             	sub    $0x4,%esp
   154f3:	68 ae 9e 01 00       	push   $0x19eae
   154f8:	6a 01                	push   $0x1
   154fa:	68 d0 00 00 00       	push   $0xd0
   154ff:	68 3a 9e 01 00       	push   $0x19e3a
   15504:	68 ac 9f 01 00       	push   $0x19fac
   15509:	68 45 9e 01 00       	push   $0x19e45
   1550e:	68 e0 f8 01 00       	push   $0x1f8e0
   15513:	e8 9d c6 ff ff       	call   11bb5 <__sprint>
   15518:	83 c4 20             	add    $0x20,%esp
   1551b:	83 ec 0c             	sub    $0xc,%esp
   1551e:	68 e0 f8 01 00       	push   $0x1f8e0
   15523:	e8 68 d4 ff ff       	call   12990 <_kpanic>
   15528:	83 c4 10             	add    $0x10,%esp
   1552b:	8b 45 ec             	mov    -0x14(%ebp),%eax
   1552e:	8b 40 04             	mov    0x4(%eax),%eax
   15531:	85 c0                	test   %eax,%eax
   15533:	75 1f                	jne    15554 <_sys_spawn+0x129>
   15535:	83 ec 0c             	sub    $0xc,%esp
   15538:	ff 75 ec             	pushl  -0x14(%ebp)
   1553b:	e8 23 dd ff ff       	call   13263 <_pcb_free>
   15540:	83 c4 10             	add    $0x10,%esp
   15543:	8b 45 08             	mov    0x8(%ebp),%eax
   15546:	8b 00                	mov    (%eax),%eax
   15548:	c7 40 30 f6 ff ff ff 	movl   $0xfffffff6,0x30(%eax)
   1554f:	e9 e5 01 00 00       	jmp    15739 <_sys_spawn+0x30e>
   15554:	0f b7 05 84 fc 01 00 	movzwl 0x1fc84,%eax
   1555b:	8d 50 01             	lea    0x1(%eax),%edx
   1555e:	66 89 15 84 fc 01 00 	mov    %dx,0x1fc84
   15565:	8b 55 ec             	mov    -0x14(%ebp),%edx
   15568:	66 89 42 14          	mov    %ax,0x14(%edx)
   1556c:	8b 45 08             	mov    0x8(%ebp),%eax
   1556f:	0f b7 50 14          	movzwl 0x14(%eax),%edx
   15573:	8b 45 ec             	mov    -0x14(%ebp),%eax
   15576:	66 89 50 16          	mov    %dx,0x16(%eax)
   1557a:	8b 45 ec             	mov    -0x14(%ebp),%eax
   1557d:	c6 40 18 01          	movb   $0x1,0x18(%eax)
   15581:	8b 45 ec             	mov    -0x14(%ebp),%eax
   15584:	0f b6 55 f3          	movzbl -0xd(%ebp),%edx
   15588:	88 50 19             	mov    %dl,0x19(%eax)
   1558b:	8b 45 08             	mov    0x8(%ebp),%eax
   1558e:	8b 00                	mov    (%eax),%eax
   15590:	83 c0 48             	add    $0x48,%eax
   15593:	8b 40 04             	mov    0x4(%eax),%eax
   15596:	89 45 e8             	mov    %eax,-0x18(%ebp)
   15599:	8b 45 08             	mov    0x8(%ebp),%eax
   1559c:	8b 00                	mov    (%eax),%eax
   1559e:	83 c0 48             	add    $0x48,%eax
   155a1:	8b 40 0c             	mov    0xc(%eax),%eax
   155a4:	89 45 e4             	mov    %eax,-0x1c(%ebp)
   155a7:	8b 45 08             	mov    0x8(%ebp),%eax
   155aa:	8b 00                	mov    (%eax),%eax
   155ac:	83 c0 48             	add    $0x48,%eax
   155af:	83 c0 10             	add    $0x10,%eax
   155b2:	8b 00                	mov    (%eax),%eax
   155b4:	89 45 e0             	mov    %eax,-0x20(%ebp)
   155b7:	8b 45 ec             	mov    -0x14(%ebp),%eax
   155ba:	8b 40 04             	mov    0x4(%eax),%eax
   155bd:	83 ec 04             	sub    $0x4,%esp
   155c0:	ff 75 e0             	pushl  -0x20(%ebp)
   155c3:	ff 75 e4             	pushl  -0x1c(%ebp)
   155c6:	50                   	push   %eax
   155c7:	e8 e0 f9 ff ff       	call   14fac <_stk_setup>
   155cc:	83 c4 10             	add    $0x10,%esp
   155cf:	89 45 dc             	mov    %eax,-0x24(%ebp)
   155d2:	83 7d dc 00          	cmpl   $0x0,-0x24(%ebp)
   155d6:	75 3b                	jne    15613 <_sys_spawn+0x1e8>
   155d8:	83 ec 04             	sub    $0x4,%esp
   155db:	68 be 9e 01 00       	push   $0x19ebe
   155e0:	6a 01                	push   $0x1
   155e2:	68 ee 00 00 00       	push   $0xee
   155e7:	68 3a 9e 01 00       	push   $0x19e3a
   155ec:	68 ac 9f 01 00       	push   $0x19fac
   155f1:	68 45 9e 01 00       	push   $0x19e45
   155f6:	68 e0 f8 01 00       	push   $0x1f8e0
   155fb:	e8 b5 c5 ff ff       	call   11bb5 <__sprint>
   15600:	83 c4 20             	add    $0x20,%esp
   15603:	83 ec 0c             	sub    $0xc,%esp
   15606:	68 e0 f8 01 00       	push   $0x1f8e0
   1560b:	e8 80 d3 ff ff       	call   12990 <_kpanic>
   15610:	83 c4 10             	add    $0x10,%esp
   15613:	8b 45 ec             	mov    -0x14(%ebp),%eax
   15616:	8b 55 dc             	mov    -0x24(%ebp),%edx
   15619:	89 10                	mov    %edx,(%eax)
   1561b:	83 ec 08             	sub    $0x8,%esp
   1561e:	6a 48                	push   $0x48
   15620:	ff 75 dc             	pushl  -0x24(%ebp)
   15623:	e8 cb c3 ff ff       	call   119f3 <__memclr>
   15628:	83 c4 10             	add    $0x10,%esp
   1562b:	8b 45 dc             	mov    -0x24(%ebp),%eax
   1562e:	c7 40 44 02 02 00 00 	movl   $0x202,0x44(%eax)
   15635:	8b 45 dc             	mov    -0x24(%ebp),%eax
   15638:	83 c0 48             	add    $0x48,%eax
   1563b:	89 c2                	mov    %eax,%edx
   1563d:	8b 45 dc             	mov    -0x24(%ebp),%eax
   15640:	89 50 20             	mov    %edx,0x20(%eax)
   15643:	8b 45 dc             	mov    -0x24(%ebp),%eax
   15646:	8b 55 e8             	mov    -0x18(%ebp),%edx
   15649:	89 50 3c             	mov    %edx,0x3c(%eax)
   1564c:	8b 45 dc             	mov    -0x24(%ebp),%eax
   1564f:	c7 40 40 10 00 00 00 	movl   $0x10,0x40(%eax)
   15656:	8b 45 dc             	mov    -0x24(%ebp),%eax
   15659:	c7 00 20 00 00 00    	movl   $0x20,(%eax)
   1565f:	8b 45 dc             	mov    -0x24(%ebp),%eax
   15662:	c7 40 04 18 00 00 00 	movl   $0x18,0x4(%eax)
   15669:	8b 45 dc             	mov    -0x24(%ebp),%eax
   1566c:	8b 50 04             	mov    0x4(%eax),%edx
   1566f:	8b 45 dc             	mov    -0x24(%ebp),%eax
   15672:	89 50 08             	mov    %edx,0x8(%eax)
   15675:	8b 45 dc             	mov    -0x24(%ebp),%eax
   15678:	8b 50 08             	mov    0x8(%eax),%edx
   1567b:	8b 45 dc             	mov    -0x24(%ebp),%eax
   1567e:	89 50 0c             	mov    %edx,0xc(%eax)
   15681:	8b 45 dc             	mov    -0x24(%ebp),%eax
   15684:	8b 50 0c             	mov    0xc(%eax),%edx
   15687:	8b 45 dc             	mov    -0x24(%ebp),%eax
   1568a:	89 50 10             	mov    %edx,0x10(%eax)
   1568d:	8b 45 ec             	mov    -0x14(%ebp),%eax
   15690:	0f b7 50 14          	movzwl 0x14(%eax),%edx
   15694:	8b 45 08             	mov    0x8(%ebp),%eax
   15697:	8b 00                	mov    (%eax),%eax
   15699:	0f b7 d2             	movzwl %dx,%edx
   1569c:	89 50 30             	mov    %edx,0x30(%eax)
   1569f:	8b 45 ec             	mov    -0x14(%ebp),%eax
   156a2:	8b 00                	mov    (%eax),%eax
   156a4:	c7 40 30 00 00 00 00 	movl   $0x0,0x30(%eax)
   156ab:	c7 45 f4 00 00 00 00 	movl   $0x0,-0xc(%ebp)
   156b2:	eb 12                	jmp    156c6 <_sys_spawn+0x29b>
   156b4:	8b 45 f4             	mov    -0xc(%ebp),%eax
   156b7:	8b 04 85 20 fc 01 00 	mov    0x1fc20(,%eax,4),%eax
   156be:	85 c0                	test   %eax,%eax
   156c0:	74 0c                	je     156ce <_sys_spawn+0x2a3>
   156c2:	83 45 f4 01          	addl   $0x1,-0xc(%ebp)
   156c6:	83 7d f4 18          	cmpl   $0x18,-0xc(%ebp)
   156ca:	7e e8                	jle    156b4 <_sys_spawn+0x289>
   156cc:	eb 01                	jmp    156cf <_sys_spawn+0x2a4>
   156ce:	90                   	nop
   156cf:	83 7d f4 18          	cmpl   $0x18,-0xc(%ebp)
   156d3:	7e 3b                	jle    15710 <_sys_spawn+0x2e5>
   156d5:	83 ec 04             	sub    $0x4,%esp
   156d8:	68 c8 9e 01 00       	push   $0x19ec8
   156dd:	6a 00                	push   $0x0
   156df:	68 0c 01 00 00       	push   $0x10c
   156e4:	68 3a 9e 01 00       	push   $0x19e3a
   156e9:	68 ac 9f 01 00       	push   $0x19fac
   156ee:	68 45 9e 01 00       	push   $0x19e45
   156f3:	68 e0 f8 01 00       	push   $0x1f8e0
   156f8:	e8 b8 c4 ff ff       	call   11bb5 <__sprint>
   156fd:	83 c4 20             	add    $0x20,%esp
   15700:	83 ec 0c             	sub    $0xc,%esp
   15703:	68 e0 f8 01 00       	push   $0x1f8e0
   15708:	e8 83 d2 ff ff       	call   12990 <_kpanic>
   1570d:	83 c4 10             	add    $0x10,%esp
   15710:	8b 45 f4             	mov    -0xc(%ebp),%eax
   15713:	8b 55 ec             	mov    -0x14(%ebp),%edx
   15716:	89 14 85 20 fc 01 00 	mov    %edx,0x1fc20(,%eax,4)
   1571d:	a1 00 fc 01 00       	mov    0x1fc00,%eax
   15722:	83 c0 01             	add    $0x1,%eax
   15725:	a3 00 fc 01 00       	mov    %eax,0x1fc00
   1572a:	83 ec 0c             	sub    $0xc,%esp
   1572d:	ff 75 ec             	pushl  -0x14(%ebp)
   15730:	e8 15 ec ff ff       	call   1434a <_schedule>
   15735:	83 c4 10             	add    $0x10,%esp
   15738:	90                   	nop
   15739:	c9                   	leave  
   1573a:	c3                   	ret    

0001573b <_sys_read>:
   1573b:	55                   	push   %ebp
   1573c:	89 e5                	mov    %esp,%ebp
   1573e:	83 ec 18             	sub    $0x18,%esp
   15741:	c7 45 f4 00 00 00 00 	movl   $0x0,-0xc(%ebp)
   15748:	8b 45 08             	mov    0x8(%ebp),%eax
   1574b:	8b 00                	mov    (%eax),%eax
   1574d:	83 c0 48             	add    $0x48,%eax
   15750:	83 c0 08             	add    $0x8,%eax
   15753:	8b 00                	mov    (%eax),%eax
   15755:	89 45 f0             	mov    %eax,-0x10(%ebp)
   15758:	8b 45 08             	mov    0x8(%ebp),%eax
   1575b:	8b 00                	mov    (%eax),%eax
   1575d:	83 c0 48             	add    $0x48,%eax
   15760:	8b 40 0c             	mov    0xc(%eax),%eax
   15763:	89 45 ec             	mov    %eax,-0x14(%ebp)
   15766:	8b 45 08             	mov    0x8(%ebp),%eax
   15769:	8b 00                	mov    (%eax),%eax
   1576b:	83 c0 48             	add    $0x48,%eax
   1576e:	83 c0 04             	add    $0x4,%eax
   15771:	8b 00                	mov    (%eax),%eax
   15773:	85 c0                	test   %eax,%eax
   15775:	74 07                	je     1577e <_sys_read+0x43>
   15777:	83 f8 01             	cmp    $0x1,%eax
   1577a:	74 32                	je     157ae <_sys_read+0x73>
   1577c:	eb 47                	jmp    157c5 <_sys_read+0x8a>
   1577e:	e8 38 c1 ff ff       	call   118bb <__cio_input_queue>
   15783:	85 c0                	test   %eax,%eax
   15785:	7f 11                	jg     15798 <_sys_read+0x5d>
   15787:	8b 45 08             	mov    0x8(%ebp),%eax
   1578a:	8b 00                	mov    (%eax),%eax
   1578c:	c7 40 30 f7 ff ff ff 	movl   $0xfffffff7,0x30(%eax)
   15793:	e9 af 00 00 00       	jmp    15847 <_sys_read+0x10c>
   15798:	83 ec 08             	sub    $0x8,%esp
   1579b:	ff 75 ec             	pushl  -0x14(%ebp)
   1579e:	ff 75 f0             	pushl  -0x10(%ebp)
   157a1:	e8 c4 c0 ff ff       	call   1186a <__cio_gets>
   157a6:	83 c4 10             	add    $0x10,%esp
   157a9:	89 45 f4             	mov    %eax,-0xc(%ebp)
   157ac:	eb 25                	jmp    157d3 <_sys_read+0x98>
   157ae:	8b 45 ec             	mov    -0x14(%ebp),%eax
   157b1:	83 ec 08             	sub    $0x8,%esp
   157b4:	50                   	push   %eax
   157b5:	ff 75 f0             	pushl  -0x10(%ebp)
   157b8:	e8 8b f3 ff ff       	call   14b48 <_sio_reads>
   157bd:	83 c4 10             	add    $0x10,%esp
   157c0:	89 45 f4             	mov    %eax,-0xc(%ebp)
   157c3:	eb 0e                	jmp    157d3 <_sys_read+0x98>
   157c5:	8b 45 08             	mov    0x8(%ebp),%eax
   157c8:	8b 00                	mov    (%eax),%eax
   157ca:	c7 40 30 fe ff ff ff 	movl   $0xfffffffe,0x30(%eax)
   157d1:	eb 74                	jmp    15847 <_sys_read+0x10c>
   157d3:	83 7d f4 00          	cmpl   $0x0,-0xc(%ebp)
   157d7:	7e 0d                	jle    157e6 <_sys_read+0xab>
   157d9:	8b 45 08             	mov    0x8(%ebp),%eax
   157dc:	8b 00                	mov    (%eax),%eax
   157de:	8b 55 f4             	mov    -0xc(%ebp),%edx
   157e1:	89 50 30             	mov    %edx,0x30(%eax)
   157e4:	eb 61                	jmp    15847 <_sys_read+0x10c>
   157e6:	8b 45 08             	mov    0x8(%ebp),%eax
   157e9:	c6 40 18 06          	movb   $0x6,0x18(%eax)
   157ed:	a1 a4 fc 01 00       	mov    0x1fca4,%eax
   157f2:	83 ec 04             	sub    $0x4,%esp
   157f5:	6a 00                	push   $0x0
   157f7:	ff 75 08             	pushl  0x8(%ebp)
   157fa:	50                   	push   %eax
   157fb:	e8 b2 e5 ff ff       	call   13db2 <_q_insert>
   15800:	83 c4 10             	add    $0x10,%esp
   15803:	85 c0                	test   %eax,%eax
   15805:	75 3b                	jne    15842 <_sys_read+0x107>
   15807:	83 ec 04             	sub    $0x4,%esp
   1580a:	68 f4 9e 01 00       	push   $0x19ef4
   1580f:	6a 01                	push   $0x1
   15811:	68 4f 01 00 00       	push   $0x14f
   15816:	68 3a 9e 01 00       	push   $0x19e3a
   1581b:	68 b8 9f 01 00       	push   $0x19fb8
   15820:	68 45 9e 01 00       	push   $0x19e45
   15825:	68 e0 f8 01 00       	push   $0x1f8e0
   1582a:	e8 86 c3 ff ff       	call   11bb5 <__sprint>
   1582f:	83 c4 20             	add    $0x20,%esp
   15832:	83 ec 0c             	sub    $0xc,%esp
   15835:	68 e0 f8 01 00       	push   $0x1f8e0
   1583a:	e8 51 d1 ff ff       	call   12990 <_kpanic>
   1583f:	83 c4 10             	add    $0x10,%esp
   15842:	e8 f1 eb ff ff       	call   14438 <_dispatch>
   15847:	c9                   	leave  
   15848:	c3                   	ret    

00015849 <_sys_write>:
   15849:	55                   	push   %ebp
   1584a:	89 e5                	mov    %esp,%ebp
   1584c:	83 ec 18             	sub    $0x18,%esp
   1584f:	8b 45 08             	mov    0x8(%ebp),%eax
   15852:	8b 00                	mov    (%eax),%eax
   15854:	83 c0 48             	add    $0x48,%eax
   15857:	8b 40 04             	mov    0x4(%eax),%eax
   1585a:	89 45 f4             	mov    %eax,-0xc(%ebp)
   1585d:	8b 45 08             	mov    0x8(%ebp),%eax
   15860:	8b 00                	mov    (%eax),%eax
   15862:	83 c0 48             	add    $0x48,%eax
   15865:	83 c0 08             	add    $0x8,%eax
   15868:	8b 00                	mov    (%eax),%eax
   1586a:	89 45 f0             	mov    %eax,-0x10(%ebp)
   1586d:	8b 45 08             	mov    0x8(%ebp),%eax
   15870:	8b 00                	mov    (%eax),%eax
   15872:	83 c0 48             	add    $0x48,%eax
   15875:	8b 40 0c             	mov    0xc(%eax),%eax
   15878:	89 45 ec             	mov    %eax,-0x14(%ebp)
   1587b:	8b 45 f4             	mov    -0xc(%ebp),%eax
   1587e:	85 c0                	test   %eax,%eax
   15880:	74 07                	je     15889 <_sys_write+0x40>
   15882:	83 f8 01             	cmp    $0x1,%eax
   15885:	74 21                	je     158a8 <_sys_write+0x5f>
   15887:	eb 3e                	jmp    158c7 <_sys_write+0x7e>
   15889:	8b 45 ec             	mov    -0x14(%ebp),%eax
   1588c:	83 ec 08             	sub    $0x8,%esp
   1588f:	50                   	push   %eax
   15890:	ff 75 f0             	pushl  -0x10(%ebp)
   15893:	e8 72 b7 ff ff       	call   1100a <__cio_write>
   15898:	83 c4 10             	add    $0x10,%esp
   1589b:	8b 45 08             	mov    0x8(%ebp),%eax
   1589e:	8b 00                	mov    (%eax),%eax
   158a0:	8b 55 ec             	mov    -0x14(%ebp),%edx
   158a3:	89 50 30             	mov    %edx,0x30(%eax)
   158a6:	eb 2c                	jmp    158d4 <_sys_write+0x8b>
   158a8:	8b 45 ec             	mov    -0x14(%ebp),%eax
   158ab:	83 ec 08             	sub    $0x8,%esp
   158ae:	50                   	push   %eax
   158af:	ff 75 f0             	pushl  -0x10(%ebp)
   158b2:	e8 9c f3 ff ff       	call   14c53 <_sio_write>
   158b7:	83 c4 10             	add    $0x10,%esp
   158ba:	8b 45 08             	mov    0x8(%ebp),%eax
   158bd:	8b 00                	mov    (%eax),%eax
   158bf:	8b 55 ec             	mov    -0x14(%ebp),%edx
   158c2:	89 50 30             	mov    %edx,0x30(%eax)
   158c5:	eb 0d                	jmp    158d4 <_sys_write+0x8b>
   158c7:	8b 45 08             	mov    0x8(%ebp),%eax
   158ca:	8b 00                	mov    (%eax),%eax
   158cc:	c7 40 30 fe ff ff ff 	movl   $0xfffffffe,0x30(%eax)
   158d3:	90                   	nop
   158d4:	90                   	nop
   158d5:	c9                   	leave  
   158d6:	c3                   	ret    

000158d7 <_sys_sleep>:
   158d7:	55                   	push   %ebp
   158d8:	89 e5                	mov    %esp,%ebp
   158da:	83 ec 18             	sub    $0x18,%esp
   158dd:	8b 45 08             	mov    0x8(%ebp),%eax
   158e0:	8b 00                	mov    (%eax),%eax
   158e2:	83 c0 48             	add    $0x48,%eax
   158e5:	8b 40 04             	mov    0x4(%eax),%eax
   158e8:	89 45 f4             	mov    %eax,-0xc(%ebp)
   158eb:	83 7d f4 00          	cmpl   $0x0,-0xc(%ebp)
   158ef:	75 10                	jne    15901 <_sys_sleep+0x2a>
   158f1:	83 ec 0c             	sub    $0xc,%esp
   158f4:	ff 75 08             	pushl  0x8(%ebp)
   158f7:	e8 4e ea ff ff       	call   1434a <_schedule>
   158fc:	83 c4 10             	add    $0x10,%esp
   158ff:	eb 40                	jmp    15941 <_sys_sleep+0x6a>
   15901:	8b 45 08             	mov    0x8(%ebp),%eax
   15904:	c6 40 18 04          	movb   $0x4,0x18(%eax)
   15908:	a1 08 fc 01 00       	mov    0x1fc08,%eax
   1590d:	39 45 08             	cmp    %eax,0x8(%ebp)
   15910:	74 2f                	je     15941 <_sys_sleep+0x6a>
   15912:	8b 15 c0 f8 01 00    	mov    0x1f8c0,%edx
   15918:	8b 45 f4             	mov    -0xc(%ebp),%eax
   1591b:	01 c2                	add    %eax,%edx
   1591d:	8b 45 08             	mov    0x8(%ebp),%eax
   15920:	89 50 0c             	mov    %edx,0xc(%eax)
   15923:	8b 45 08             	mov    0x8(%ebp),%eax
   15926:	8b 50 0c             	mov    0xc(%eax),%edx
   15929:	a1 a8 fc 01 00       	mov    0x1fca8,%eax
   1592e:	83 ec 04             	sub    $0x4,%esp
   15931:	52                   	push   %edx
   15932:	ff 75 08             	pushl  0x8(%ebp)
   15935:	50                   	push   %eax
   15936:	e8 77 e4 ff ff       	call   13db2 <_q_insert>
   1593b:	83 c4 10             	add    $0x10,%esp
   1593e:	89 45 f4             	mov    %eax,-0xc(%ebp)
   15941:	e8 f2 ea ff ff       	call   14438 <_dispatch>
   15946:	90                   	nop
   15947:	c9                   	leave  
   15948:	c3                   	ret    

00015949 <_sys_kill>:
   15949:	55                   	push   %ebp
   1594a:	89 e5                	mov    %esp,%ebp
   1594c:	83 ec 18             	sub    $0x18,%esp
   1594f:	8b 45 08             	mov    0x8(%ebp),%eax
   15952:	8b 00                	mov    (%eax),%eax
   15954:	83 c0 48             	add    $0x48,%eax
   15957:	83 c0 04             	add    $0x4,%eax
   1595a:	8b 00                	mov    (%eax),%eax
   1595c:	66 89 45 f6          	mov    %ax,-0xa(%ebp)
   15960:	66 83 7d f6 00       	cmpw   $0x0,-0xa(%ebp)
   15965:	75 0b                	jne    15972 <_sys_kill+0x29>
   15967:	8b 45 08             	mov    0x8(%ebp),%eax
   1596a:	0f b7 40 14          	movzwl 0x14(%eax),%eax
   1596e:	66 89 45 f6          	mov    %ax,-0xa(%ebp)
   15972:	c7 45 f0 00 00 00 00 	movl   $0x0,-0x10(%ebp)
   15979:	c7 45 ec 00 00 00 00 	movl   $0x0,-0x14(%ebp)
   15980:	eb 35                	jmp    159b7 <_sys_kill+0x6e>
   15982:	8b 45 ec             	mov    -0x14(%ebp),%eax
   15985:	8b 04 85 20 fc 01 00 	mov    0x1fc20(,%eax,4),%eax
   1598c:	85 c0                	test   %eax,%eax
   1598e:	74 23                	je     159b3 <_sys_kill+0x6a>
   15990:	8b 45 ec             	mov    -0x14(%ebp),%eax
   15993:	8b 04 85 20 fc 01 00 	mov    0x1fc20(,%eax,4),%eax
   1599a:	0f b7 40 14          	movzwl 0x14(%eax),%eax
   1599e:	66 39 45 f6          	cmp    %ax,-0xa(%ebp)
   159a2:	75 0f                	jne    159b3 <_sys_kill+0x6a>
   159a4:	8b 45 ec             	mov    -0x14(%ebp),%eax
   159a7:	8b 04 85 20 fc 01 00 	mov    0x1fc20(,%eax,4),%eax
   159ae:	89 45 f0             	mov    %eax,-0x10(%ebp)
   159b1:	eb 0a                	jmp    159bd <_sys_kill+0x74>
   159b3:	83 45 ec 01          	addl   $0x1,-0x14(%ebp)
   159b7:	83 7d ec 18          	cmpl   $0x18,-0x14(%ebp)
   159bb:	7e c5                	jle    15982 <_sys_kill+0x39>
   159bd:	83 7d f0 00          	cmpl   $0x0,-0x10(%ebp)
   159c1:	75 11                	jne    159d4 <_sys_kill+0x8b>
   159c3:	8b 45 08             	mov    0x8(%ebp),%eax
   159c6:	8b 00                	mov    (%eax),%eax
   159c8:	c7 40 30 f9 ff ff ff 	movl   $0xfffffff9,0x30(%eax)
   159cf:	e9 ff 00 00 00       	jmp    15ad3 <_sys_kill+0x18a>
   159d4:	8b 45 f0             	mov    -0x10(%ebp),%eax
   159d7:	0f b6 40 18          	movzbl 0x18(%eax),%eax
   159db:	0f b6 c0             	movzbl %al,%eax
   159de:	83 f8 08             	cmp    $0x8,%eax
   159e1:	0f 87 88 00 00 00    	ja     15a6f <_sys_kill+0x126>
   159e7:	8b 04 85 4c 9f 01 00 	mov    0x19f4c(,%eax,4),%eax
   159ee:	ff e0                	jmp    *%eax
   159f0:	8b 45 f0             	mov    -0x10(%ebp),%eax
   159f3:	c7 40 08 fa ff ff ff 	movl   $0xfffffffa,0x8(%eax)
   159fa:	83 ec 0c             	sub    $0xc,%esp
   159fd:	ff 75 f0             	pushl  -0x10(%ebp)
   15a00:	e8 da d9 ff ff       	call   133df <_performExit>
   15a05:	83 c4 10             	add    $0x10,%esp
   15a08:	8b 45 08             	mov    0x8(%ebp),%eax
   15a0b:	8b 00                	mov    (%eax),%eax
   15a0d:	c7 40 30 00 00 00 00 	movl   $0x0,0x30(%eax)
   15a14:	e9 b9 00 00 00       	jmp    15ad2 <_sys_kill+0x189>
   15a19:	8b 45 08             	mov    0x8(%ebp),%eax
   15a1c:	c7 40 08 fa ff ff ff 	movl   $0xfffffffa,0x8(%eax)
   15a23:	83 ec 0c             	sub    $0xc,%esp
   15a26:	ff 75 08             	pushl  0x8(%ebp)
   15a29:	e8 b1 d9 ff ff       	call   133df <_performExit>
   15a2e:	83 c4 10             	add    $0x10,%esp
   15a31:	e8 02 ea ff ff       	call   14438 <_dispatch>
   15a36:	e9 97 00 00 00       	jmp    15ad2 <_sys_kill+0x189>
   15a3b:	8b 45 f0             	mov    -0x10(%ebp),%eax
   15a3e:	c7 40 08 fa ff ff ff 	movl   $0xfffffffa,0x8(%eax)
   15a45:	83 ec 0c             	sub    $0xc,%esp
   15a48:	ff 75 f0             	pushl  -0x10(%ebp)
   15a4b:	e8 8f d9 ff ff       	call   133df <_performExit>
   15a50:	83 c4 10             	add    $0x10,%esp
   15a53:	8b 45 08             	mov    0x8(%ebp),%eax
   15a56:	8b 00                	mov    (%eax),%eax
   15a58:	c7 40 30 00 00 00 00 	movl   $0x0,0x30(%eax)
   15a5f:	eb 71                	jmp    15ad2 <_sys_kill+0x189>
   15a61:	8b 45 08             	mov    0x8(%ebp),%eax
   15a64:	8b 00                	mov    (%eax),%eax
   15a66:	c7 40 30 00 00 00 00 	movl   $0x0,0x30(%eax)
   15a6d:	eb 63                	jmp    15ad2 <_sys_kill+0x189>
   15a6f:	8b 45 f0             	mov    -0x10(%ebp),%eax
   15a72:	0f b6 40 18          	movzbl 0x18(%eax),%eax
   15a76:	0f b6 d0             	movzbl %al,%edx
   15a79:	8b 45 f0             	mov    -0x10(%ebp),%eax
   15a7c:	0f b7 40 14          	movzwl 0x14(%eax),%eax
   15a80:	0f b7 c0             	movzwl %ax,%eax
   15a83:	52                   	push   %edx
   15a84:	50                   	push   %eax
   15a85:	68 1c 9f 01 00       	push   $0x19f1c
   15a8a:	68 e0 fa 01 00       	push   $0x1fae0
   15a8f:	e8 21 c1 ff ff       	call   11bb5 <__sprint>
   15a94:	83 c4 10             	add    $0x10,%esp
   15a97:	83 ec 04             	sub    $0x4,%esp
   15a9a:	68 45 9f 01 00       	push   $0x19f45
   15a9f:	6a 00                	push   $0x0
   15aa1:	68 fc 01 00 00       	push   $0x1fc
   15aa6:	68 3a 9e 01 00       	push   $0x19e3a
   15aab:	68 c4 9f 01 00       	push   $0x19fc4
   15ab0:	68 45 9e 01 00       	push   $0x19e45
   15ab5:	68 e0 f8 01 00       	push   $0x1f8e0
   15aba:	e8 f6 c0 ff ff       	call   11bb5 <__sprint>
   15abf:	83 c4 20             	add    $0x20,%esp
   15ac2:	83 ec 0c             	sub    $0xc,%esp
   15ac5:	68 e0 f8 01 00       	push   $0x1f8e0
   15aca:	e8 c1 ce ff ff       	call   12990 <_kpanic>
   15acf:	83 c4 10             	add    $0x10,%esp
   15ad2:	90                   	nop
   15ad3:	c9                   	leave  
   15ad4:	c3                   	ret    

00015ad5 <_sys_waitpid>:
   15ad5:	55                   	push   %ebp
   15ad6:	89 e5                	mov    %esp,%ebp
   15ad8:	53                   	push   %ebx
   15ad9:	83 ec 14             	sub    $0x14,%esp
   15adc:	8b 45 08             	mov    0x8(%ebp),%eax
   15adf:	8b 00                	mov    (%eax),%eax
   15ae1:	83 c0 48             	add    $0x48,%eax
   15ae4:	83 c0 04             	add    $0x4,%eax
   15ae7:	8b 00                	mov    (%eax),%eax
   15ae9:	66 89 45 ec          	mov    %ax,-0x14(%ebp)
   15aed:	8b 45 08             	mov    0x8(%ebp),%eax
   15af0:	0f b7 40 14          	movzwl 0x14(%eax),%eax
   15af4:	66 39 45 ec          	cmp    %ax,-0x14(%ebp)
   15af8:	75 11                	jne    15b0b <_sys_waitpid+0x36>
   15afa:	8b 45 08             	mov    0x8(%ebp),%eax
   15afd:	8b 00                	mov    (%eax),%eax
   15aff:	c7 40 30 fd ff ff ff 	movl   $0xfffffffd,0x30(%eax)
   15b06:	e9 2a 01 00 00       	jmp    15c35 <_sys_waitpid+0x160>
   15b0b:	c7 45 f4 00 00 00 00 	movl   $0x0,-0xc(%ebp)
   15b12:	66 83 7d ec 00       	cmpw   $0x0,-0x14(%ebp)
   15b17:	74 62                	je     15b7b <_sys_waitpid+0xa6>
   15b19:	0f b7 45 ec          	movzwl -0x14(%ebp),%eax
   15b1d:	83 ec 0c             	sub    $0xc,%esp
   15b20:	50                   	push   %eax
   15b21:	e8 87 d7 ff ff       	call   132ad <_pcb_find>
   15b26:	83 c4 10             	add    $0x10,%esp
   15b29:	89 45 f4             	mov    %eax,-0xc(%ebp)
   15b2c:	83 7d f4 00          	cmpl   $0x0,-0xc(%ebp)
   15b30:	74 38                	je     15b6a <_sys_waitpid+0x95>
   15b32:	8b 45 f4             	mov    -0xc(%ebp),%eax
   15b35:	0f b7 50 16          	movzwl 0x16(%eax),%edx
   15b39:	8b 45 08             	mov    0x8(%ebp),%eax
   15b3c:	0f b7 40 14          	movzwl 0x14(%eax),%eax
   15b40:	66 39 c2             	cmp    %ax,%dx
   15b43:	74 11                	je     15b56 <_sys_waitpid+0x81>
   15b45:	8b 45 08             	mov    0x8(%ebp),%eax
   15b48:	8b 00                	mov    (%eax),%eax
   15b4a:	c7 40 30 fc ff ff ff 	movl   $0xfffffffc,0x30(%eax)
   15b51:	e9 df 00 00 00       	jmp    15c35 <_sys_waitpid+0x160>
   15b56:	8b 45 f4             	mov    -0xc(%ebp),%eax
   15b59:	0f b6 40 18          	movzbl 0x18(%eax),%eax
   15b5d:	3c 07                	cmp    $0x7,%al
   15b5f:	74 7e                	je     15bdf <_sys_waitpid+0x10a>
   15b61:	c7 45 f4 00 00 00 00 	movl   $0x0,-0xc(%ebp)
   15b68:	eb 75                	jmp    15bdf <_sys_waitpid+0x10a>
   15b6a:	8b 45 08             	mov    0x8(%ebp),%eax
   15b6d:	8b 00                	mov    (%eax),%eax
   15b6f:	c7 40 30 fc ff ff ff 	movl   $0xfffffffc,0x30(%eax)
   15b76:	e9 ba 00 00 00       	jmp    15c35 <_sys_waitpid+0x160>
   15b7b:	c7 45 f4 00 00 00 00 	movl   $0x0,-0xc(%ebp)
   15b82:	c6 45 ef 00          	movb   $0x0,-0x11(%ebp)
   15b86:	c7 45 f0 00 00 00 00 	movl   $0x0,-0x10(%ebp)
   15b8d:	eb 36                	jmp    15bc5 <_sys_waitpid+0xf0>
   15b8f:	8b 45 f0             	mov    -0x10(%ebp),%eax
   15b92:	8b 1c 85 20 fc 01 00 	mov    0x1fc20(,%eax,4),%ebx
   15b99:	85 db                	test   %ebx,%ebx
   15b9b:	74 24                	je     15bc1 <_sys_waitpid+0xec>
   15b9d:	0f b7 53 16          	movzwl 0x16(%ebx),%edx
   15ba1:	8b 45 08             	mov    0x8(%ebp),%eax
   15ba4:	0f b7 40 14          	movzwl 0x14(%eax),%eax
   15ba8:	66 39 c2             	cmp    %ax,%dx
   15bab:	75 14                	jne    15bc1 <_sys_waitpid+0xec>
   15bad:	c6 45 ef 01          	movb   $0x1,-0x11(%ebp)
   15bb1:	8b 45 f4             	mov    -0xc(%ebp),%eax
   15bb4:	0f b6 40 18          	movzbl 0x18(%eax),%eax
   15bb8:	3c 07                	cmp    $0x7,%al
   15bba:	75 05                	jne    15bc1 <_sys_waitpid+0xec>
   15bbc:	89 5d f4             	mov    %ebx,-0xc(%ebp)
   15bbf:	eb 0a                	jmp    15bcb <_sys_waitpid+0xf6>
   15bc1:	83 45 f0 01          	addl   $0x1,-0x10(%ebp)
   15bc5:	83 7d f0 18          	cmpl   $0x18,-0x10(%ebp)
   15bc9:	7e c4                	jle    15b8f <_sys_waitpid+0xba>
   15bcb:	80 7d ef 00          	cmpb   $0x0,-0x11(%ebp)
   15bcf:	75 0e                	jne    15bdf <_sys_waitpid+0x10a>
   15bd1:	8b 45 08             	mov    0x8(%ebp),%eax
   15bd4:	8b 00                	mov    (%eax),%eax
   15bd6:	c7 40 30 f8 ff ff ff 	movl   $0xfffffff8,0x30(%eax)
   15bdd:	eb 56                	jmp    15c35 <_sys_waitpid+0x160>
   15bdf:	83 7d f4 00          	cmpl   $0x0,-0xc(%ebp)
   15be3:	75 0e                	jne    15bf3 <_sys_waitpid+0x11e>
   15be5:	8b 45 08             	mov    0x8(%ebp),%eax
   15be8:	c6 40 18 05          	movb   $0x5,0x18(%eax)
   15bec:	e8 47 e8 ff ff       	call   14438 <_dispatch>
   15bf1:	eb 42                	jmp    15c35 <_sys_waitpid+0x160>
   15bf3:	8b 45 f4             	mov    -0xc(%ebp),%eax
   15bf6:	0f b7 50 14          	movzwl 0x14(%eax),%edx
   15bfa:	8b 45 08             	mov    0x8(%ebp),%eax
   15bfd:	8b 00                	mov    (%eax),%eax
   15bff:	0f b7 d2             	movzwl %dx,%edx
   15c02:	89 50 30             	mov    %edx,0x30(%eax)
   15c05:	8b 45 08             	mov    0x8(%ebp),%eax
   15c08:	8b 00                	mov    (%eax),%eax
   15c0a:	83 c0 48             	add    $0x48,%eax
   15c0d:	83 c0 08             	add    $0x8,%eax
   15c10:	8b 00                	mov    (%eax),%eax
   15c12:	89 45 e8             	mov    %eax,-0x18(%ebp)
   15c15:	83 7d e8 00          	cmpl   $0x0,-0x18(%ebp)
   15c19:	74 0b                	je     15c26 <_sys_waitpid+0x151>
   15c1b:	8b 45 f4             	mov    -0xc(%ebp),%eax
   15c1e:	8b 50 08             	mov    0x8(%eax),%edx
   15c21:	8b 45 e8             	mov    -0x18(%ebp),%eax
   15c24:	89 10                	mov    %edx,(%eax)
   15c26:	83 ec 0c             	sub    $0xc,%esp
   15c29:	ff 75 f4             	pushl  -0xc(%ebp)
   15c2c:	e8 d1 d6 ff ff       	call   13302 <_pcb_cleanup>
   15c31:	83 c4 10             	add    $0x10,%esp
   15c34:	90                   	nop
   15c35:	8b 5d fc             	mov    -0x4(%ebp),%ebx
   15c38:	c9                   	leave  
   15c39:	c3                   	ret    

00015c3a <_sys_ushell>:
   15c3a:	55                   	push   %ebp
   15c3b:	89 e5                	mov    %esp,%ebp
   15c3d:	83 ec 18             	sub    $0x18,%esp
   15c40:	c7 45 f4 00 00 00 00 	movl   $0x0,-0xc(%ebp)
   15c47:	a1 08 fc 01 00       	mov    0x1fc08,%eax
   15c4c:	85 c0                	test   %eax,%eax
   15c4e:	75 25                	jne    15c75 <_sys_ushell+0x3b>
   15c50:	8b 45 08             	mov    0x8(%ebp),%eax
   15c53:	a3 08 fc 01 00       	mov    %eax,0x1fc08
   15c58:	8b 45 08             	mov    0x8(%ebp),%eax
   15c5b:	0f b7 40 14          	movzwl 0x14(%eax),%eax
   15c5f:	0f b7 c0             	movzwl %ax,%eax
   15c62:	83 ec 08             	sub    $0x8,%esp
   15c65:	50                   	push   %eax
   15c66:	68 70 9f 01 00       	push   $0x19f70
   15c6b:	e8 e3 b9 ff ff       	call   11653 <__cio_printf>
   15c70:	83 c4 10             	add    $0x10,%esp
   15c73:	eb 0f                	jmp    15c84 <_sys_ushell+0x4a>
   15c75:	a1 08 fc 01 00       	mov    0x1fc08,%eax
   15c7a:	0f b7 40 14          	movzwl 0x14(%eax),%eax
   15c7e:	0f b7 c0             	movzwl %ax,%eax
   15c81:	89 45 f4             	mov    %eax,-0xc(%ebp)
   15c84:	8b 45 08             	mov    0x8(%ebp),%eax
   15c87:	8b 00                	mov    (%eax),%eax
   15c89:	8b 55 f4             	mov    -0xc(%ebp),%edx
   15c8c:	89 50 30             	mov    %edx,0x30(%eax)
   15c8f:	90                   	nop
   15c90:	c9                   	leave  
   15c91:	c3                   	ret    

00015c92 <_ord_wakeup>:
   15c92:	55                   	push   %ebp
   15c93:	89 e5                	mov    %esp,%ebp
   15c95:	8b 45 08             	mov    0x8(%ebp),%eax
   15c98:	3b 45 0c             	cmp    0xc(%ebp),%eax
   15c9b:	73 07                	jae    15ca4 <_ord_wakeup+0x12>
   15c9d:	b8 ff ff ff ff       	mov    $0xffffffff,%eax
   15ca2:	eb 14                	jmp    15cb8 <_ord_wakeup+0x26>
   15ca4:	8b 45 08             	mov    0x8(%ebp),%eax
   15ca7:	3b 45 0c             	cmp    0xc(%ebp),%eax
   15caa:	75 07                	jne    15cb3 <_ord_wakeup+0x21>
   15cac:	b8 00 00 00 00       	mov    $0x0,%eax
   15cb1:	eb 05                	jmp    15cb8 <_ord_wakeup+0x26>
   15cb3:	b8 01 00 00 00       	mov    $0x1,%eax
   15cb8:	5d                   	pop    %ebp
   15cb9:	c3                   	ret    

00015cba <_sys_init>:
   15cba:	55                   	push   %ebp
   15cbb:	89 e5                	mov    %esp,%ebp
   15cbd:	83 ec 08             	sub    $0x8,%esp
   15cc0:	83 ec 0c             	sub    $0xc,%esp
   15cc3:	68 95 9f 01 00       	push   $0x19f95
   15cc8:	e8 0c b3 ff ff       	call   10fd9 <__cio_puts>
   15ccd:	83 c4 10             	add    $0x10,%esp
   15cd0:	c7 05 80 f4 01 00 fa 	movl   $0x153fa,0x1f480
   15cd7:	53 01 00 
   15cda:	c7 05 84 f4 01 00 2b 	movl   $0x1542b,0x1f484
   15ce1:	54 01 00 
   15ce4:	c7 05 88 f4 01 00 3b 	movl   $0x1573b,0x1f488
   15ceb:	57 01 00 
   15cee:	c7 05 8c f4 01 00 49 	movl   $0x15849,0x1f48c
   15cf5:	58 01 00 
   15cf8:	c7 05 90 f4 01 00 d7 	movl   $0x158d7,0x1f490
   15cff:	58 01 00 
   15d02:	c7 05 94 f4 01 00 49 	movl   $0x15949,0x1f494
   15d09:	59 01 00 
   15d0c:	c7 05 98 f4 01 00 d5 	movl   $0x15ad5,0x1f498
   15d13:	5a 01 00 
   15d16:	c7 05 9c f4 01 00 3a 	movl   $0x15c3a,0x1f49c
   15d1d:	5c 01 00 
   15d20:	83 ec 0c             	sub    $0xc,%esp
   15d23:	68 92 5c 01 00       	push   $0x15c92
   15d28:	e8 75 df ff ff       	call   13ca2 <_q_alloc>
   15d2d:	83 c4 10             	add    $0x10,%esp
   15d30:	a3 a8 fc 01 00       	mov    %eax,0x1fca8
   15d35:	83 ec 08             	sub    $0x8,%esp
   15d38:	68 c0 52 01 00       	push   $0x152c0
   15d3d:	68 80 00 00 00       	push   $0x80
   15d42:	e8 72 c5 ff ff       	call   122b9 <__install_isr>
   15d47:	83 c4 10             	add    $0x10,%esp
   15d4a:	90                   	nop
   15d4b:	c9                   	leave  
   15d4c:	c3                   	ret    

00015d4d <_deallocExtension>:
   15d4d:	55                   	push   %ebp
   15d4e:	89 e5                	mov    %esp,%ebp
   15d50:	83 ec 08             	sub    $0x8,%esp
   15d53:	83 7d 08 00          	cmpl   $0x0,0x8(%ebp)
   15d57:	74 2c                	je     15d85 <_deallocExtension+0x38>
   15d59:	8b 45 08             	mov    0x8(%ebp),%eax
   15d5c:	8b 40 04             	mov    0x4(%eax),%eax
   15d5f:	85 c0                	test   %eax,%eax
   15d61:	74 12                	je     15d75 <_deallocExtension+0x28>
   15d63:	8b 45 08             	mov    0x8(%ebp),%eax
   15d66:	8b 40 04             	mov    0x4(%eax),%eax
   15d69:	83 ec 0c             	sub    $0xc,%esp
   15d6c:	50                   	push   %eax
   15d6d:	e8 db ff ff ff       	call   15d4d <_deallocExtension>
   15d72:	83 c4 10             	add    $0x10,%esp
   15d75:	83 ec 0c             	sub    $0xc,%esp
   15d78:	ff 75 08             	pushl  0x8(%ebp)
   15d7b:	e8 83 d3 ff ff       	call   13103 <_km_slice_free>
   15d80:	83 c4 10             	add    $0x10,%esp
   15d83:	eb 01                	jmp    15d86 <_deallocExtension+0x39>
   15d85:	90                   	nop
   15d86:	c9                   	leave  
   15d87:	c3                   	ret    

00015d88 <_vec_clear>:
   15d88:	55                   	push   %ebp
   15d89:	89 e5                	mov    %esp,%ebp
   15d8b:	83 ec 18             	sub    $0x18,%esp
   15d8e:	83 7d 08 00          	cmpl   $0x0,0x8(%ebp)
   15d92:	74 62                	je     15df6 <_vec_clear+0x6e>
   15d94:	8b 45 08             	mov    0x8(%ebp),%eax
   15d97:	c7 00 00 00 00 00    	movl   $0x0,(%eax)
   15d9d:	8b 45 08             	mov    0x8(%ebp),%eax
   15da0:	8b 40 04             	mov    0x4(%eax),%eax
   15da3:	85 c0                	test   %eax,%eax
   15da5:	74 1c                	je     15dc3 <_vec_clear+0x3b>
   15da7:	8b 45 08             	mov    0x8(%ebp),%eax
   15daa:	8b 40 04             	mov    0x4(%eax),%eax
   15dad:	83 ec 0c             	sub    $0xc,%esp
   15db0:	50                   	push   %eax
   15db1:	e8 97 ff ff ff       	call   15d4d <_deallocExtension>
   15db6:	83 c4 10             	add    $0x10,%esp
   15db9:	8b 45 08             	mov    0x8(%ebp),%eax
   15dbc:	c7 40 04 00 00 00 00 	movl   $0x0,0x4(%eax)
   15dc3:	c7 45 f4 00 00 00 00 	movl   $0x0,-0xc(%ebp)
   15dca:	eb 20                	jmp    15dec <_vec_clear+0x64>
   15dcc:	8b 45 08             	mov    0x8(%ebp),%eax
   15dcf:	8b 55 f4             	mov    -0xc(%ebp),%edx
   15dd2:	c7 44 d0 08 00 00 00 	movl   $0x0,0x8(%eax,%edx,8)
   15dd9:	00 
   15dda:	8b 45 08             	mov    0x8(%ebp),%eax
   15ddd:	8b 55 f4             	mov    -0xc(%ebp),%edx
   15de0:	c7 44 d0 0c 00 00 00 	movl   $0x0,0xc(%eax,%edx,8)
   15de7:	00 
   15de8:	83 45 f4 01          	addl   $0x1,-0xc(%ebp)
   15dec:	8b 45 f4             	mov    -0xc(%ebp),%eax
   15def:	83 f8 7e             	cmp    $0x7e,%eax
   15df2:	76 d8                	jbe    15dcc <_vec_clear+0x44>
   15df4:	eb 01                	jmp    15df7 <_vec_clear+0x6f>
   15df6:	90                   	nop
   15df7:	c9                   	leave  
   15df8:	c3                   	ret    

00015df9 <_vec_add>:
   15df9:	55                   	push   %ebp
   15dfa:	89 e5                	mov    %esp,%ebp
   15dfc:	83 ec 08             	sub    $0x8,%esp
   15dff:	83 7d 08 00          	cmpl   $0x0,0x8(%ebp)
   15e03:	0f 85 b5 00 00 00    	jne    15ebe <_vec_add+0xc5>
   15e09:	83 ec 04             	sub    $0x4,%esp
   15e0c:	68 d0 9f 01 00       	push   $0x19fd0
   15e11:	6a 01                	push   $0x1
   15e13:	6a 69                	push   $0x69
   15e15:	68 d9 9f 01 00       	push   $0x19fd9
   15e1a:	68 5c a0 01 00       	push   $0x1a05c
   15e1f:	68 e2 9f 01 00       	push   $0x19fe2
   15e24:	68 e0 f8 01 00       	push   $0x1f8e0
   15e29:	e8 87 bd ff ff       	call   11bb5 <__sprint>
   15e2e:	83 c4 20             	add    $0x20,%esp
   15e31:	83 ec 0c             	sub    $0xc,%esp
   15e34:	68 e0 f8 01 00       	push   $0x1f8e0
   15e39:	e8 52 cb ff ff       	call   12990 <_kpanic>
   15e3e:	83 c4 10             	add    $0x10,%esp
   15e41:	eb 7b                	jmp    15ebe <_vec_add+0xc5>
   15e43:	8b 45 08             	mov    0x8(%ebp),%eax
   15e46:	8b 40 04             	mov    0x4(%eax),%eax
   15e49:	85 c0                	test   %eax,%eax
   15e4b:	75 68                	jne    15eb5 <_vec_add+0xbc>
   15e4d:	e8 ed d1 ff ff       	call   1303f <_km_slice_alloc>
   15e52:	89 c2                	mov    %eax,%edx
   15e54:	8b 45 08             	mov    0x8(%ebp),%eax
   15e57:	89 50 04             	mov    %edx,0x4(%eax)
   15e5a:	8b 45 08             	mov    0x8(%ebp),%eax
   15e5d:	8b 40 04             	mov    0x4(%eax),%eax
   15e60:	85 c0                	test   %eax,%eax
   15e62:	75 38                	jne    15e9c <_vec_add+0xa3>
   15e64:	83 ec 04             	sub    $0x4,%esp
   15e67:	68 ff 9f 01 00       	push   $0x19fff
   15e6c:	6a 01                	push   $0x1
   15e6e:	6a 73                	push   $0x73
   15e70:	68 d9 9f 01 00       	push   $0x19fd9
   15e75:	68 5c a0 01 00       	push   $0x1a05c
   15e7a:	68 e2 9f 01 00       	push   $0x19fe2
   15e7f:	68 e0 f8 01 00       	push   $0x1f8e0
   15e84:	e8 2c bd ff ff       	call   11bb5 <__sprint>
   15e89:	83 c4 20             	add    $0x20,%esp
   15e8c:	83 ec 0c             	sub    $0xc,%esp
   15e8f:	68 e0 f8 01 00       	push   $0x1f8e0
   15e94:	e8 f7 ca ff ff       	call   12990 <_kpanic>
   15e99:	83 c4 10             	add    $0x10,%esp
   15e9c:	8b 45 08             	mov    0x8(%ebp),%eax
   15e9f:	8b 40 04             	mov    0x4(%eax),%eax
   15ea2:	c7 00 00 00 00 00    	movl   $0x0,(%eax)
   15ea8:	8b 45 08             	mov    0x8(%ebp),%eax
   15eab:	8b 40 04             	mov    0x4(%eax),%eax
   15eae:	c7 40 04 00 00 00 00 	movl   $0x0,0x4(%eax)
   15eb5:	8b 45 08             	mov    0x8(%ebp),%eax
   15eb8:	8b 40 04             	mov    0x4(%eax),%eax
   15ebb:	89 45 08             	mov    %eax,0x8(%ebp)
   15ebe:	8b 45 08             	mov    0x8(%ebp),%eax
   15ec1:	8b 00                	mov    (%eax),%eax
   15ec3:	83 f8 7e             	cmp    $0x7e,%eax
   15ec6:	0f 87 77 ff ff ff    	ja     15e43 <_vec_add+0x4a>
   15ecc:	8b 45 08             	mov    0x8(%ebp),%eax
   15ecf:	8b 10                	mov    (%eax),%edx
   15ed1:	8b 45 08             	mov    0x8(%ebp),%eax
   15ed4:	8b 4d 0c             	mov    0xc(%ebp),%ecx
   15ed7:	89 4c d0 08          	mov    %ecx,0x8(%eax,%edx,8)
   15edb:	8b 45 08             	mov    0x8(%ebp),%eax
   15ede:	8b 10                	mov    (%eax),%edx
   15ee0:	8b 45 08             	mov    0x8(%ebp),%eax
   15ee3:	8b 4d 10             	mov    0x10(%ebp),%ecx
   15ee6:	89 4c d0 0c          	mov    %ecx,0xc(%eax,%edx,8)
   15eea:	8b 45 08             	mov    0x8(%ebp),%eax
   15eed:	8b 00                	mov    (%eax),%eax
   15eef:	8d 50 01             	lea    0x1(%eax),%edx
   15ef2:	8b 45 08             	mov    0x8(%ebp),%eax
   15ef5:	89 10                	mov    %edx,(%eax)
   15ef7:	90                   	nop
   15ef8:	c9                   	leave  
   15ef9:	c3                   	ret    

00015efa <_vec_remove>:
   15efa:	55                   	push   %ebp
   15efb:	89 e5                	mov    %esp,%ebp
   15efd:	83 ec 18             	sub    $0x18,%esp
   15f00:	83 7d 08 00          	cmpl   $0x0,0x8(%ebp)
   15f04:	75 3b                	jne    15f41 <_vec_remove+0x47>
   15f06:	83 ec 04             	sub    $0x4,%esp
   15f09:	68 d0 9f 01 00       	push   $0x19fd0
   15f0e:	6a 01                	push   $0x1
   15f10:	68 95 00 00 00       	push   $0x95
   15f15:	68 d9 9f 01 00       	push   $0x19fd9
   15f1a:	68 68 a0 01 00       	push   $0x1a068
   15f1f:	68 e2 9f 01 00       	push   $0x19fe2
   15f24:	68 e0 f8 01 00       	push   $0x1f8e0
   15f29:	e8 87 bc ff ff       	call   11bb5 <__sprint>
   15f2e:	83 c4 20             	add    $0x20,%esp
   15f31:	83 ec 0c             	sub    $0xc,%esp
   15f34:	68 e0 f8 01 00       	push   $0x1f8e0
   15f39:	e8 52 ca ff ff       	call   12990 <_kpanic>
   15f3e:	83 c4 10             	add    $0x10,%esp
   15f41:	8b 45 08             	mov    0x8(%ebp),%eax
   15f44:	8b 00                	mov    (%eax),%eax
   15f46:	85 c0                	test   %eax,%eax
   15f48:	75 0a                	jne    15f54 <_vec_remove+0x5a>
   15f4a:	b8 00 00 00 00       	mov    $0x0,%eax
   15f4f:	e9 e4 00 00 00       	jmp    16038 <_vec_remove+0x13e>
   15f54:	c7 45 f4 00 00 00 00 	movl   $0x0,-0xc(%ebp)
   15f5b:	eb 19                	jmp    15f76 <_vec_remove+0x7c>
   15f5d:	8b 45 08             	mov    0x8(%ebp),%eax
   15f60:	8b 40 04             	mov    0x4(%eax),%eax
   15f63:	85 c0                	test   %eax,%eax
   15f65:	74 1b                	je     15f82 <_vec_remove+0x88>
   15f67:	8b 45 08             	mov    0x8(%ebp),%eax
   15f6a:	89 45 f4             	mov    %eax,-0xc(%ebp)
   15f6d:	8b 45 08             	mov    0x8(%ebp),%eax
   15f70:	8b 40 04             	mov    0x4(%eax),%eax
   15f73:	89 45 08             	mov    %eax,0x8(%ebp)
   15f76:	8b 45 08             	mov    0x8(%ebp),%eax
   15f79:	8b 00                	mov    (%eax),%eax
   15f7b:	83 f8 7e             	cmp    $0x7e,%eax
   15f7e:	77 dd                	ja     15f5d <_vec_remove+0x63>
   15f80:	eb 01                	jmp    15f83 <_vec_remove+0x89>
   15f82:	90                   	nop
   15f83:	8b 45 08             	mov    0x8(%ebp),%eax
   15f86:	8b 00                	mov    (%eax),%eax
   15f88:	85 c0                	test   %eax,%eax
   15f8a:	75 66                	jne    15ff2 <_vec_remove+0xf8>
   15f8c:	83 7d f4 00          	cmpl   $0x0,-0xc(%ebp)
   15f90:	75 3b                	jne    15fcd <_vec_remove+0xd3>
   15f92:	83 ec 04             	sub    $0x4,%esp
   15f95:	68 0e a0 01 00       	push   $0x1a00e
   15f9a:	6a 01                	push   $0x1
   15f9c:	68 d8 00 00 00       	push   $0xd8
   15fa1:	68 d9 9f 01 00       	push   $0x19fd9
   15fa6:	68 68 a0 01 00       	push   $0x1a068
   15fab:	68 e2 9f 01 00       	push   $0x19fe2
   15fb0:	68 e0 f8 01 00       	push   $0x1f8e0
   15fb5:	e8 fb bb ff ff       	call   11bb5 <__sprint>
   15fba:	83 c4 20             	add    $0x20,%esp
   15fbd:	83 ec 0c             	sub    $0xc,%esp
   15fc0:	68 e0 f8 01 00       	push   $0x1f8e0
   15fc5:	e8 c6 c9 ff ff       	call   12990 <_kpanic>
   15fca:	83 c4 10             	add    $0x10,%esp
   15fcd:	83 ec 0c             	sub    $0xc,%esp
   15fd0:	ff 75 08             	pushl  0x8(%ebp)
   15fd3:	e8 2b d1 ff ff       	call   13103 <_km_slice_free>
   15fd8:	83 c4 10             	add    $0x10,%esp
   15fdb:	8b 45 f4             	mov    -0xc(%ebp),%eax
   15fde:	89 45 08             	mov    %eax,0x8(%ebp)
   15fe1:	c7 45 f4 00 00 00 00 	movl   $0x0,-0xc(%ebp)
   15fe8:	8b 45 08             	mov    0x8(%ebp),%eax
   15feb:	c7 40 04 00 00 00 00 	movl   $0x0,0x4(%eax)
   15ff2:	8b 45 08             	mov    0x8(%ebp),%eax
   15ff5:	8b 00                	mov    (%eax),%eax
   15ff7:	8d 50 ff             	lea    -0x1(%eax),%edx
   15ffa:	8b 45 08             	mov    0x8(%ebp),%eax
   15ffd:	89 10                	mov    %edx,(%eax)
   15fff:	8b 45 08             	mov    0x8(%ebp),%eax
   16002:	8b 10                	mov    (%eax),%edx
   16004:	8b 45 08             	mov    0x8(%ebp),%eax
   16007:	8b 44 d0 0c          	mov    0xc(%eax,%edx,8),%eax
   1600b:	89 45 f0             	mov    %eax,-0x10(%ebp)
   1600e:	8b 45 08             	mov    0x8(%ebp),%eax
   16011:	8b 00                	mov    (%eax),%eax
   16013:	85 c0                	test   %eax,%eax
   16015:	75 1e                	jne    16035 <_vec_remove+0x13b>
   16017:	83 7d f4 00          	cmpl   $0x0,-0xc(%ebp)
   1601b:	74 18                	je     16035 <_vec_remove+0x13b>
   1601d:	83 ec 0c             	sub    $0xc,%esp
   16020:	ff 75 08             	pushl  0x8(%ebp)
   16023:	e8 db d0 ff ff       	call   13103 <_km_slice_free>
   16028:	83 c4 10             	add    $0x10,%esp
   1602b:	8b 45 f4             	mov    -0xc(%ebp),%eax
   1602e:	c7 40 04 00 00 00 00 	movl   $0x0,0x4(%eax)
   16035:	8b 45 f0             	mov    -0x10(%ebp),%eax
   16038:	c9                   	leave  
   16039:	c3                   	ret    

0001603a <_vec_dump>:
   1603a:	55                   	push   %ebp
   1603b:	89 e5                	mov    %esp,%ebp
   1603d:	83 ec 28             	sub    $0x28,%esp
   16040:	8b 45 10             	mov    0x10(%ebp),%eax
   16043:	88 45 e4             	mov    %al,-0x1c(%ebp)
   16046:	83 7d 08 00          	cmpl   $0x0,0x8(%ebp)
   1604a:	74 0e                	je     1605a <_vec_dump+0x20>
   1604c:	83 ec 0c             	sub    $0xc,%esp
   1604f:	ff 75 08             	pushl  0x8(%ebp)
   16052:	e8 82 af ff ff       	call   10fd9 <__cio_puts>
   16057:	83 c4 10             	add    $0x10,%esp
   1605a:	83 7d 0c 00          	cmpl   $0x0,0xc(%ebp)
   1605e:	75 15                	jne    16075 <_vec_dump+0x3b>
   16060:	83 ec 0c             	sub    $0xc,%esp
   16063:	68 18 a0 01 00       	push   $0x1a018
   16068:	e8 6c af ff ff       	call   10fd9 <__cio_puts>
   1606d:	83 c4 10             	add    $0x10,%esp
   16070:	e9 b6 00 00 00       	jmp    1612b <_vec_dump+0xf1>
   16075:	8b 45 0c             	mov    0xc(%ebp),%eax
   16078:	8b 00                	mov    (%eax),%eax
   1607a:	83 ec 04             	sub    $0x4,%esp
   1607d:	6a 7f                	push   $0x7f
   1607f:	50                   	push   %eax
   16080:	68 22 a0 01 00       	push   $0x1a022
   16085:	e8 c9 b5 ff ff       	call   11653 <__cio_printf>
   1608a:	83 c4 10             	add    $0x10,%esp
   1608d:	8b 45 0c             	mov    0xc(%ebp),%eax
   16090:	8b 40 04             	mov    0x4(%eax),%eax
   16093:	85 c0                	test   %eax,%eax
   16095:	74 17                	je     160ae <_vec_dump+0x74>
   16097:	8b 45 0c             	mov    0xc(%ebp),%eax
   1609a:	8b 40 04             	mov    0x4(%eax),%eax
   1609d:	83 ec 08             	sub    $0x8,%esp
   160a0:	50                   	push   %eax
   160a1:	68 33 a0 01 00       	push   $0x1a033
   160a6:	e8 a8 b5 ff ff       	call   11653 <__cio_printf>
   160ab:	83 c4 10             	add    $0x10,%esp
   160ae:	83 ec 0c             	sub    $0xc,%esp
   160b1:	68 48 a0 01 00       	push   $0x1a048
   160b6:	e8 1e af ff ff       	call   10fd9 <__cio_puts>
   160bb:	83 c4 10             	add    $0x10,%esp
   160be:	c7 45 f4 00 00 00 00 	movl   $0x0,-0xc(%ebp)
   160c5:	eb 48                	jmp    1610f <_vec_dump+0xd5>
   160c7:	80 7d e4 00          	cmpb   $0x0,-0x1c(%ebp)
   160cb:	75 18                	jne    160e5 <_vec_dump+0xab>
   160cd:	83 7d f4 04          	cmpl   $0x4,-0xc(%ebp)
   160d1:	7e 12                	jle    160e5 <_vec_dump+0xab>
   160d3:	83 ec 0c             	sub    $0xc,%esp
   160d6:	68 4a a0 01 00       	push   $0x1a04a
   160db:	e8 f9 ae ff ff       	call   10fd9 <__cio_puts>
   160e0:	83 c4 10             	add    $0x10,%esp
   160e3:	eb 36                	jmp    1611b <_vec_dump+0xe1>
   160e5:	8b 45 0c             	mov    0xc(%ebp),%eax
   160e8:	8b 55 f4             	mov    -0xc(%ebp),%edx
   160eb:	8b 54 d0 0c          	mov    0xc(%eax,%edx,8),%edx
   160ef:	8b 45 0c             	mov    0xc(%ebp),%eax
   160f2:	8b 4d f4             	mov    -0xc(%ebp),%ecx
   160f5:	8b 44 c8 08          	mov    0x8(%eax,%ecx,8),%eax
   160f9:	83 ec 04             	sub    $0x4,%esp
   160fc:	52                   	push   %edx
   160fd:	50                   	push   %eax
   160fe:	68 4e a0 01 00       	push   $0x1a04e
   16103:	e8 4b b5 ff ff       	call   11653 <__cio_printf>
   16108:	83 c4 10             	add    $0x10,%esp
   1610b:	83 45 f4 01          	addl   $0x1,-0xc(%ebp)
   1610f:	8b 45 0c             	mov    0xc(%ebp),%eax
   16112:	8b 10                	mov    (%eax),%edx
   16114:	8b 45 f4             	mov    -0xc(%ebp),%eax
   16117:	39 c2                	cmp    %eax,%edx
   16119:	77 ac                	ja     160c7 <_vec_dump+0x8d>
   1611b:	83 ec 0c             	sub    $0xc,%esp
   1611e:	68 48 a0 01 00       	push   $0x1a048
   16123:	e8 b1 ae ff ff       	call   10fd9 <__cio_puts>
   16128:	83 c4 10             	add    $0x10,%esp
   1612b:	c9                   	leave  
   1612c:	c3                   	ret    

0001612d <file_system_init>:
   1612d:	55                   	push   %ebp
   1612e:	89 e5                	mov    %esp,%ebp
   16130:	83 ec 28             	sub    $0x28,%esp
   16133:	c7 45 e0 01 00 00 c0 	movl   $0xc0000001,-0x20(%ebp)
   1613a:	8b 45 e0             	mov    -0x20(%ebp),%eax
   1613d:	c7 00 c0 03 00 00    	movl   $0x3c0,(%eax)
   16143:	8b 45 e0             	mov    -0x20(%ebp),%eax
   16146:	c7 40 04 40 00 00 00 	movl   $0x40,0x4(%eax)
   1614d:	c7 45 f4 1d 00 00 c0 	movl   $0xc000001d,-0xc(%ebp)
   16154:	8b 45 e0             	mov    -0x20(%ebp),%eax
   16157:	c7 40 08 00 00 00 00 	movl   $0x0,0x8(%eax)
   1615e:	c7 45 f0 00 00 00 00 	movl   $0x0,-0x10(%ebp)
   16165:	eb 73                	jmp    161da <file_system_init+0xad>
   16167:	8b 45 f4             	mov    -0xc(%ebp),%eax
   1616a:	89 45 d8             	mov    %eax,-0x28(%ebp)
   1616d:	83 7d d8 00          	cmpl   $0x0,-0x28(%ebp)
   16171:	75 10                	jne    16183 <file_system_init+0x56>
   16173:	83 ec 0c             	sub    $0xc,%esp
   16176:	68 74 a0 01 00       	push   $0x1a074
   1617b:	e8 10 c8 ff ff       	call   12990 <_kpanic>
   16180:	83 c4 10             	add    $0x10,%esp
   16183:	8b 45 d8             	mov    -0x28(%ebp),%eax
   16186:	c7 00 00 00 00 00    	movl   $0x0,(%eax)
   1618c:	8b 45 d8             	mov    -0x28(%ebp),%eax
   1618f:	c7 40 04 00 00 00 00 	movl   $0x0,0x4(%eax)
   16196:	8b 45 e0             	mov    -0x20(%ebp),%eax
   16199:	8b 40 08             	mov    0x8(%eax),%eax
   1619c:	85 c0                	test   %eax,%eax
   1619e:	75 0b                	jne    161ab <file_system_init+0x7e>
   161a0:	8b 45 e0             	mov    -0x20(%ebp),%eax
   161a3:	8b 55 d8             	mov    -0x28(%ebp),%edx
   161a6:	89 50 08             	mov    %edx,0x8(%eax)
   161a9:	eb 27                	jmp    161d2 <file_system_init+0xa5>
   161ab:	8b 45 e0             	mov    -0x20(%ebp),%eax
   161ae:	8b 40 08             	mov    0x8(%eax),%eax
   161b1:	89 45 ec             	mov    %eax,-0x14(%ebp)
   161b4:	eb 09                	jmp    161bf <file_system_init+0x92>
   161b6:	8b 45 ec             	mov    -0x14(%ebp),%eax
   161b9:	8b 40 04             	mov    0x4(%eax),%eax
   161bc:	89 45 ec             	mov    %eax,-0x14(%ebp)
   161bf:	8b 45 ec             	mov    -0x14(%ebp),%eax
   161c2:	8b 40 04             	mov    0x4(%eax),%eax
   161c5:	85 c0                	test   %eax,%eax
   161c7:	75 ed                	jne    161b6 <file_system_init+0x89>
   161c9:	8b 45 ec             	mov    -0x14(%ebp),%eax
   161cc:	8b 55 d8             	mov    -0x28(%ebp),%edx
   161cf:	89 50 04             	mov    %edx,0x4(%eax)
   161d2:	83 45 f4 41          	addl   $0x41,-0xc(%ebp)
   161d6:	83 45 f0 01          	addl   $0x1,-0x10(%ebp)
   161da:	83 7d f0 3f          	cmpl   $0x3f,-0x10(%ebp)
   161de:	7e 87                	jle    16167 <file_system_init+0x3a>
   161e0:	8b 45 e0             	mov    -0x20(%ebp),%eax
   161e3:	c7 40 0c 00 00 00 00 	movl   $0x0,0xc(%eax)
   161ea:	8b 45 e0             	mov    -0x20(%ebp),%eax
   161ed:	c7 40 10 00 00 00 00 	movl   $0x0,0x10(%eax)
   161f4:	c7 45 e8 00 00 00 00 	movl   $0x0,-0x18(%ebp)
   161fb:	eb 76                	jmp    16273 <file_system_init+0x146>
   161fd:	8b 45 f4             	mov    -0xc(%ebp),%eax
   16200:	89 45 dc             	mov    %eax,-0x24(%ebp)
   16203:	83 7d dc 00          	cmpl   $0x0,-0x24(%ebp)
   16207:	75 10                	jne    16219 <file_system_init+0xec>
   16209:	83 ec 0c             	sub    $0xc,%esp
   1620c:	68 74 a0 01 00       	push   $0x1a074
   16211:	e8 7a c7 ff ff       	call   12990 <_kpanic>
   16216:	83 c4 10             	add    $0x10,%esp
   16219:	8b 45 dc             	mov    -0x24(%ebp),%eax
   1621c:	c7 00 00 00 00 00    	movl   $0x0,(%eax)
   16222:	8b 45 dc             	mov    -0x24(%ebp),%eax
   16225:	c7 40 04 00 00 00 00 	movl   $0x0,0x4(%eax)
   1622c:	8b 45 e0             	mov    -0x20(%ebp),%eax
   1622f:	8b 40 10             	mov    0x10(%eax),%eax
   16232:	85 c0                	test   %eax,%eax
   16234:	75 0b                	jne    16241 <file_system_init+0x114>
   16236:	8b 45 e0             	mov    -0x20(%ebp),%eax
   16239:	8b 55 dc             	mov    -0x24(%ebp),%edx
   1623c:	89 50 10             	mov    %edx,0x10(%eax)
   1623f:	eb 27                	jmp    16268 <file_system_init+0x13b>
   16241:	8b 45 e0             	mov    -0x20(%ebp),%eax
   16244:	8b 40 10             	mov    0x10(%eax),%eax
   16247:	89 45 e4             	mov    %eax,-0x1c(%ebp)
   1624a:	eb 09                	jmp    16255 <file_system_init+0x128>
   1624c:	8b 45 e4             	mov    -0x1c(%ebp),%eax
   1624f:	8b 40 04             	mov    0x4(%eax),%eax
   16252:	89 45 e4             	mov    %eax,-0x1c(%ebp)
   16255:	8b 45 e4             	mov    -0x1c(%ebp),%eax
   16258:	8b 40 04             	mov    0x4(%eax),%eax
   1625b:	85 c0                	test   %eax,%eax
   1625d:	75 ed                	jne    1624c <file_system_init+0x11f>
   1625f:	8b 45 e4             	mov    -0x1c(%ebp),%eax
   16262:	8b 55 dc             	mov    -0x24(%ebp),%edx
   16265:	89 50 04             	mov    %edx,0x4(%eax)
   16268:	81 45 f4 11 02 00 00 	addl   $0x211,-0xc(%ebp)
   1626f:	83 45 e8 01          	addl   $0x1,-0x18(%ebp)
   16273:	81 7d e8 bf 03 00 00 	cmpl   $0x3bf,-0x18(%ebp)
   1627a:	7e 81                	jle    161fd <file_system_init+0xd0>
   1627c:	8b 45 e0             	mov    -0x20(%ebp),%eax
   1627f:	c7 40 14 00 00 00 00 	movl   $0x0,0x14(%eax)
   16286:	8b 45 e0             	mov    -0x20(%ebp),%eax
   16289:	c7 40 18 00 00 00 00 	movl   $0x0,0x18(%eax)
   16290:	8b 45 e0             	mov    -0x20(%ebp),%eax
   16293:	c7 40 1c 00 00 00 00 	movl   $0x0,0x1c(%eax)
   1629a:	8b 45 e0             	mov    -0x20(%ebp),%eax
   1629d:	c9                   	leave  
   1629e:	c3                   	ret    

0001629f <create_inode>:
   1629f:	55                   	push   %ebp
   162a0:	89 e5                	mov    %esp,%ebp
   162a2:	81 ec 88 00 00 00    	sub    $0x88,%esp
   162a8:	8b 55 10             	mov    0x10(%ebp),%edx
   162ab:	8b 45 14             	mov    0x14(%ebp),%eax
   162ae:	88 55 84             	mov    %dl,-0x7c(%ebp)
   162b1:	88 45 80             	mov    %al,-0x80(%ebp)
   162b4:	8b 45 08             	mov    0x8(%ebp),%eax
   162b7:	8b 40 08             	mov    0x8(%eax),%eax
   162ba:	85 c0                	test   %eax,%eax
   162bc:	75 10                	jne    162ce <create_inode+0x2f>
   162be:	83 ec 0c             	sub    $0xc,%esp
   162c1:	68 85 a0 01 00       	push   $0x1a085
   162c6:	e8 c5 c6 ff ff       	call   12990 <_kpanic>
   162cb:	83 c4 10             	add    $0x10,%esp
   162ce:	8b 45 08             	mov    0x8(%ebp),%eax
   162d1:	8b 40 0c             	mov    0xc(%eax),%eax
   162d4:	85 c0                	test   %eax,%eax
   162d6:	75 2d                	jne    16305 <create_inode+0x66>
   162d8:	8b 45 08             	mov    0x8(%ebp),%eax
   162db:	8b 40 08             	mov    0x8(%eax),%eax
   162de:	89 45 ec             	mov    %eax,-0x14(%ebp)
   162e1:	8b 45 ec             	mov    -0x14(%ebp),%eax
   162e4:	c7 40 04 00 00 00 00 	movl   $0x0,0x4(%eax)
   162eb:	8b 45 08             	mov    0x8(%ebp),%eax
   162ee:	8b 55 ec             	mov    -0x14(%ebp),%edx
   162f1:	89 50 0c             	mov    %edx,0xc(%eax)
   162f4:	8b 45 08             	mov    0x8(%ebp),%eax
   162f7:	8b 40 08             	mov    0x8(%eax),%eax
   162fa:	8b 50 04             	mov    0x4(%eax),%edx
   162fd:	8b 45 08             	mov    0x8(%ebp),%eax
   16300:	89 50 08             	mov    %edx,0x8(%eax)
   16303:	eb 30                	jmp    16335 <create_inode+0x96>
   16305:	8b 45 08             	mov    0x8(%ebp),%eax
   16308:	8b 40 08             	mov    0x8(%eax),%eax
   1630b:	89 45 f0             	mov    %eax,-0x10(%ebp)
   1630e:	8b 45 08             	mov    0x8(%ebp),%eax
   16311:	8b 40 08             	mov    0x8(%eax),%eax
   16314:	89 45 ec             	mov    %eax,-0x14(%ebp)
   16317:	8b 45 f0             	mov    -0x10(%ebp),%eax
   1631a:	8b 40 04             	mov    0x4(%eax),%eax
   1631d:	89 45 f0             	mov    %eax,-0x10(%ebp)
   16320:	8b 45 08             	mov    0x8(%ebp),%eax
   16323:	8b 50 0c             	mov    0xc(%eax),%edx
   16326:	8b 45 ec             	mov    -0x14(%ebp),%eax
   16329:	89 50 04             	mov    %edx,0x4(%eax)
   1632c:	8b 45 08             	mov    0x8(%ebp),%eax
   1632f:	8b 55 ec             	mov    -0x14(%ebp),%edx
   16332:	89 50 0c             	mov    %edx,0xc(%eax)
   16335:	8b 45 08             	mov    0x8(%ebp),%eax
   16338:	83 c0 0c             	add    $0xc,%eax
   1633b:	89 45 e8             	mov    %eax,-0x18(%ebp)
   1633e:	83 7d e8 00          	cmpl   $0x0,-0x18(%ebp)
   16342:	75 10                	jne    16354 <create_inode+0xb5>
   16344:	83 ec 0c             	sub    $0xc,%esp
   16347:	68 94 a0 01 00       	push   $0x1a094
   1634c:	e8 3f c6 ff ff       	call   12990 <_kpanic>
   16351:	83 c4 10             	add    $0x10,%esp
   16354:	83 ec 04             	sub    $0x4,%esp
   16357:	ff 75 e8             	pushl  -0x18(%ebp)
   1635a:	68 b3 a0 01 00       	push   $0x1a0b3
   1635f:	8d 45 94             	lea    -0x6c(%ebp),%eax
   16362:	50                   	push   %eax
   16363:	e8 c3 29 00 00       	call   18d2b <sprint>
   16368:	83 c4 10             	add    $0x10,%esp
   1636b:	83 ec 0c             	sub    $0xc,%esp
   1636e:	8d 45 94             	lea    -0x6c(%ebp),%eax
   16371:	50                   	push   %eax
   16372:	e8 23 27 00 00       	call   18a9a <cwrites>
   16377:	83 c4 10             	add    $0x10,%esp
   1637a:	8b 45 e8             	mov    -0x18(%ebp),%eax
   1637d:	89 45 e4             	mov    %eax,-0x1c(%ebp)
   16380:	8b 45 e4             	mov    -0x1c(%ebp),%eax
   16383:	c6 00 05             	movb   $0x5,(%eax)
   16386:	8b 45 e4             	mov    -0x1c(%ebp),%eax
   16389:	c6 40 01 00          	movb   $0x0,0x1(%eax)
   1638d:	c7 45 f4 00 00 00 00 	movl   $0x0,-0xc(%ebp)
   16394:	eb 12                	jmp    163a8 <create_inode+0x109>
   16396:	8b 45 e4             	mov    -0x1c(%ebp),%eax
   16399:	8b 55 f4             	mov    -0xc(%ebp),%edx
   1639c:	c7 44 90 04 00 00 00 	movl   $0x0,0x4(%eax,%edx,4)
   163a3:	00 
   163a4:	83 45 f4 01          	addl   $0x1,-0xc(%ebp)
   163a8:	83 7d f4 0e          	cmpl   $0xe,-0xc(%ebp)
   163ac:	7e e8                	jle    16396 <create_inode+0xf7>
   163ae:	8b 45 e4             	mov    -0x1c(%ebp),%eax
   163b1:	89 45 0c             	mov    %eax,0xc(%ebp)
   163b4:	8b 45 08             	mov    0x8(%ebp),%eax
   163b7:	8b 40 04             	mov    0x4(%eax),%eax
   163ba:	8d 50 ff             	lea    -0x1(%eax),%edx
   163bd:	8b 45 08             	mov    0x8(%ebp),%eax
   163c0:	89 50 04             	mov    %edx,0x4(%eax)
   163c3:	8b 45 e4             	mov    -0x1c(%ebp),%eax
   163c6:	c9                   	leave  
   163c7:	c3                   	ret    

000163c8 <delete_pointer_in_inode>:
   163c8:	55                   	push   %ebp
   163c9:	89 e5                	mov    %esp,%ebp
   163cb:	83 ec 48             	sub    $0x48,%esp
   163ce:	8b 55 10             	mov    0x10(%ebp),%edx
   163d1:	8b 45 14             	mov    0x14(%ebp),%eax
   163d4:	88 55 c4             	mov    %dl,-0x3c(%ebp)
   163d7:	88 45 c0             	mov    %al,-0x40(%ebp)
   163da:	8b 45 08             	mov    0x8(%ebp),%eax
   163dd:	8b 40 10             	mov    0x10(%eax),%eax
   163e0:	85 c0                	test   %eax,%eax
   163e2:	75 10                	jne    163f4 <delete_pointer_in_inode+0x2c>
   163e4:	83 ec 0c             	sub    $0xc,%esp
   163e7:	68 85 a0 01 00       	push   $0x1a085
   163ec:	e8 9f c5 ff ff       	call   12990 <_kpanic>
   163f1:	83 c4 10             	add    $0x10,%esp
   163f4:	83 7d 0c 00          	cmpl   $0x0,0xc(%ebp)
   163f8:	75 10                	jne    1640a <delete_pointer_in_inode+0x42>
   163fa:	83 ec 0c             	sub    $0xc,%esp
   163fd:	68 85 a0 01 00       	push   $0x1a085
   16402:	e8 89 c5 ff ff       	call   12990 <_kpanic>
   16407:	83 c4 10             	add    $0x10,%esp
   1640a:	80 7d c0 00          	cmpb   $0x0,-0x40(%ebp)
   1640e:	0f 85 be 00 00 00    	jne    164d2 <delete_pointer_in_inode+0x10a>
   16414:	0f b6 55 c4          	movzbl -0x3c(%ebp),%edx
   16418:	8b 45 0c             	mov    0xc(%ebp),%eax
   1641b:	c7 44 90 04 00 00 00 	movl   $0x0,0x4(%eax,%edx,4)
   16422:	00 
   16423:	8b 45 08             	mov    0x8(%ebp),%eax
   16426:	8b 40 08             	mov    0x8(%eax),%eax
   16429:	89 45 d4             	mov    %eax,-0x2c(%ebp)
   1642c:	8b 45 08             	mov    0x8(%ebp),%eax
   1642f:	8b 40 14             	mov    0x14(%eax),%eax
   16432:	89 45 f4             	mov    %eax,-0xc(%ebp)
   16435:	c7 45 f0 00 00 00 00 	movl   $0x0,-0x10(%ebp)
   1643c:	c6 45 ef 00          	movb   $0x0,-0x11(%ebp)
   16440:	eb 1f                	jmp    16461 <delete_pointer_in_inode+0x99>
   16442:	8b 45 f4             	mov    -0xc(%ebp),%eax
   16445:	8b 00                	mov    (%eax),%eax
   16447:	39 45 0c             	cmp    %eax,0xc(%ebp)
   1644a:	75 06                	jne    16452 <delete_pointer_in_inode+0x8a>
   1644c:	c6 45 ef 01          	movb   $0x1,-0x11(%ebp)
   16450:	eb 19                	jmp    1646b <delete_pointer_in_inode+0xa3>
   16452:	8b 45 f4             	mov    -0xc(%ebp),%eax
   16455:	89 45 f0             	mov    %eax,-0x10(%ebp)
   16458:	8b 45 f4             	mov    -0xc(%ebp),%eax
   1645b:	8b 40 04             	mov    0x4(%eax),%eax
   1645e:	89 45 f4             	mov    %eax,-0xc(%ebp)
   16461:	8b 45 f4             	mov    -0xc(%ebp),%eax
   16464:	8b 40 04             	mov    0x4(%eax),%eax
   16467:	85 c0                	test   %eax,%eax
   16469:	75 d7                	jne    16442 <delete_pointer_in_inode+0x7a>
   1646b:	80 7d ef 00          	cmpb   $0x0,-0x11(%ebp)
   1646f:	75 10                	jne    16481 <delete_pointer_in_inode+0xb9>
   16471:	83 ec 0c             	sub    $0xc,%esp
   16474:	68 ce a0 01 00       	push   $0x1a0ce
   16479:	e8 12 c5 ff ff       	call   12990 <_kpanic>
   1647e:	83 c4 10             	add    $0x10,%esp
   16481:	8b 45 f0             	mov    -0x10(%ebp),%eax
   16484:	89 45 d0             	mov    %eax,-0x30(%ebp)
   16487:	8b 45 d0             	mov    -0x30(%ebp),%eax
   1648a:	c7 00 00 00 00 00    	movl   $0x0,(%eax)
   16490:	8b 45 d0             	mov    -0x30(%ebp),%eax
   16493:	8b 55 d4             	mov    -0x2c(%ebp),%edx
   16496:	89 50 04             	mov    %edx,0x4(%eax)
   16499:	8b 45 08             	mov    0x8(%ebp),%eax
   1649c:	8b 55 d0             	mov    -0x30(%ebp),%edx
   1649f:	89 50 08             	mov    %edx,0x8(%eax)
   164a2:	8b 45 f4             	mov    -0xc(%ebp),%eax
   164a5:	8b 50 04             	mov    0x4(%eax),%edx
   164a8:	8b 45 f0             	mov    -0x10(%ebp),%eax
   164ab:	89 50 04             	mov    %edx,0x4(%eax)
   164ae:	8b 45 08             	mov    0x8(%ebp),%eax
   164b1:	8b 40 04             	mov    0x4(%eax),%eax
   164b4:	8d 50 01             	lea    0x1(%eax),%edx
   164b7:	8b 45 08             	mov    0x8(%ebp),%eax
   164ba:	89 50 04             	mov    %edx,0x4(%eax)
   164bd:	8b 45 0c             	mov    0xc(%ebp),%eax
   164c0:	0f b6 40 01          	movzbl 0x1(%eax),%eax
   164c4:	8d 50 ff             	lea    -0x1(%eax),%edx
   164c7:	8b 45 0c             	mov    0xc(%ebp),%eax
   164ca:	88 50 01             	mov    %dl,0x1(%eax)
   164cd:	e9 b7 00 00 00       	jmp    16589 <delete_pointer_in_inode+0x1c1>
   164d2:	0f b6 55 c4          	movzbl -0x3c(%ebp),%edx
   164d6:	8b 45 0c             	mov    0xc(%ebp),%eax
   164d9:	c7 44 90 04 00 00 00 	movl   $0x0,0x4(%eax,%edx,4)
   164e0:	00 
   164e1:	8b 45 08             	mov    0x8(%ebp),%eax
   164e4:	8b 40 10             	mov    0x10(%eax),%eax
   164e7:	89 45 dc             	mov    %eax,-0x24(%ebp)
   164ea:	8b 45 08             	mov    0x8(%ebp),%eax
   164ed:	8b 40 14             	mov    0x14(%eax),%eax
   164f0:	89 45 e8             	mov    %eax,-0x18(%ebp)
   164f3:	c7 45 e4 00 00 00 00 	movl   $0x0,-0x1c(%ebp)
   164fa:	c6 45 e3 00          	movb   $0x0,-0x1d(%ebp)
   164fe:	eb 1f                	jmp    1651f <delete_pointer_in_inode+0x157>
   16500:	8b 45 e8             	mov    -0x18(%ebp),%eax
   16503:	8b 00                	mov    (%eax),%eax
   16505:	39 45 0c             	cmp    %eax,0xc(%ebp)
   16508:	75 06                	jne    16510 <delete_pointer_in_inode+0x148>
   1650a:	c6 45 e3 01          	movb   $0x1,-0x1d(%ebp)
   1650e:	eb 19                	jmp    16529 <delete_pointer_in_inode+0x161>
   16510:	8b 45 e8             	mov    -0x18(%ebp),%eax
   16513:	89 45 e4             	mov    %eax,-0x1c(%ebp)
   16516:	8b 45 e8             	mov    -0x18(%ebp),%eax
   16519:	8b 40 04             	mov    0x4(%eax),%eax
   1651c:	89 45 e8             	mov    %eax,-0x18(%ebp)
   1651f:	8b 45 e8             	mov    -0x18(%ebp),%eax
   16522:	8b 40 04             	mov    0x4(%eax),%eax
   16525:	85 c0                	test   %eax,%eax
   16527:	75 d7                	jne    16500 <delete_pointer_in_inode+0x138>
   16529:	80 7d e3 00          	cmpb   $0x0,-0x1d(%ebp)
   1652d:	75 10                	jne    1653f <delete_pointer_in_inode+0x177>
   1652f:	83 ec 0c             	sub    $0xc,%esp
   16532:	68 ce a0 01 00       	push   $0x1a0ce
   16537:	e8 54 c4 ff ff       	call   12990 <_kpanic>
   1653c:	83 c4 10             	add    $0x10,%esp
   1653f:	8b 45 e4             	mov    -0x1c(%ebp),%eax
   16542:	89 45 d8             	mov    %eax,-0x28(%ebp)
   16545:	8b 45 d8             	mov    -0x28(%ebp),%eax
   16548:	c7 00 00 00 00 00    	movl   $0x0,(%eax)
   1654e:	8b 45 d8             	mov    -0x28(%ebp),%eax
   16551:	8b 55 dc             	mov    -0x24(%ebp),%edx
   16554:	89 50 04             	mov    %edx,0x4(%eax)
   16557:	8b 45 08             	mov    0x8(%ebp),%eax
   1655a:	8b 55 d8             	mov    -0x28(%ebp),%edx
   1655d:	89 50 10             	mov    %edx,0x10(%eax)
   16560:	8b 45 e8             	mov    -0x18(%ebp),%eax
   16563:	8b 50 04             	mov    0x4(%eax),%edx
   16566:	8b 45 e4             	mov    -0x1c(%ebp),%eax
   16569:	89 50 04             	mov    %edx,0x4(%eax)
   1656c:	8b 45 08             	mov    0x8(%ebp),%eax
   1656f:	8b 00                	mov    (%eax),%eax
   16571:	8d 50 01             	lea    0x1(%eax),%edx
   16574:	8b 45 08             	mov    0x8(%ebp),%eax
   16577:	89 10                	mov    %edx,(%eax)
   16579:	8b 45 0c             	mov    0xc(%ebp),%eax
   1657c:	0f b6 40 01          	movzbl 0x1(%eax),%eax
   16580:	8d 50 ff             	lea    -0x1(%eax),%edx
   16583:	8b 45 0c             	mov    0xc(%ebp),%eax
   16586:	88 50 01             	mov    %dl,0x1(%eax)
   16589:	90                   	nop
   1658a:	c9                   	leave  
   1658b:	c3                   	ret    

0001658c <create_data_block>:
   1658c:	55                   	push   %ebp
   1658d:	89 e5                	mov    %esp,%ebp
   1658f:	83 ec 28             	sub    $0x28,%esp
   16592:	8b 55 10             	mov    0x10(%ebp),%edx
   16595:	8b 45 1c             	mov    0x1c(%ebp),%eax
   16598:	88 55 e4             	mov    %dl,-0x1c(%ebp)
   1659b:	88 45 e0             	mov    %al,-0x20(%ebp)
   1659e:	8b 45 08             	mov    0x8(%ebp),%eax
   165a1:	8b 40 10             	mov    0x10(%eax),%eax
   165a4:	85 c0                	test   %eax,%eax
   165a6:	75 10                	jne    165b8 <create_data_block+0x2c>
   165a8:	83 ec 0c             	sub    $0xc,%esp
   165ab:	68 d8 a0 01 00       	push   $0x1a0d8
   165b0:	e8 db c3 ff ff       	call   12990 <_kpanic>
   165b5:	83 c4 10             	add    $0x10,%esp
   165b8:	80 7d e0 00          	cmpb   $0x0,-0x20(%ebp)
   165bc:	75 16                	jne    165d4 <create_data_block+0x48>
   165be:	80 7d e4 00          	cmpb   $0x0,-0x1c(%ebp)
   165c2:	75 10                	jne    165d4 <create_data_block+0x48>
   165c4:	83 ec 0c             	sub    $0xc,%esp
   165c7:	68 e7 a0 01 00       	push   $0x1a0e7
   165cc:	e8 bf c3 ff ff       	call   12990 <_kpanic>
   165d1:	83 c4 10             	add    $0x10,%esp
   165d4:	8b 45 08             	mov    0x8(%ebp),%eax
   165d7:	8b 40 14             	mov    0x14(%eax),%eax
   165da:	85 c0                	test   %eax,%eax
   165dc:	75 2d                	jne    1660b <create_data_block+0x7f>
   165de:	8b 45 08             	mov    0x8(%ebp),%eax
   165e1:	8b 40 10             	mov    0x10(%eax),%eax
   165e4:	89 45 f0             	mov    %eax,-0x10(%ebp)
   165e7:	8b 45 f0             	mov    -0x10(%ebp),%eax
   165ea:	c7 40 04 00 00 00 00 	movl   $0x0,0x4(%eax)
   165f1:	8b 45 08             	mov    0x8(%ebp),%eax
   165f4:	8b 55 f0             	mov    -0x10(%ebp),%edx
   165f7:	89 50 0c             	mov    %edx,0xc(%eax)
   165fa:	8b 45 08             	mov    0x8(%ebp),%eax
   165fd:	8b 40 08             	mov    0x8(%eax),%eax
   16600:	8b 50 04             	mov    0x4(%eax),%edx
   16603:	8b 45 08             	mov    0x8(%ebp),%eax
   16606:	89 50 08             	mov    %edx,0x8(%eax)
   16609:	eb 30                	jmp    1663b <create_data_block+0xaf>
   1660b:	8b 45 08             	mov    0x8(%ebp),%eax
   1660e:	8b 40 08             	mov    0x8(%eax),%eax
   16611:	89 45 f4             	mov    %eax,-0xc(%ebp)
   16614:	8b 45 08             	mov    0x8(%ebp),%eax
   16617:	8b 40 08             	mov    0x8(%eax),%eax
   1661a:	89 45 f0             	mov    %eax,-0x10(%ebp)
   1661d:	8b 45 f4             	mov    -0xc(%ebp),%eax
   16620:	8b 40 04             	mov    0x4(%eax),%eax
   16623:	89 45 f4             	mov    %eax,-0xc(%ebp)
   16626:	8b 45 08             	mov    0x8(%ebp),%eax
   16629:	8b 50 0c             	mov    0xc(%eax),%edx
   1662c:	8b 45 f0             	mov    -0x10(%ebp),%eax
   1662f:	89 50 04             	mov    %edx,0x4(%eax)
   16632:	8b 45 08             	mov    0x8(%ebp),%eax
   16635:	8b 55 f0             	mov    -0x10(%ebp),%edx
   16638:	89 50 0c             	mov    %edx,0xc(%eax)
   1663b:	8b 45 08             	mov    0x8(%ebp),%eax
   1663e:	83 c0 0c             	add    $0xc,%eax
   16641:	89 45 ec             	mov    %eax,-0x14(%ebp)
   16644:	83 7d ec 00          	cmpl   $0x0,-0x14(%ebp)
   16648:	75 10                	jne    1665a <create_data_block+0xce>
   1664a:	83 ec 0c             	sub    $0xc,%esp
   1664d:	68 f4 a0 01 00       	push   $0x1a0f4
   16652:	e8 39 c3 ff ff       	call   12990 <_kpanic>
   16657:	83 c4 10             	add    $0x10,%esp
   1665a:	8b 45 ec             	mov    -0x14(%ebp),%eax
   1665d:	89 45 e8             	mov    %eax,-0x18(%ebp)
   16660:	8b 45 e8             	mov    -0x18(%ebp),%eax
   16663:	83 ec 08             	sub    $0x8,%esp
   16666:	ff 75 14             	pushl  0x14(%ebp)
   16669:	50                   	push   %eax
   1666a:	e8 70 25 00 00       	call   18bdf <strcpy>
   1666f:	83 c4 10             	add    $0x10,%esp
   16672:	8b 45 e8             	mov    -0x18(%ebp),%eax
   16675:	0f b6 55 e0          	movzbl -0x20(%ebp),%edx
   16679:	88 50 0e             	mov    %dl,0xe(%eax)
   1667c:	8b 45 e8             	mov    -0x18(%ebp),%eax
   1667f:	83 c0 0f             	add    $0xf,%eax
   16682:	83 ec 08             	sub    $0x8,%esp
   16685:	ff 75 18             	pushl  0x18(%ebp)
   16688:	50                   	push   %eax
   16689:	e8 51 25 00 00       	call   18bdf <strcpy>
   1668e:	83 c4 10             	add    $0x10,%esp
   16691:	8b 45 08             	mov    0x8(%ebp),%eax
   16694:	8b 00                	mov    (%eax),%eax
   16696:	8d 50 ff             	lea    -0x1(%eax),%edx
   16699:	8b 45 08             	mov    0x8(%ebp),%eax
   1669c:	89 10                	mov    %edx,(%eax)
   1669e:	0f b6 55 e0          	movzbl -0x20(%ebp),%edx
   166a2:	8b 45 0c             	mov    0xc(%ebp),%eax
   166a5:	8b 4d e8             	mov    -0x18(%ebp),%ecx
   166a8:	89 4c 90 04          	mov    %ecx,0x4(%eax,%edx,4)
   166ac:	8b 45 0c             	mov    0xc(%ebp),%eax
   166af:	0f b6 40 01          	movzbl 0x1(%eax),%eax
   166b3:	8d 50 01             	lea    0x1(%eax),%edx
   166b6:	8b 45 0c             	mov    0xc(%ebp),%eax
   166b9:	88 50 01             	mov    %dl,0x1(%eax)
   166bc:	8b 45 e8             	mov    -0x18(%ebp),%eax
   166bf:	c9                   	leave  
   166c0:	c3                   	ret    

000166c1 <inode_read>:
   166c1:	55                   	push   %ebp
   166c2:	89 e5                	mov    %esp,%ebp
   166c4:	81 ec 68 02 00 00    	sub    $0x268,%esp
   166ca:	83 7d 10 00          	cmpl   $0x0,0x10(%ebp)
   166ce:	75 1b                	jne    166eb <inode_read+0x2a>
   166d0:	8b 45 0c             	mov    0xc(%ebp),%eax
   166d3:	0f b6 40 02          	movzbl 0x2(%eax),%eax
   166d7:	84 c0                	test   %al,%al
   166d9:	75 10                	jne    166eb <inode_read+0x2a>
   166db:	83 ec 0c             	sub    $0xc,%esp
   166de:	68 e7 a0 01 00       	push   $0x1a0e7
   166e3:	e8 a8 c2 ff ff       	call   12990 <_kpanic>
   166e8:	83 c4 10             	add    $0x10,%esp
   166eb:	8b 45 0c             	mov    0xc(%ebp),%eax
   166ee:	8b 55 10             	mov    0x10(%ebp),%edx
   166f1:	8b 44 90 04          	mov    0x4(%eax,%edx,4),%eax
   166f5:	89 45 f4             	mov    %eax,-0xc(%ebp)
   166f8:	8b 45 f4             	mov    -0xc(%ebp),%eax
   166fb:	83 c0 0f             	add    $0xf,%eax
   166fe:	83 ec 04             	sub    $0x4,%esp
   16701:	50                   	push   %eax
   16702:	68 13 a1 01 00       	push   $0x1a113
   16707:	8d 85 9c fd ff ff    	lea    -0x264(%ebp),%eax
   1670d:	50                   	push   %eax
   1670e:	e8 18 26 00 00       	call   18d2b <sprint>
   16713:	83 c4 10             	add    $0x10,%esp
   16716:	83 ec 0c             	sub    $0xc,%esp
   16719:	8d 85 9c fd ff ff    	lea    -0x264(%ebp),%eax
   1671f:	50                   	push   %eax
   16720:	e8 75 23 00 00       	call   18a9a <cwrites>
   16725:	83 c4 10             	add    $0x10,%esp
   16728:	90                   	nop
   16729:	c9                   	leave  
   1672a:	c3                   	ret    

0001672b <inode_write>:
   1672b:	55                   	push   %ebp
   1672c:	89 e5                	mov    %esp,%ebp
   1672e:	83 ec 68             	sub    $0x68,%esp
   16731:	83 7d 10 00          	cmpl   $0x0,0x10(%ebp)
   16735:	75 1b                	jne    16752 <inode_write+0x27>
   16737:	8b 45 0c             	mov    0xc(%ebp),%eax
   1673a:	0f b6 40 02          	movzbl 0x2(%eax),%eax
   1673e:	84 c0                	test   %al,%al
   16740:	75 10                	jne    16752 <inode_write+0x27>
   16742:	83 ec 0c             	sub    $0xc,%esp
   16745:	68 e7 a0 01 00       	push   $0x1a0e7
   1674a:	e8 41 c2 ff ff       	call   12990 <_kpanic>
   1674f:	83 c4 10             	add    $0x10,%esp
   16752:	8b 45 0c             	mov    0xc(%ebp),%eax
   16755:	8b 55 10             	mov    0x10(%ebp),%edx
   16758:	8b 44 90 04          	mov    0x4(%eax,%edx,4),%eax
   1675c:	89 45 f4             	mov    %eax,-0xc(%ebp)
   1675f:	8b 45 f4             	mov    -0xc(%ebp),%eax
   16762:	83 c0 0f             	add    $0xf,%eax
   16765:	83 ec 08             	sub    $0x8,%esp
   16768:	ff 75 14             	pushl  0x14(%ebp)
   1676b:	50                   	push   %eax
   1676c:	e8 6e 24 00 00       	call   18bdf <strcpy>
   16771:	83 c4 10             	add    $0x10,%esp
   16774:	8b 45 f4             	mov    -0xc(%ebp),%eax
   16777:	83 c0 0f             	add    $0xf,%eax
   1677a:	83 ec 04             	sub    $0x4,%esp
   1677d:	50                   	push   %eax
   1677e:	68 2a a1 01 00       	push   $0x1a12a
   16783:	8d 45 a4             	lea    -0x5c(%ebp),%eax
   16786:	50                   	push   %eax
   16787:	e8 9f 25 00 00       	call   18d2b <sprint>
   1678c:	83 c4 10             	add    $0x10,%esp
   1678f:	83 ec 0c             	sub    $0xc,%esp
   16792:	8d 45 a4             	lea    -0x5c(%ebp),%eax
   16795:	50                   	push   %eax
   16796:	e8 ff 22 00 00       	call   18a9a <cwrites>
   1679b:	83 c4 10             	add    $0x10,%esp
   1679e:	90                   	nop
   1679f:	c9                   	leave  
   167a0:	c3                   	ret    

000167a1 <inode_delete_data>:
   167a1:	55                   	push   %ebp
   167a2:	89 e5                	mov    %esp,%ebp
   167a4:	81 ec 18 02 00 00    	sub    $0x218,%esp
   167aa:	83 7d 10 00          	cmpl   $0x0,0x10(%ebp)
   167ae:	75 1b                	jne    167cb <inode_delete_data+0x2a>
   167b0:	8b 45 0c             	mov    0xc(%ebp),%eax
   167b3:	0f b6 40 02          	movzbl 0x2(%eax),%eax
   167b7:	84 c0                	test   %al,%al
   167b9:	75 10                	jne    167cb <inode_delete_data+0x2a>
   167bb:	83 ec 0c             	sub    $0xc,%esp
   167be:	68 e7 a0 01 00       	push   $0x1a0e7
   167c3:	e8 c8 c1 ff ff       	call   12990 <_kpanic>
   167c8:	83 c4 10             	add    $0x10,%esp
   167cb:	8b 45 0c             	mov    0xc(%ebp),%eax
   167ce:	8b 55 10             	mov    0x10(%ebp),%edx
   167d1:	8b 44 90 04          	mov    0x4(%eax,%edx,4),%eax
   167d5:	89 45 f0             	mov    %eax,-0x10(%ebp)
   167d8:	c7 45 f4 00 00 00 00 	movl   $0x0,-0xc(%ebp)
   167df:	eb 12                	jmp    167f3 <inode_delete_data+0x52>
   167e1:	8d 95 f0 fd ff ff    	lea    -0x210(%ebp),%edx
   167e7:	8b 45 f4             	mov    -0xc(%ebp),%eax
   167ea:	01 d0                	add    %edx,%eax
   167ec:	c6 00 20             	movb   $0x20,(%eax)
   167ef:	83 45 f4 01          	addl   $0x1,-0xc(%ebp)
   167f3:	81 7d f4 fe 01 00 00 	cmpl   $0x1fe,-0xc(%ebp)
   167fa:	7e e5                	jle    167e1 <inode_delete_data+0x40>
   167fc:	c6 45 ef 00          	movb   $0x0,-0x11(%ebp)
   16800:	8b 45 f0             	mov    -0x10(%ebp),%eax
   16803:	8d 50 0f             	lea    0xf(%eax),%edx
   16806:	83 ec 08             	sub    $0x8,%esp
   16809:	8d 85 f0 fd ff ff    	lea    -0x210(%ebp),%eax
   1680f:	50                   	push   %eax
   16810:	52                   	push   %edx
   16811:	e8 c9 23 00 00       	call   18bdf <strcpy>
   16816:	83 c4 10             	add    $0x10,%esp
   16819:	90                   	nop
   1681a:	c9                   	leave  
   1681b:	c3                   	ret    

0001681c <move_in_directory>:
   1681c:	55                   	push   %ebp
   1681d:	89 e5                	mov    %esp,%ebp
   1681f:	83 ec 18             	sub    $0x18,%esp
   16822:	8b 45 0c             	mov    0xc(%ebp),%eax
   16825:	0f b6 40 02          	movzbl 0x2(%eax),%eax
   16829:	0f b6 c0             	movzbl %al,%eax
   1682c:	50                   	push   %eax
   1682d:	ff 75 0c             	pushl  0xc(%ebp)
   16830:	68 41 a1 01 00       	push   $0x1a141
   16835:	8d 45 ee             	lea    -0x12(%ebp),%eax
   16838:	50                   	push   %eax
   16839:	e8 ed 24 00 00       	call   18d2b <sprint>
   1683e:	83 c4 10             	add    $0x10,%esp
   16841:	83 ec 0c             	sub    $0xc,%esp
   16844:	8d 45 ee             	lea    -0x12(%ebp),%eax
   16847:	50                   	push   %eax
   16848:	e8 4d 22 00 00       	call   18a9a <cwrites>
   1684d:	83 c4 10             	add    $0x10,%esp
   16850:	8b 45 0c             	mov    0xc(%ebp),%eax
   16853:	0f b6 40 02          	movzbl 0x2(%eax),%eax
   16857:	84 c0                	test   %al,%al
   16859:	74 10                	je     1686b <move_in_directory+0x4f>
   1685b:	83 ec 0c             	sub    $0xc,%esp
   1685e:	68 4d a1 01 00       	push   $0x1a14d
   16863:	e8 28 c1 ff ff       	call   12990 <_kpanic>
   16868:	83 c4 10             	add    $0x10,%esp
   1686b:	8b 45 08             	mov    0x8(%ebp),%eax
   1686e:	8b 55 0c             	mov    0xc(%ebp),%edx
   16871:	89 50 1c             	mov    %edx,0x1c(%eax)
   16874:	8b 45 0c             	mov    0xc(%ebp),%eax
   16877:	8b 50 04             	mov    0x4(%eax),%edx
   1687a:	8b 45 08             	mov    0x8(%ebp),%eax
   1687d:	89 50 18             	mov    %edx,0x18(%eax)
   16880:	8b 45 08             	mov    0x8(%ebp),%eax
   16883:	8b 40 18             	mov    0x18(%eax),%eax
   16886:	85 c0                	test   %eax,%eax
   16888:	75 10                	jne    1689a <move_in_directory+0x7e>
   1688a:	83 ec 0c             	sub    $0xc,%esp
   1688d:	68 65 a1 01 00       	push   $0x1a165
   16892:	e8 f9 c0 ff ff       	call   12990 <_kpanic>
   16897:	83 c4 10             	add    $0x10,%esp
   1689a:	8b 45 08             	mov    0x8(%ebp),%eax
   1689d:	8b 40 18             	mov    0x18(%eax),%eax
   168a0:	c9                   	leave  
   168a1:	c3                   	ret    

000168a2 <print_directory>:
   168a2:	55                   	push   %ebp
   168a3:	89 e5                	mov    %esp,%ebp
   168a5:	83 ec 68             	sub    $0x68,%esp
   168a8:	83 ec 08             	sub    $0x8,%esp
   168ab:	68 83 a1 01 00       	push   $0x1a183
   168b0:	8d 45 9c             	lea    -0x64(%ebp),%eax
   168b3:	50                   	push   %eax
   168b4:	e8 72 24 00 00       	call   18d2b <sprint>
   168b9:	83 c4 10             	add    $0x10,%esp
   168bc:	83 ec 0c             	sub    $0xc,%esp
   168bf:	8d 45 9c             	lea    -0x64(%ebp),%eax
   168c2:	50                   	push   %eax
   168c3:	e8 d2 21 00 00       	call   18a9a <cwrites>
   168c8:	83 c4 10             	add    $0x10,%esp
   168cb:	c7 45 f4 00 00 00 00 	movl   $0x0,-0xc(%ebp)
   168d2:	e9 db 00 00 00       	jmp    169b2 <print_directory+0x110>
   168d7:	83 7d f4 00          	cmpl   $0x0,-0xc(%ebp)
   168db:	75 3a                	jne    16917 <print_directory+0x75>
   168dd:	8b 45 0c             	mov    0xc(%ebp),%eax
   168e0:	0f b6 40 02          	movzbl 0x2(%eax),%eax
   168e4:	84 c0                	test   %al,%al
   168e6:	75 2f                	jne    16917 <print_directory+0x75>
   168e8:	8b 45 0c             	mov    0xc(%ebp),%eax
   168eb:	8b 40 04             	mov    0x4(%eax),%eax
   168ee:	85 c0                	test   %eax,%eax
   168f0:	74 25                	je     16917 <print_directory+0x75>
   168f2:	83 ec 08             	sub    $0x8,%esp
   168f5:	68 9f a1 01 00       	push   $0x1a19f
   168fa:	8d 45 9c             	lea    -0x64(%ebp),%eax
   168fd:	50                   	push   %eax
   168fe:	e8 28 24 00 00       	call   18d2b <sprint>
   16903:	83 c4 10             	add    $0x10,%esp
   16906:	83 ec 0c             	sub    $0xc,%esp
   16909:	8d 45 9c             	lea    -0x64(%ebp),%eax
   1690c:	50                   	push   %eax
   1690d:	e8 88 21 00 00       	call   18a9a <cwrites>
   16912:	83 c4 10             	add    $0x10,%esp
   16915:	eb 4b                	jmp    16962 <print_directory+0xc0>
   16917:	83 7d f4 00          	cmpl   $0x0,-0xc(%ebp)
   1691b:	75 45                	jne    16962 <print_directory+0xc0>
   1691d:	8b 45 0c             	mov    0xc(%ebp),%eax
   16920:	0f b6 40 02          	movzbl 0x2(%eax),%eax
   16924:	84 c0                	test   %al,%al
   16926:	74 3a                	je     16962 <print_directory+0xc0>
   16928:	8b 45 0c             	mov    0xc(%ebp),%eax
   1692b:	8b 40 04             	mov    0x4(%eax),%eax
   1692e:	85 c0                	test   %eax,%eax
   16930:	74 30                	je     16962 <print_directory+0xc0>
   16932:	8b 45 0c             	mov    0xc(%ebp),%eax
   16935:	8b 40 04             	mov    0x4(%eax),%eax
   16938:	89 45 f0             	mov    %eax,-0x10(%ebp)
   1693b:	8b 45 f0             	mov    -0x10(%ebp),%eax
   1693e:	83 ec 04             	sub    $0x4,%esp
   16941:	50                   	push   %eax
   16942:	68 ac a1 01 00       	push   $0x1a1ac
   16947:	8d 45 9c             	lea    -0x64(%ebp),%eax
   1694a:	50                   	push   %eax
   1694b:	e8 db 23 00 00       	call   18d2b <sprint>
   16950:	83 c4 10             	add    $0x10,%esp
   16953:	83 ec 0c             	sub    $0xc,%esp
   16956:	8d 45 9c             	lea    -0x64(%ebp),%eax
   16959:	50                   	push   %eax
   1695a:	e8 3b 21 00 00       	call   18a9a <cwrites>
   1695f:	83 c4 10             	add    $0x10,%esp
   16962:	83 7d f4 00          	cmpl   $0x0,-0xc(%ebp)
   16966:	7e 46                	jle    169ae <print_directory+0x10c>
   16968:	8b 45 0c             	mov    0xc(%ebp),%eax
   1696b:	8b 55 f4             	mov    -0xc(%ebp),%edx
   1696e:	8b 44 90 04          	mov    0x4(%eax,%edx,4),%eax
   16972:	85 c0                	test   %eax,%eax
   16974:	74 38                	je     169ae <print_directory+0x10c>
   16976:	8b 45 0c             	mov    0xc(%ebp),%eax
   16979:	8b 55 f4             	mov    -0xc(%ebp),%edx
   1697c:	8b 44 90 04          	mov    0x4(%eax,%edx,4),%eax
   16980:	89 45 ec             	mov    %eax,-0x14(%ebp)
   16983:	8b 45 ec             	mov    -0x14(%ebp),%eax
   16986:	8b 55 f4             	mov    -0xc(%ebp),%edx
   16989:	83 c2 01             	add    $0x1,%edx
   1698c:	50                   	push   %eax
   1698d:	52                   	push   %edx
   1698e:	68 b8 a1 01 00       	push   $0x1a1b8
   16993:	8d 45 9c             	lea    -0x64(%ebp),%eax
   16996:	50                   	push   %eax
   16997:	e8 8f 23 00 00       	call   18d2b <sprint>
   1699c:	83 c4 10             	add    $0x10,%esp
   1699f:	83 ec 0c             	sub    $0xc,%esp
   169a2:	8d 45 9c             	lea    -0x64(%ebp),%eax
   169a5:	50                   	push   %eax
   169a6:	e8 ef 20 00 00       	call   18a9a <cwrites>
   169ab:	83 c4 10             	add    $0x10,%esp
   169ae:	83 45 f4 01          	addl   $0x1,-0xc(%ebp)
   169b2:	83 7d f4 0e          	cmpl   $0xe,-0xc(%ebp)
   169b6:	0f 8e 1b ff ff ff    	jle    168d7 <print_directory+0x35>
   169bc:	8b 45 08             	mov    0x8(%ebp),%eax
   169bf:	8b 40 04             	mov    0x4(%eax),%eax
   169c2:	ba 40 00 00 00       	mov    $0x40,%edx
   169c7:	29 c2                	sub    %eax,%edx
   169c9:	89 d0                	mov    %edx,%eax
   169cb:	83 ec 04             	sub    $0x4,%esp
   169ce:	50                   	push   %eax
   169cf:	68 c5 a1 01 00       	push   $0x1a1c5
   169d4:	8d 45 9c             	lea    -0x64(%ebp),%eax
   169d7:	50                   	push   %eax
   169d8:	e8 4e 23 00 00       	call   18d2b <sprint>
   169dd:	83 c4 10             	add    $0x10,%esp
   169e0:	83 ec 0c             	sub    $0xc,%esp
   169e3:	8d 45 9c             	lea    -0x64(%ebp),%eax
   169e6:	50                   	push   %eax
   169e7:	e8 ae 20 00 00       	call   18a9a <cwrites>
   169ec:	83 c4 10             	add    $0x10,%esp
   169ef:	8b 45 08             	mov    0x8(%ebp),%eax
   169f2:	8b 40 04             	mov    0x4(%eax),%eax
   169f5:	83 ec 04             	sub    $0x4,%esp
   169f8:	50                   	push   %eax
   169f9:	68 de a1 01 00       	push   $0x1a1de
   169fe:	8d 45 9c             	lea    -0x64(%ebp),%eax
   16a01:	50                   	push   %eax
   16a02:	e8 24 23 00 00       	call   18d2b <sprint>
   16a07:	83 c4 10             	add    $0x10,%esp
   16a0a:	83 ec 0c             	sub    $0xc,%esp
   16a0d:	8d 45 9c             	lea    -0x64(%ebp),%eax
   16a10:	50                   	push   %eax
   16a11:	e8 84 20 00 00       	call   18a9a <cwrites>
   16a16:	83 c4 10             	add    $0x10,%esp
   16a19:	8b 45 08             	mov    0x8(%ebp),%eax
   16a1c:	8b 00                	mov    (%eax),%eax
   16a1e:	ba c0 03 00 00       	mov    $0x3c0,%edx
   16a23:	29 c2                	sub    %eax,%edx
   16a25:	89 d0                	mov    %edx,%eax
   16a27:	83 ec 04             	sub    $0x4,%esp
   16a2a:	50                   	push   %eax
   16a2b:	68 f5 a1 01 00       	push   $0x1a1f5
   16a30:	8d 45 9c             	lea    -0x64(%ebp),%eax
   16a33:	50                   	push   %eax
   16a34:	e8 f2 22 00 00       	call   18d2b <sprint>
   16a39:	83 c4 10             	add    $0x10,%esp
   16a3c:	83 ec 0c             	sub    $0xc,%esp
   16a3f:	8d 45 9c             	lea    -0x64(%ebp),%eax
   16a42:	50                   	push   %eax
   16a43:	e8 52 20 00 00       	call   18a9a <cwrites>
   16a48:	83 c4 10             	add    $0x10,%esp
   16a4b:	8b 45 08             	mov    0x8(%ebp),%eax
   16a4e:	8b 00                	mov    (%eax),%eax
   16a50:	83 ec 04             	sub    $0x4,%esp
   16a53:	50                   	push   %eax
   16a54:	68 0e a2 01 00       	push   $0x1a20e
   16a59:	8d 45 9c             	lea    -0x64(%ebp),%eax
   16a5c:	50                   	push   %eax
   16a5d:	e8 c9 22 00 00       	call   18d2b <sprint>
   16a62:	83 c4 10             	add    $0x10,%esp
   16a65:	83 ec 0c             	sub    $0xc,%esp
   16a68:	8d 45 9c             	lea    -0x64(%ebp),%eax
   16a6b:	50                   	push   %eax
   16a6c:	e8 29 20 00 00       	call   18a9a <cwrites>
   16a71:	83 c4 10             	add    $0x10,%esp
   16a74:	90                   	nop
   16a75:	c9                   	leave  
   16a76:	c3                   	ret    

00016a77 <main1>:
   16a77:	55                   	push   %ebp
   16a78:	89 e5                	mov    %esp,%ebp
   16a7a:	81 ec 38 01 00 00    	sub    $0x138,%esp
   16a80:	c7 45 f4 1e 00 00 00 	movl   $0x1e,-0xc(%ebp)
   16a87:	c6 45 f3 31          	movb   $0x31,-0xd(%ebp)
   16a8b:	c7 85 4c ff ff ff 00 	movl   $0x0,-0xb4(%ebp)
   16a92:	00 00 00 
   16a95:	c7 85 50 ff ff ff 00 	movl   $0x0,-0xb0(%ebp)
   16a9c:	00 00 00 
   16a9f:	c7 85 54 ff ff ff 00 	movl   $0x0,-0xac(%ebp)
   16aa6:	00 00 00 
   16aa9:	c7 85 58 ff ff ff 00 	movl   $0x0,-0xa8(%ebp)
   16ab0:	00 00 00 
   16ab3:	c7 85 5c ff ff ff 00 	movl   $0x0,-0xa4(%ebp)
   16aba:	00 00 00 
   16abd:	83 ec 0c             	sub    $0xc,%esp
   16ac0:	8d 85 4c ff ff ff    	lea    -0xb4(%ebp),%eax
   16ac6:	50                   	push   %eax
   16ac7:	6a 05                	push   $0x5
   16ac9:	6a 0d                	push   $0xd
   16acb:	ff 75 0c             	pushl  0xc(%ebp)
   16ace:	6a 03                	push   $0x3
   16ad0:	e8 6d 26 00 00       	call   19142 <parseArgString>
   16ad5:	83 c4 20             	add    $0x20,%esp
   16ad8:	89 45 e4             	mov    %eax,-0x1c(%ebp)
   16adb:	83 7d e4 03          	cmpl   $0x3,-0x1c(%ebp)
   16adf:	74 33                	je     16b14 <main1+0x9d>
   16ae1:	83 ec 0c             	sub    $0xc,%esp
   16ae4:	6a 03                	push   $0x3
   16ae6:	ff 75 e4             	pushl  -0x1c(%ebp)
   16ae9:	68 28 a2 01 00       	push   $0x1a228
   16aee:	68 2e a2 01 00       	push   $0x1a22e
   16af3:	8d 85 c8 fe ff ff    	lea    -0x138(%ebp),%eax
   16af9:	50                   	push   %eax
   16afa:	e8 2c 22 00 00       	call   18d2b <sprint>
   16aff:	83 c4 20             	add    $0x20,%esp
   16b02:	83 ec 0c             	sub    $0xc,%esp
   16b05:	8d 85 c8 fe ff ff    	lea    -0x138(%ebp),%eax
   16b0b:	50                   	push   %eax
   16b0c:	e8 89 1f 00 00       	call   18a9a <cwrites>
   16b11:	83 c4 10             	add    $0x10,%esp
   16b14:	83 7d e4 03          	cmpl   $0x3,-0x1c(%ebp)
   16b18:	75 23                	jne    16b3d <main1+0xc6>
   16b1a:	8b 85 50 ff ff ff    	mov    -0xb0(%ebp),%eax
   16b20:	0f b6 00             	movzbl (%eax),%eax
   16b23:	88 45 f3             	mov    %al,-0xd(%ebp)
   16b26:	8b 85 54 ff ff ff    	mov    -0xac(%ebp),%eax
   16b2c:	83 ec 08             	sub    $0x8,%esp
   16b2f:	6a 0a                	push   $0xa
   16b31:	50                   	push   %eax
   16b32:	e8 14 20 00 00       	call   18b4b <str2int>
   16b37:	83 c4 10             	add    $0x10,%esp
   16b3a:	89 45 f4             	mov    %eax,-0xc(%ebp)
   16b3d:	0f be 45 f3          	movsbl -0xd(%ebp),%eax
   16b41:	83 ec 0c             	sub    $0xc,%esp
   16b44:	50                   	push   %eax
   16b45:	e8 98 1f 00 00       	call   18ae2 <swritech>
   16b4a:	83 c4 10             	add    $0x10,%esp
   16b4d:	89 45 e0             	mov    %eax,-0x20(%ebp)
   16b50:	83 7d e0 01          	cmpl   $0x1,-0x20(%ebp)
   16b54:	74 2e                	je     16b84 <main1+0x10d>
   16b56:	0f be 45 f3          	movsbl -0xd(%ebp),%eax
   16b5a:	ff 75 e0             	pushl  -0x20(%ebp)
   16b5d:	50                   	push   %eax
   16b5e:	68 4b a2 01 00       	push   $0x1a24b
   16b63:	8d 85 60 ff ff ff    	lea    -0xa0(%ebp),%eax
   16b69:	50                   	push   %eax
   16b6a:	e8 bc 21 00 00       	call   18d2b <sprint>
   16b6f:	83 c4 10             	add    $0x10,%esp
   16b72:	83 ec 0c             	sub    $0xc,%esp
   16b75:	8d 85 60 ff ff ff    	lea    -0xa0(%ebp),%eax
   16b7b:	50                   	push   %eax
   16b7c:	e8 19 1f 00 00       	call   18a9a <cwrites>
   16b81:	83 c4 10             	add    $0x10,%esp
   16b84:	c7 45 ec 00 00 00 00 	movl   $0x0,-0x14(%ebp)
   16b8b:	eb 61                	jmp    16bee <main1+0x177>
   16b8d:	c7 45 e8 00 00 00 00 	movl   $0x0,-0x18(%ebp)
   16b94:	eb 04                	jmp    16b9a <main1+0x123>
   16b96:	83 45 e8 01          	addl   $0x1,-0x18(%ebp)
   16b9a:	81 7d e8 9f 25 26 00 	cmpl   $0x26259f,-0x18(%ebp)
   16ba1:	7e f3                	jle    16b96 <main1+0x11f>
   16ba3:	0f be 45 f3          	movsbl -0xd(%ebp),%eax
   16ba7:	83 ec 0c             	sub    $0xc,%esp
   16baa:	50                   	push   %eax
   16bab:	e8 32 1f 00 00       	call   18ae2 <swritech>
   16bb0:	83 c4 10             	add    $0x10,%esp
   16bb3:	89 45 e0             	mov    %eax,-0x20(%ebp)
   16bb6:	83 7d e0 01          	cmpl   $0x1,-0x20(%ebp)
   16bba:	74 2e                	je     16bea <main1+0x173>
   16bbc:	0f be 45 f3          	movsbl -0xd(%ebp),%eax
   16bc0:	ff 75 e0             	pushl  -0x20(%ebp)
   16bc3:	50                   	push   %eax
   16bc4:	68 68 a2 01 00       	push   $0x1a268
   16bc9:	8d 85 60 ff ff ff    	lea    -0xa0(%ebp),%eax
   16bcf:	50                   	push   %eax
   16bd0:	e8 56 21 00 00       	call   18d2b <sprint>
   16bd5:	83 c4 10             	add    $0x10,%esp
   16bd8:	83 ec 0c             	sub    $0xc,%esp
   16bdb:	8d 85 60 ff ff ff    	lea    -0xa0(%ebp),%eax
   16be1:	50                   	push   %eax
   16be2:	e8 b3 1e 00 00       	call   18a9a <cwrites>
   16be7:	83 c4 10             	add    $0x10,%esp
   16bea:	83 45 ec 01          	addl   $0x1,-0x14(%ebp)
   16bee:	8b 45 ec             	mov    -0x14(%ebp),%eax
   16bf1:	3b 45 f4             	cmp    -0xc(%ebp),%eax
   16bf4:	7c 97                	jl     16b8d <main1+0x116>
   16bf6:	83 ec 0c             	sub    $0xc,%esp
   16bf9:	6a 00                	push   $0x0
   16bfb:	e8 e5 25 00 00       	call   191e5 <exit>
   16c00:	83 c4 10             	add    $0x10,%esp
   16c03:	c7 85 48 ff ff ff 2a 	movl   $0x2a312a,-0xb8(%ebp)
   16c0a:	31 2a 00 
   16c0d:	0f b6 45 f3          	movzbl -0xd(%ebp),%eax
   16c11:	88 85 49 ff ff ff    	mov    %al,-0xb7(%ebp)
   16c17:	83 ec 04             	sub    $0x4,%esp
   16c1a:	6a 03                	push   $0x3
   16c1c:	8d 85 48 ff ff ff    	lea    -0xb8(%ebp),%eax
   16c22:	50                   	push   %eax
   16c23:	6a 01                	push   $0x1
   16c25:	e8 d3 25 00 00       	call   191fd <write>
   16c2a:	83 c4 10             	add    $0x10,%esp
   16c2d:	89 45 e0             	mov    %eax,-0x20(%ebp)
   16c30:	83 7d e0 03          	cmpl   $0x3,-0x20(%ebp)
   16c34:	74 2e                	je     16c64 <main1+0x1ed>
   16c36:	0f be 45 f3          	movsbl -0xd(%ebp),%eax
   16c3a:	ff 75 e0             	pushl  -0x20(%ebp)
   16c3d:	50                   	push   %eax
   16c3e:	68 88 a2 01 00       	push   $0x1a288
   16c43:	8d 85 60 ff ff ff    	lea    -0xa0(%ebp),%eax
   16c49:	50                   	push   %eax
   16c4a:	e8 dc 20 00 00       	call   18d2b <sprint>
   16c4f:	83 c4 10             	add    $0x10,%esp
   16c52:	83 ec 0c             	sub    $0xc,%esp
   16c55:	8d 85 60 ff ff ff    	lea    -0xa0(%ebp),%eax
   16c5b:	50                   	push   %eax
   16c5c:	e8 39 1e 00 00       	call   18a9a <cwrites>
   16c61:	83 c4 10             	add    $0x10,%esp
   16c64:	b8 2a 00 00 00       	mov    $0x2a,%eax
   16c69:	c9                   	leave  
   16c6a:	c3                   	ret    

00016c6b <main2>:
   16c6b:	55                   	push   %ebp
   16c6c:	89 e5                	mov    %esp,%ebp
   16c6e:	81 ec 38 01 00 00    	sub    $0x138,%esp
   16c74:	c7 45 f4 1e 00 00 00 	movl   $0x1e,-0xc(%ebp)
   16c7b:	c6 45 f3 32          	movb   $0x32,-0xd(%ebp)
   16c7f:	c7 85 4c ff ff ff 00 	movl   $0x0,-0xb4(%ebp)
   16c86:	00 00 00 
   16c89:	c7 85 50 ff ff ff 00 	movl   $0x0,-0xb0(%ebp)
   16c90:	00 00 00 
   16c93:	c7 85 54 ff ff ff 00 	movl   $0x0,-0xac(%ebp)
   16c9a:	00 00 00 
   16c9d:	c7 85 58 ff ff ff 00 	movl   $0x0,-0xa8(%ebp)
   16ca4:	00 00 00 
   16ca7:	c7 85 5c ff ff ff 00 	movl   $0x0,-0xa4(%ebp)
   16cae:	00 00 00 
   16cb1:	83 ec 0c             	sub    $0xc,%esp
   16cb4:	8d 85 4c ff ff ff    	lea    -0xb4(%ebp),%eax
   16cba:	50                   	push   %eax
   16cbb:	6a 05                	push   $0x5
   16cbd:	6a 0d                	push   $0xd
   16cbf:	ff 75 0c             	pushl  0xc(%ebp)
   16cc2:	6a 03                	push   $0x3
   16cc4:	e8 79 24 00 00       	call   19142 <parseArgString>
   16cc9:	83 c4 20             	add    $0x20,%esp
   16ccc:	89 45 e4             	mov    %eax,-0x1c(%ebp)
   16ccf:	83 7d e4 03          	cmpl   $0x3,-0x1c(%ebp)
   16cd3:	74 33                	je     16d08 <main2+0x9d>
   16cd5:	83 ec 0c             	sub    $0xc,%esp
   16cd8:	6a 03                	push   $0x3
   16cda:	ff 75 e4             	pushl  -0x1c(%ebp)
   16cdd:	68 a7 a2 01 00       	push   $0x1a2a7
   16ce2:	68 2e a2 01 00       	push   $0x1a22e
   16ce7:	8d 85 cc fe ff ff    	lea    -0x134(%ebp),%eax
   16ced:	50                   	push   %eax
   16cee:	e8 38 20 00 00       	call   18d2b <sprint>
   16cf3:	83 c4 20             	add    $0x20,%esp
   16cf6:	83 ec 0c             	sub    $0xc,%esp
   16cf9:	8d 85 cc fe ff ff    	lea    -0x134(%ebp),%eax
   16cff:	50                   	push   %eax
   16d00:	e8 95 1d 00 00       	call   18a9a <cwrites>
   16d05:	83 c4 10             	add    $0x10,%esp
   16d08:	83 7d e4 03          	cmpl   $0x3,-0x1c(%ebp)
   16d0c:	75 23                	jne    16d31 <main2+0xc6>
   16d0e:	8b 85 50 ff ff ff    	mov    -0xb0(%ebp),%eax
   16d14:	0f b6 00             	movzbl (%eax),%eax
   16d17:	88 45 f3             	mov    %al,-0xd(%ebp)
   16d1a:	8b 85 54 ff ff ff    	mov    -0xac(%ebp),%eax
   16d20:	83 ec 08             	sub    $0x8,%esp
   16d23:	6a 0a                	push   $0xa
   16d25:	50                   	push   %eax
   16d26:	e8 20 1e 00 00       	call   18b4b <str2int>
   16d2b:	83 c4 10             	add    $0x10,%esp
   16d2e:	89 45 f4             	mov    %eax,-0xc(%ebp)
   16d31:	0f be 45 f3          	movsbl -0xd(%ebp),%eax
   16d35:	83 ec 0c             	sub    $0xc,%esp
   16d38:	50                   	push   %eax
   16d39:	e8 a4 1d 00 00       	call   18ae2 <swritech>
   16d3e:	83 c4 10             	add    $0x10,%esp
   16d41:	89 45 e0             	mov    %eax,-0x20(%ebp)
   16d44:	83 7d e0 01          	cmpl   $0x1,-0x20(%ebp)
   16d48:	74 2e                	je     16d78 <main2+0x10d>
   16d4a:	0f be 45 f3          	movsbl -0xd(%ebp),%eax
   16d4e:	ff 75 e0             	pushl  -0x20(%ebp)
   16d51:	50                   	push   %eax
   16d52:	68 4b a2 01 00       	push   $0x1a24b
   16d57:	8d 85 60 ff ff ff    	lea    -0xa0(%ebp),%eax
   16d5d:	50                   	push   %eax
   16d5e:	e8 c8 1f 00 00       	call   18d2b <sprint>
   16d63:	83 c4 10             	add    $0x10,%esp
   16d66:	83 ec 0c             	sub    $0xc,%esp
   16d69:	8d 85 60 ff ff ff    	lea    -0xa0(%ebp),%eax
   16d6f:	50                   	push   %eax
   16d70:	e8 25 1d 00 00       	call   18a9a <cwrites>
   16d75:	83 c4 10             	add    $0x10,%esp
   16d78:	c7 45 ec 00 00 00 00 	movl   $0x0,-0x14(%ebp)
   16d7f:	eb 61                	jmp    16de2 <main2+0x177>
   16d81:	c7 45 e8 00 00 00 00 	movl   $0x0,-0x18(%ebp)
   16d88:	eb 04                	jmp    16d8e <main2+0x123>
   16d8a:	83 45 e8 01          	addl   $0x1,-0x18(%ebp)
   16d8e:	81 7d e8 9f 25 26 00 	cmpl   $0x26259f,-0x18(%ebp)
   16d95:	7e f3                	jle    16d8a <main2+0x11f>
   16d97:	0f be 45 f3          	movsbl -0xd(%ebp),%eax
   16d9b:	83 ec 0c             	sub    $0xc,%esp
   16d9e:	50                   	push   %eax
   16d9f:	e8 3e 1d 00 00       	call   18ae2 <swritech>
   16da4:	83 c4 10             	add    $0x10,%esp
   16da7:	89 45 e0             	mov    %eax,-0x20(%ebp)
   16daa:	83 7d e0 01          	cmpl   $0x1,-0x20(%ebp)
   16dae:	74 2e                	je     16dde <main2+0x173>
   16db0:	0f be 45 f3          	movsbl -0xd(%ebp),%eax
   16db4:	ff 75 e0             	pushl  -0x20(%ebp)
   16db7:	50                   	push   %eax
   16db8:	68 68 a2 01 00       	push   $0x1a268
   16dbd:	8d 85 60 ff ff ff    	lea    -0xa0(%ebp),%eax
   16dc3:	50                   	push   %eax
   16dc4:	e8 62 1f 00 00       	call   18d2b <sprint>
   16dc9:	83 c4 10             	add    $0x10,%esp
   16dcc:	83 ec 0c             	sub    $0xc,%esp
   16dcf:	8d 85 60 ff ff ff    	lea    -0xa0(%ebp),%eax
   16dd5:	50                   	push   %eax
   16dd6:	e8 bf 1c 00 00       	call   18a9a <cwrites>
   16ddb:	83 c4 10             	add    $0x10,%esp
   16dde:	83 45 ec 01          	addl   $0x1,-0x14(%ebp)
   16de2:	8b 45 ec             	mov    -0x14(%ebp),%eax
   16de5:	3b 45 f4             	cmp    -0xc(%ebp),%eax
   16de8:	7c 97                	jl     16d81 <main2+0x116>
   16dea:	b8 00 00 00 00       	mov    $0x0,%eax
   16def:	c9                   	leave  
   16df0:	c3                   	ret    

00016df1 <main3>:
   16df1:	55                   	push   %ebp
   16df2:	89 e5                	mov    %esp,%ebp
   16df4:	81 ec 38 01 00 00    	sub    $0x138,%esp
   16dfa:	c6 45 e7 33          	movb   $0x33,-0x19(%ebp)
   16dfe:	c7 45 f4 0a 00 00 00 	movl   $0xa,-0xc(%ebp)
   16e05:	c7 85 50 ff ff ff 00 	movl   $0x0,-0xb0(%ebp)
   16e0c:	00 00 00 
   16e0f:	c7 85 54 ff ff ff 00 	movl   $0x0,-0xac(%ebp)
   16e16:	00 00 00 
   16e19:	c7 85 58 ff ff ff 00 	movl   $0x0,-0xa8(%ebp)
   16e20:	00 00 00 
   16e23:	c7 85 5c ff ff ff 00 	movl   $0x0,-0xa4(%ebp)
   16e2a:	00 00 00 
   16e2d:	c7 85 60 ff ff ff 00 	movl   $0x0,-0xa0(%ebp)
   16e34:	00 00 00 
   16e37:	83 ec 0c             	sub    $0xc,%esp
   16e3a:	8d 85 50 ff ff ff    	lea    -0xb0(%ebp),%eax
   16e40:	50                   	push   %eax
   16e41:	6a 05                	push   $0x5
   16e43:	6a 0d                	push   $0xd
   16e45:	ff 75 0c             	pushl  0xc(%ebp)
   16e48:	6a 03                	push   $0x3
   16e4a:	e8 f3 22 00 00       	call   19142 <parseArgString>
   16e4f:	83 c4 20             	add    $0x20,%esp
   16e52:	89 45 ec             	mov    %eax,-0x14(%ebp)
   16e55:	83 7d ec 03          	cmpl   $0x3,-0x14(%ebp)
   16e59:	74 33                	je     16e8e <main3+0x9d>
   16e5b:	83 ec 0c             	sub    $0xc,%esp
   16e5e:	6a 03                	push   $0x3
   16e60:	ff 75 ec             	pushl  -0x14(%ebp)
   16e63:	68 ad a2 01 00       	push   $0x1a2ad
   16e68:	68 2e a2 01 00       	push   $0x1a22e
   16e6d:	8d 85 d0 fe ff ff    	lea    -0x130(%ebp),%eax
   16e73:	50                   	push   %eax
   16e74:	e8 b2 1e 00 00       	call   18d2b <sprint>
   16e79:	83 c4 20             	add    $0x20,%esp
   16e7c:	83 ec 0c             	sub    $0xc,%esp
   16e7f:	8d 85 d0 fe ff ff    	lea    -0x130(%ebp),%eax
   16e85:	50                   	push   %eax
   16e86:	e8 0f 1c 00 00       	call   18a9a <cwrites>
   16e8b:	83 c4 10             	add    $0x10,%esp
   16e8e:	83 7d ec 03          	cmpl   $0x3,-0x14(%ebp)
   16e92:	75 23                	jne    16eb7 <main3+0xc6>
   16e94:	8b 85 54 ff ff ff    	mov    -0xac(%ebp),%eax
   16e9a:	0f b6 00             	movzbl (%eax),%eax
   16e9d:	88 45 e7             	mov    %al,-0x19(%ebp)
   16ea0:	8b 85 58 ff ff ff    	mov    -0xa8(%ebp),%eax
   16ea6:	83 ec 08             	sub    $0x8,%esp
   16ea9:	6a 0a                	push   $0xa
   16eab:	50                   	push   %eax
   16eac:	e8 9a 1c 00 00       	call   18b4b <str2int>
   16eb1:	83 c4 10             	add    $0x10,%esp
   16eb4:	89 45 f4             	mov    %eax,-0xc(%ebp)
   16eb7:	0f b6 45 e7          	movzbl -0x19(%ebp),%eax
   16ebb:	0f be c0             	movsbl %al,%eax
   16ebe:	83 ec 0c             	sub    $0xc,%esp
   16ec1:	50                   	push   %eax
   16ec2:	e8 1b 1c 00 00       	call   18ae2 <swritech>
   16ec7:	83 c4 10             	add    $0x10,%esp
   16eca:	89 45 e8             	mov    %eax,-0x18(%ebp)
   16ecd:	83 7d e8 01          	cmpl   $0x1,-0x18(%ebp)
   16ed1:	74 31                	je     16f04 <main3+0x113>
   16ed3:	0f b6 45 e7          	movzbl -0x19(%ebp),%eax
   16ed7:	0f be c0             	movsbl %al,%eax
   16eda:	ff 75 e8             	pushl  -0x18(%ebp)
   16edd:	50                   	push   %eax
   16ede:	68 b3 a2 01 00       	push   $0x1a2b3
   16ee3:	8d 85 67 ff ff ff    	lea    -0x99(%ebp),%eax
   16ee9:	50                   	push   %eax
   16eea:	e8 3c 1e 00 00       	call   18d2b <sprint>
   16eef:	83 c4 10             	add    $0x10,%esp
   16ef2:	83 ec 0c             	sub    $0xc,%esp
   16ef5:	8d 85 67 ff ff ff    	lea    -0x99(%ebp),%eax
   16efb:	50                   	push   %eax
   16efc:	e8 99 1b 00 00       	call   18a9a <cwrites>
   16f01:	83 c4 10             	add    $0x10,%esp
   16f04:	83 ec 04             	sub    $0x4,%esp
   16f07:	6a 01                	push   $0x1
   16f09:	8d 45 e7             	lea    -0x19(%ebp),%eax
   16f0c:	50                   	push   %eax
   16f0d:	6a 01                	push   $0x1
   16f0f:	e8 e9 22 00 00       	call   191fd <write>
   16f14:	83 c4 10             	add    $0x10,%esp
   16f17:	c7 45 f0 00 00 00 00 	movl   $0x0,-0x10(%ebp)
   16f1e:	eb 2c                	jmp    16f4c <main3+0x15b>
   16f20:	8b 45 f4             	mov    -0xc(%ebp),%eax
   16f23:	69 c0 e8 03 00 00    	imul   $0x3e8,%eax,%eax
   16f29:	83 ec 0c             	sub    $0xc,%esp
   16f2c:	50                   	push   %eax
   16f2d:	e8 d3 22 00 00       	call   19205 <sleep>
   16f32:	83 c4 10             	add    $0x10,%esp
   16f35:	83 ec 04             	sub    $0x4,%esp
   16f38:	6a 01                	push   $0x1
   16f3a:	8d 45 e7             	lea    -0x19(%ebp),%eax
   16f3d:	50                   	push   %eax
   16f3e:	6a 01                	push   $0x1
   16f40:	e8 b8 22 00 00       	call   191fd <write>
   16f45:	83 c4 10             	add    $0x10,%esp
   16f48:	83 45 f0 01          	addl   $0x1,-0x10(%ebp)
   16f4c:	83 7d f0 1d          	cmpl   $0x1d,-0x10(%ebp)
   16f50:	7e ce                	jle    16f20 <main3+0x12f>
   16f52:	83 ec 0c             	sub    $0xc,%esp
   16f55:	6a 00                	push   $0x0
   16f57:	e8 89 22 00 00       	call   191e5 <exit>
   16f5c:	83 c4 10             	add    $0x10,%esp
   16f5f:	b8 2a 00 00 00       	mov    $0x2a,%eax
   16f64:	c9                   	leave  
   16f65:	c3                   	ret    

00016f66 <userH>:
   16f66:	55                   	push   %ebp
   16f67:	89 e5                	mov    %esp,%ebp
   16f69:	81 ec 48 01 00 00    	sub    $0x148,%esp
   16f6f:	c7 45 f4 00 00 00 00 	movl   $0x0,-0xc(%ebp)
   16f76:	c7 45 f0 05 00 00 00 	movl   $0x5,-0x10(%ebp)
   16f7d:	c6 45 ef 48          	movb   $0x48,-0x11(%ebp)
   16f81:	c7 85 44 ff ff ff 00 	movl   $0x0,-0xbc(%ebp)
   16f88:	00 00 00 
   16f8b:	c7 85 48 ff ff ff 00 	movl   $0x0,-0xb8(%ebp)
   16f92:	00 00 00 
   16f95:	c7 85 4c ff ff ff 00 	movl   $0x0,-0xb4(%ebp)
   16f9c:	00 00 00 
   16f9f:	c7 85 50 ff ff ff 00 	movl   $0x0,-0xb0(%ebp)
   16fa6:	00 00 00 
   16fa9:	c7 85 54 ff ff ff 00 	movl   $0x0,-0xac(%ebp)
   16fb0:	00 00 00 
   16fb3:	83 ec 0c             	sub    $0xc,%esp
   16fb6:	8d 85 44 ff ff ff    	lea    -0xbc(%ebp),%eax
   16fbc:	50                   	push   %eax
   16fbd:	6a 05                	push   $0x5
   16fbf:	6a 0d                	push   $0xd
   16fc1:	ff 75 0c             	pushl  0xc(%ebp)
   16fc4:	6a 03                	push   $0x3
   16fc6:	e8 77 21 00 00       	call   19142 <parseArgString>
   16fcb:	83 c4 20             	add    $0x20,%esp
   16fce:	89 45 e4             	mov    %eax,-0x1c(%ebp)
   16fd1:	83 7d e4 03          	cmpl   $0x3,-0x1c(%ebp)
   16fd5:	74 33                	je     1700a <userH+0xa4>
   16fd7:	83 ec 0c             	sub    $0xc,%esp
   16fda:	6a 03                	push   $0x3
   16fdc:	ff 75 e4             	pushl  -0x1c(%ebp)
   16fdf:	68 d1 a2 01 00       	push   $0x1a2d1
   16fe4:	68 2e a2 01 00       	push   $0x1a22e
   16fe9:	8d 85 c4 fe ff ff    	lea    -0x13c(%ebp),%eax
   16fef:	50                   	push   %eax
   16ff0:	e8 36 1d 00 00       	call   18d2b <sprint>
   16ff5:	83 c4 20             	add    $0x20,%esp
   16ff8:	83 ec 0c             	sub    $0xc,%esp
   16ffb:	8d 85 c4 fe ff ff    	lea    -0x13c(%ebp),%eax
   17001:	50                   	push   %eax
   17002:	e8 93 1a 00 00       	call   18a9a <cwrites>
   17007:	83 c4 10             	add    $0x10,%esp
   1700a:	83 7d e4 03          	cmpl   $0x3,-0x1c(%ebp)
   1700e:	75 23                	jne    17033 <userH+0xcd>
   17010:	8b 85 48 ff ff ff    	mov    -0xb8(%ebp),%eax
   17016:	0f b6 00             	movzbl (%eax),%eax
   17019:	88 45 ef             	mov    %al,-0x11(%ebp)
   1701c:	8b 85 4c ff ff ff    	mov    -0xb4(%ebp),%eax
   17022:	83 ec 08             	sub    $0x8,%esp
   17025:	6a 0a                	push   $0xa
   17027:	50                   	push   %eax
   17028:	e8 1e 1b 00 00       	call   18b4b <str2int>
   1702d:	83 c4 10             	add    $0x10,%esp
   17030:	89 45 f0             	mov    %eax,-0x10(%ebp)
   17033:	0f be 45 ef          	movsbl -0x11(%ebp),%eax
   17037:	83 ec 0c             	sub    $0xc,%esp
   1703a:	50                   	push   %eax
   1703b:	e8 a2 1a 00 00       	call   18ae2 <swritech>
   17040:	83 c4 10             	add    $0x10,%esp
   17043:	c7 45 e0 d7 a2 01 00 	movl   $0x1a2d7,-0x20(%ebp)
   1704a:	83 ec 0c             	sub    $0xc,%esp
   1704d:	ff 75 e0             	pushl  -0x20(%ebp)
   17050:	e8 68 1b 00 00       	call   18bbd <strlen>
   17055:	83 c4 10             	add    $0x10,%esp
   17058:	83 c0 01             	add    $0x1,%eax
   1705b:	89 45 dc             	mov    %eax,-0x24(%ebp)
   1705e:	c7 45 e8 00 00 00 00 	movl   $0x0,-0x18(%ebp)
   17065:	eb 55                	jmp    170bc <userH+0x156>
   17067:	8b 45 dc             	mov    -0x24(%ebp),%eax
   1706a:	ff 75 e0             	pushl  -0x20(%ebp)
   1706d:	50                   	push   %eax
   1706e:	6a 01                	push   $0x1
   17070:	68 f6 70 01 00       	push   $0x170f6
   17075:	e8 73 21 00 00       	call   191ed <spawn>
   1707a:	83 c4 10             	add    $0x10,%esp
   1707d:	89 45 d8             	mov    %eax,-0x28(%ebp)
   17080:	83 7d d8 00          	cmpl   $0x0,-0x28(%ebp)
   17084:	79 32                	jns    170b8 <userH+0x152>
   17086:	0f be 45 ef          	movsbl -0x11(%ebp),%eax
   1708a:	ff 75 d8             	pushl  -0x28(%ebp)
   1708d:	50                   	push   %eax
   1708e:	68 e4 a2 01 00       	push   $0x1a2e4
   17093:	8d 85 58 ff ff ff    	lea    -0xa8(%ebp),%eax
   17099:	50                   	push   %eax
   1709a:	e8 8c 1c 00 00       	call   18d2b <sprint>
   1709f:	83 c4 10             	add    $0x10,%esp
   170a2:	83 ec 0c             	sub    $0xc,%esp
   170a5:	8d 85 58 ff ff ff    	lea    -0xa8(%ebp),%eax
   170ab:	50                   	push   %eax
   170ac:	e8 e9 19 00 00       	call   18a9a <cwrites>
   170b1:	83 c4 10             	add    $0x10,%esp
   170b4:	83 45 f4 01          	addl   $0x1,-0xc(%ebp)
   170b8:	83 45 e8 01          	addl   $0x1,-0x18(%ebp)
   170bc:	8b 45 e8             	mov    -0x18(%ebp),%eax
   170bf:	3b 45 f0             	cmp    -0x10(%ebp),%eax
   170c2:	7c a3                	jl     17067 <userH+0x101>
   170c4:	83 ec 0c             	sub    $0xc,%esp
   170c7:	6a 00                	push   $0x0
   170c9:	e8 37 21 00 00       	call   19205 <sleep>
   170ce:	83 c4 10             	add    $0x10,%esp
   170d1:	0f be 45 ef          	movsbl -0x11(%ebp),%eax
   170d5:	83 ec 0c             	sub    $0xc,%esp
   170d8:	50                   	push   %eax
   170d9:	e8 04 1a 00 00       	call   18ae2 <swritech>
   170de:	83 c4 10             	add    $0x10,%esp
   170e1:	83 ec 0c             	sub    $0xc,%esp
   170e4:	ff 75 f4             	pushl  -0xc(%ebp)
   170e7:	e8 f9 20 00 00       	call   191e5 <exit>
   170ec:	83 c4 10             	add    $0x10,%esp
   170ef:	b8 2a 00 00 00       	mov    $0x2a,%eax
   170f4:	c9                   	leave  
   170f5:	c3                   	ret    

000170f6 <userZ>:
   170f6:	55                   	push   %ebp
   170f7:	89 e5                	mov    %esp,%ebp
   170f9:	81 ec 38 01 00 00    	sub    $0x138,%esp
   170ff:	c7 45 f4 0a 00 00 00 	movl   $0xa,-0xc(%ebp)
   17106:	c6 45 f3 7a          	movb   $0x7a,-0xd(%ebp)
   1710a:	c7 85 50 ff ff ff 00 	movl   $0x0,-0xb0(%ebp)
   17111:	00 00 00 
   17114:	c7 85 54 ff ff ff 00 	movl   $0x0,-0xac(%ebp)
   1711b:	00 00 00 
   1711e:	c7 85 58 ff ff ff 00 	movl   $0x0,-0xa8(%ebp)
   17125:	00 00 00 
   17128:	c7 85 5c ff ff ff 00 	movl   $0x0,-0xa4(%ebp)
   1712f:	00 00 00 
   17132:	c7 85 60 ff ff ff 00 	movl   $0x0,-0xa0(%ebp)
   17139:	00 00 00 
   1713c:	83 ec 0c             	sub    $0xc,%esp
   1713f:	8d 85 50 ff ff ff    	lea    -0xb0(%ebp),%eax
   17145:	50                   	push   %eax
   17146:	6a 05                	push   $0x5
   17148:	6a 0d                	push   $0xd
   1714a:	ff 75 0c             	pushl  0xc(%ebp)
   1714d:	6a 00                	push   $0x0
   1714f:	e8 ee 1f 00 00       	call   19142 <parseArgString>
   17154:	83 c4 20             	add    $0x20,%esp
   17157:	89 45 e4             	mov    %eax,-0x1c(%ebp)
   1715a:	83 7d e4 01          	cmpl   $0x1,-0x1c(%ebp)
   1715e:	7e 29                	jle    17189 <userZ+0x93>
   17160:	8b 85 54 ff ff ff    	mov    -0xac(%ebp),%eax
   17166:	0f b6 00             	movzbl (%eax),%eax
   17169:	88 45 f3             	mov    %al,-0xd(%ebp)
   1716c:	83 7d e4 02          	cmpl   $0x2,-0x1c(%ebp)
   17170:	7e 17                	jle    17189 <userZ+0x93>
   17172:	8b 85 58 ff ff ff    	mov    -0xa8(%ebp),%eax
   17178:	83 ec 08             	sub    $0x8,%esp
   1717b:	6a 0a                	push   $0xa
   1717d:	50                   	push   %eax
   1717e:	e8 c8 19 00 00       	call   18b4b <str2int>
   17183:	83 c4 10             	add    $0x10,%esp
   17186:	89 45 f4             	mov    %eax,-0xc(%ebp)
   17189:	0f be 45 f3          	movsbl -0xd(%ebp),%eax
   1718d:	83 ec 0c             	sub    $0xc,%esp
   17190:	50                   	push   %eax
   17191:	e8 4c 19 00 00       	call   18ae2 <swritech>
   17196:	83 c4 10             	add    $0x10,%esp
   17199:	c7 45 ec 00 00 00 00 	movl   $0x0,-0x14(%ebp)
   171a0:	eb 5f                	jmp    17201 <userZ+0x10b>
   171a2:	0f be 45 f3          	movsbl -0xd(%ebp),%eax
   171a6:	ff 75 ec             	pushl  -0x14(%ebp)
   171a9:	50                   	push   %eax
   171aa:	68 07 a3 01 00       	push   $0x1a307
   171af:	8d 85 64 ff ff ff    	lea    -0x9c(%ebp),%eax
   171b5:	50                   	push   %eax
   171b6:	e8 70 1b 00 00       	call   18d2b <sprint>
   171bb:	83 c4 10             	add    $0x10,%esp
   171be:	83 ec 0c             	sub    $0xc,%esp
   171c1:	8d 85 64 ff ff ff    	lea    -0x9c(%ebp),%eax
   171c7:	50                   	push   %eax
   171c8:	e8 36 19 00 00       	call   18b03 <swrites>
   171cd:	83 c4 10             	add    $0x10,%esp
   171d0:	c7 45 e8 00 00 00 00 	movl   $0x0,-0x18(%ebp)
   171d7:	eb 04                	jmp    171dd <userZ+0xe7>
   171d9:	83 45 e8 01          	addl   $0x1,-0x18(%ebp)
   171dd:	81 7d e8 9f 25 26 00 	cmpl   $0x26259f,-0x18(%ebp)
   171e4:	7e f3                	jle    171d9 <userZ+0xe3>
   171e6:	8b 45 ec             	mov    -0x14(%ebp),%eax
   171e9:	83 e0 01             	and    $0x1,%eax
   171ec:	85 c0                	test   %eax,%eax
   171ee:	74 0d                	je     171fd <userZ+0x107>
   171f0:	83 ec 0c             	sub    $0xc,%esp
   171f3:	6a 00                	push   $0x0
   171f5:	e8 0b 20 00 00       	call   19205 <sleep>
   171fa:	83 c4 10             	add    $0x10,%esp
   171fd:	83 45 ec 01          	addl   $0x1,-0x14(%ebp)
   17201:	8b 45 ec             	mov    -0x14(%ebp),%eax
   17204:	3b 45 f4             	cmp    -0xc(%ebp),%eax
   17207:	7c 99                	jl     171a2 <userZ+0xac>
   17209:	83 ec 0c             	sub    $0xc,%esp
   1720c:	6a 00                	push   $0x0
   1720e:	e8 d2 1f 00 00       	call   191e5 <exit>
   17213:	83 c4 10             	add    $0x10,%esp
   17216:	b8 2a 00 00 00       	mov    $0x2a,%eax
   1721b:	c9                   	leave  
   1721c:	c3                   	ret    

0001721d <userI>:
   1721d:	55                   	push   %ebp
   1721e:	89 e5                	mov    %esp,%ebp
   17220:	81 ec b8 01 00 00    	sub    $0x1b8,%esp
   17226:	c7 45 f4 05 00 00 00 	movl   $0x5,-0xc(%ebp)
   1722d:	c6 45 cb 69          	movb   $0x69,-0x35(%ebp)
   17231:	c7 45 e4 05 00 00 00 	movl   $0x5,-0x1c(%ebp)
   17238:	c7 45 f0 00 00 00 00 	movl   $0x0,-0x10(%ebp)
   1723f:	c7 85 d0 fe ff ff 00 	movl   $0x0,-0x130(%ebp)
   17246:	00 00 00 
   17249:	c7 85 d4 fe ff ff 00 	movl   $0x0,-0x12c(%ebp)
   17250:	00 00 00 
   17253:	c7 85 d8 fe ff ff 00 	movl   $0x0,-0x128(%ebp)
   1725a:	00 00 00 
   1725d:	c7 85 dc fe ff ff 00 	movl   $0x0,-0x124(%ebp)
   17264:	00 00 00 
   17267:	c7 85 e0 fe ff ff 00 	movl   $0x0,-0x120(%ebp)
   1726e:	00 00 00 
   17271:	83 ec 0c             	sub    $0xc,%esp
   17274:	8d 85 d0 fe ff ff    	lea    -0x130(%ebp),%eax
   1727a:	50                   	push   %eax
   1727b:	6a 05                	push   $0x5
   1727d:	6a 0d                	push   $0xd
   1727f:	ff 75 0c             	pushl  0xc(%ebp)
   17282:	6a 00                	push   $0x0
   17284:	e8 b9 1e 00 00       	call   19142 <parseArgString>
   17289:	83 c4 20             	add    $0x20,%esp
   1728c:	89 45 e0             	mov    %eax,-0x20(%ebp)
   1728f:	83 7d e0 01          	cmpl   $0x1,-0x20(%ebp)
   17293:	7e 29                	jle    172be <userI+0xa1>
   17295:	8b 85 d4 fe ff ff    	mov    -0x12c(%ebp),%eax
   1729b:	0f b6 00             	movzbl (%eax),%eax
   1729e:	88 45 cb             	mov    %al,-0x35(%ebp)
   172a1:	83 7d e0 02          	cmpl   $0x2,-0x20(%ebp)
   172a5:	7e 17                	jle    172be <userI+0xa1>
   172a7:	8b 85 d8 fe ff ff    	mov    -0x128(%ebp),%eax
   172ad:	83 ec 08             	sub    $0x8,%esp
   172b0:	6a 0a                	push   $0xa
   172b2:	50                   	push   %eax
   172b3:	e8 93 18 00 00       	call   18b4b <str2int>
   172b8:	83 c4 10             	add    $0x10,%esp
   172bb:	89 45 f4             	mov    %eax,-0xc(%ebp)
   172be:	c7 85 cc fe ff ff 2a 	movl   $0x2a3f2a,-0x134(%ebp)
   172c5:	3f 2a 00 
   172c8:	0f b6 45 cb          	movzbl -0x35(%ebp),%eax
   172cc:	88 85 cd fe ff ff    	mov    %al,-0x133(%ebp)
   172d2:	83 ec 04             	sub    $0x4,%esp
   172d5:	6a 01                	push   $0x1
   172d7:	8d 45 cb             	lea    -0x35(%ebp),%eax
   172da:	50                   	push   %eax
   172db:	6a 01                	push   $0x1
   172dd:	e8 1b 1f 00 00       	call   191fd <write>
   172e2:	83 c4 10             	add    $0x10,%esp
   172e5:	c7 45 dc 0f a3 01 00 	movl   $0x1a30f,-0x24(%ebp)
   172ec:	83 ec 0c             	sub    $0xc,%esp
   172ef:	ff 75 dc             	pushl  -0x24(%ebp)
   172f2:	e8 c6 18 00 00       	call   18bbd <strlen>
   172f7:	83 c4 10             	add    $0x10,%esp
   172fa:	83 c0 01             	add    $0x1,%eax
   172fd:	89 45 d8             	mov    %eax,-0x28(%ebp)
   17300:	c7 45 ec 00 00 00 00 	movl   $0x0,-0x14(%ebp)
   17307:	eb 5e                	jmp    17367 <userI+0x14a>
   17309:	8b 45 d8             	mov    -0x28(%ebp),%eax
   1730c:	ff 75 dc             	pushl  -0x24(%ebp)
   1730f:	50                   	push   %eax
   17310:	6a 01                	push   $0x1
   17312:	68 08 75 01 00       	push   $0x17508
   17317:	e8 d1 1e 00 00       	call   191ed <spawn>
   1731c:	83 c4 10             	add    $0x10,%esp
   1731f:	89 45 cc             	mov    %eax,-0x34(%ebp)
   17322:	83 7d cc 00          	cmpl   $0x0,-0x34(%ebp)
   17326:	79 14                	jns    1733c <userI+0x11f>
   17328:	83 ec 0c             	sub    $0xc,%esp
   1732b:	8d 85 cc fe ff ff    	lea    -0x134(%ebp),%eax
   17331:	50                   	push   %eax
   17332:	e8 cc 17 00 00       	call   18b03 <swrites>
   17337:	83 c4 10             	add    $0x10,%esp
   1733a:	eb 27                	jmp    17363 <userI+0x146>
   1733c:	0f b6 45 cb          	movzbl -0x35(%ebp),%eax
   17340:	0f be c0             	movsbl %al,%eax
   17343:	83 ec 0c             	sub    $0xc,%esp
   17346:	50                   	push   %eax
   17347:	e8 96 17 00 00       	call   18ae2 <swritech>
   1734c:	83 c4 10             	add    $0x10,%esp
   1734f:	8b 45 f0             	mov    -0x10(%ebp),%eax
   17352:	8d 50 01             	lea    0x1(%eax),%edx
   17355:	89 55 f0             	mov    %edx,-0x10(%ebp)
   17358:	8b 55 cc             	mov    -0x34(%ebp),%edx
   1735b:	66 89 94 45 e6 fe ff 	mov    %dx,-0x11a(%ebp,%eax,2)
   17362:	ff 
   17363:	83 45 ec 01          	addl   $0x1,-0x14(%ebp)
   17367:	8b 45 ec             	mov    -0x14(%ebp),%eax
   1736a:	3b 45 f4             	cmp    -0xc(%ebp),%eax
   1736d:	7c 9a                	jl     17309 <userI+0xec>
   1736f:	8b 45 e4             	mov    -0x1c(%ebp),%eax
   17372:	69 c0 e8 03 00 00    	imul   $0x3e8,%eax,%eax
   17378:	83 ec 0c             	sub    $0xc,%esp
   1737b:	50                   	push   %eax
   1737c:	e8 84 1e 00 00       	call   19205 <sleep>
   17381:	83 c4 10             	add    $0x10,%esp
   17384:	0f b7 85 e8 fe ff ff 	movzwl -0x118(%ebp),%eax
   1738b:	0f b7 c0             	movzwl %ax,%eax
   1738e:	83 ec 0c             	sub    $0xc,%esp
   17391:	50                   	push   %eax
   17392:	e8 76 1e 00 00       	call   1920d <kill>
   17397:	83 c4 10             	add    $0x10,%esp
   1739a:	89 45 d4             	mov    %eax,-0x2c(%ebp)
   1739d:	83 7d d4 00          	cmpl   $0x0,-0x2c(%ebp)
   173a1:	74 48                	je     173eb <userI+0x1ce>
   173a3:	0f b7 85 e8 fe ff ff 	movzwl -0x118(%ebp),%eax
   173aa:	0f b7 d0             	movzwl %ax,%edx
   173ad:	0f b6 45 cb          	movzbl -0x35(%ebp),%eax
   173b1:	0f be c0             	movsbl %al,%eax
   173b4:	83 ec 0c             	sub    $0xc,%esp
   173b7:	ff 75 d4             	pushl  -0x2c(%ebp)
   173ba:	52                   	push   %edx
   173bb:	50                   	push   %eax
   173bc:	68 1c a3 01 00       	push   $0x1a31c
   173c1:	8d 85 4b ff ff ff    	lea    -0xb5(%ebp),%eax
   173c7:	50                   	push   %eax
   173c8:	e8 5e 19 00 00       	call   18d2b <sprint>
   173cd:	83 c4 20             	add    $0x20,%esp
   173d0:	83 ec 0c             	sub    $0xc,%esp
   173d3:	8d 85 4b ff ff ff    	lea    -0xb5(%ebp),%eax
   173d9:	50                   	push   %eax
   173da:	e8 bb 16 00 00       	call   18a9a <cwrites>
   173df:	83 c4 10             	add    $0x10,%esp
   173e2:	66 c7 85 e8 fe ff ff 	movw   $0xffd6,-0x118(%ebp)
   173e9:	d6 ff 
   173eb:	0f b7 85 ec fe ff ff 	movzwl -0x114(%ebp),%eax
   173f2:	0f b7 c0             	movzwl %ax,%eax
   173f5:	83 ec 0c             	sub    $0xc,%esp
   173f8:	50                   	push   %eax
   173f9:	e8 0f 1e 00 00       	call   1920d <kill>
   173fe:	83 c4 10             	add    $0x10,%esp
   17401:	89 45 d4             	mov    %eax,-0x2c(%ebp)
   17404:	83 7d d4 00          	cmpl   $0x0,-0x2c(%ebp)
   17408:	74 48                	je     17452 <userI+0x235>
   1740a:	0f b7 85 ec fe ff ff 	movzwl -0x114(%ebp),%eax
   17411:	0f b7 d0             	movzwl %ax,%edx
   17414:	0f b6 45 cb          	movzbl -0x35(%ebp),%eax
   17418:	0f be c0             	movsbl %al,%eax
   1741b:	83 ec 0c             	sub    $0xc,%esp
   1741e:	ff 75 d4             	pushl  -0x2c(%ebp)
   17421:	52                   	push   %edx
   17422:	50                   	push   %eax
   17423:	68 1c a3 01 00       	push   $0x1a31c
   17428:	8d 85 4b ff ff ff    	lea    -0xb5(%ebp),%eax
   1742e:	50                   	push   %eax
   1742f:	e8 f7 18 00 00       	call   18d2b <sprint>
   17434:	83 c4 20             	add    $0x20,%esp
   17437:	83 ec 0c             	sub    $0xc,%esp
   1743a:	8d 85 4b ff ff ff    	lea    -0xb5(%ebp),%eax
   17440:	50                   	push   %eax
   17441:	e8 54 16 00 00       	call   18a9a <cwrites>
   17446:	83 c4 10             	add    $0x10,%esp
   17449:	66 c7 85 ec fe ff ff 	movw   $0xffd6,-0x114(%ebp)
   17450:	d6 ff 
   17452:	83 ec 08             	sub    $0x8,%esp
   17455:	6a 00                	push   $0x0
   17457:	6a 00                	push   $0x0
   17459:	e8 b7 1d 00 00       	call   19215 <waitpid>
   1745e:	83 c4 10             	add    $0x10,%esp
   17461:	89 45 d0             	mov    %eax,-0x30(%ebp)
   17464:	83 7d d0 f8          	cmpl   $0xfffffff8,-0x30(%ebp)
   17468:	0f 84 85 00 00 00    	je     174f3 <userI+0x2d6>
   1746e:	c7 45 e8 00 00 00 00 	movl   $0x0,-0x18(%ebp)
   17475:	eb 5a                	jmp    174d1 <userI+0x2b4>
   17477:	8b 45 e8             	mov    -0x18(%ebp),%eax
   1747a:	0f b7 84 45 e6 fe ff 	movzwl -0x11a(%ebp,%eax,2),%eax
   17481:	ff 
   17482:	0f b7 c0             	movzwl %ax,%eax
   17485:	39 45 d0             	cmp    %eax,-0x30(%ebp)
   17488:	75 43                	jne    174cd <userI+0x2b0>
   1748a:	8b 45 e8             	mov    -0x18(%ebp),%eax
   1748d:	0f b7 84 45 e6 fe ff 	movzwl -0x11a(%ebp,%eax,2),%eax
   17494:	ff 
   17495:	0f b7 d0             	movzwl %ax,%edx
   17498:	0f b6 45 cb          	movzbl -0x35(%ebp),%eax
   1749c:	0f be c0             	movsbl %al,%eax
   1749f:	83 ec 0c             	sub    $0xc,%esp
   174a2:	52                   	push   %edx
   174a3:	ff 75 e8             	pushl  -0x18(%ebp)
   174a6:	50                   	push   %eax
   174a7:	68 37 a3 01 00       	push   $0x1a337
   174ac:	8d 85 4b ff ff ff    	lea    -0xb5(%ebp),%eax
   174b2:	50                   	push   %eax
   174b3:	e8 73 18 00 00       	call   18d2b <sprint>
   174b8:	83 c4 20             	add    $0x20,%esp
   174bb:	83 ec 0c             	sub    $0xc,%esp
   174be:	8d 85 4b ff ff ff    	lea    -0xb5(%ebp),%eax
   174c4:	50                   	push   %eax
   174c5:	e8 d0 15 00 00       	call   18a9a <cwrites>
   174ca:	83 c4 10             	add    $0x10,%esp
   174cd:	83 45 e8 01          	addl   $0x1,-0x18(%ebp)
   174d1:	8b 45 e8             	mov    -0x18(%ebp),%eax
   174d4:	3b 45 f4             	cmp    -0xc(%ebp),%eax
   174d7:	7c 9e                	jl     17477 <userI+0x25a>
   174d9:	8b 45 e4             	mov    -0x1c(%ebp),%eax
   174dc:	69 c0 e8 03 00 00    	imul   $0x3e8,%eax,%eax
   174e2:	83 ec 0c             	sub    $0xc,%esp
   174e5:	50                   	push   %eax
   174e6:	e8 1a 1d 00 00       	call   19205 <sleep>
   174eb:	83 c4 10             	add    $0x10,%esp
   174ee:	e9 5f ff ff ff       	jmp    17452 <userI+0x235>
   174f3:	90                   	nop
   174f4:	83 ec 0c             	sub    $0xc,%esp
   174f7:	6a 00                	push   $0x0
   174f9:	e8 e7 1c 00 00       	call   191e5 <exit>
   174fe:	83 c4 10             	add    $0x10,%esp
   17501:	b8 2a 00 00 00       	mov    $0x2a,%eax
   17506:	c9                   	leave  
   17507:	c3                   	ret    

00017508 <userW>:
   17508:	55                   	push   %ebp
   17509:	89 e5                	mov    %esp,%ebp
   1750b:	81 ec 38 01 00 00    	sub    $0x138,%esp
   17511:	c7 45 f4 14 00 00 00 	movl   $0x14,-0xc(%ebp)
   17518:	c6 45 e7 77          	movb   $0x77,-0x19(%ebp)
   1751c:	c7 45 f0 03 00 00 00 	movl   $0x3,-0x10(%ebp)
   17523:	c7 85 50 ff ff ff 00 	movl   $0x0,-0xb0(%ebp)
   1752a:	00 00 00 
   1752d:	c7 85 54 ff ff ff 00 	movl   $0x0,-0xac(%ebp)
   17534:	00 00 00 
   17537:	c7 85 58 ff ff ff 00 	movl   $0x0,-0xa8(%ebp)
   1753e:	00 00 00 
   17541:	c7 85 5c ff ff ff 00 	movl   $0x0,-0xa4(%ebp)
   17548:	00 00 00 
   1754b:	c7 85 60 ff ff ff 00 	movl   $0x0,-0xa0(%ebp)
   17552:	00 00 00 
   17555:	83 ec 0c             	sub    $0xc,%esp
   17558:	8d 85 50 ff ff ff    	lea    -0xb0(%ebp),%eax
   1755e:	50                   	push   %eax
   1755f:	6a 05                	push   $0x5
   17561:	6a 0d                	push   $0xd
   17563:	ff 75 0c             	pushl  0xc(%ebp)
   17566:	6a 00                	push   $0x0
   17568:	e8 d5 1b 00 00       	call   19142 <parseArgString>
   1756d:	83 c4 20             	add    $0x20,%esp
   17570:	89 45 e8             	mov    %eax,-0x18(%ebp)
   17573:	83 7d e8 01          	cmpl   $0x1,-0x18(%ebp)
   17577:	7e 46                	jle    175bf <userW+0xb7>
   17579:	8b 85 54 ff ff ff    	mov    -0xac(%ebp),%eax
   1757f:	0f b6 00             	movzbl (%eax),%eax
   17582:	88 45 e7             	mov    %al,-0x19(%ebp)
   17585:	83 7d e8 02          	cmpl   $0x2,-0x18(%ebp)
   17589:	7e 34                	jle    175bf <userW+0xb7>
   1758b:	8b 85 58 ff ff ff    	mov    -0xa8(%ebp),%eax
   17591:	83 ec 08             	sub    $0x8,%esp
   17594:	6a 0a                	push   $0xa
   17596:	50                   	push   %eax
   17597:	e8 af 15 00 00       	call   18b4b <str2int>
   1759c:	83 c4 10             	add    $0x10,%esp
   1759f:	89 45 f4             	mov    %eax,-0xc(%ebp)
   175a2:	83 7d e8 03          	cmpl   $0x3,-0x18(%ebp)
   175a6:	7e 17                	jle    175bf <userW+0xb7>
   175a8:	8b 85 5c ff ff ff    	mov    -0xa4(%ebp),%eax
   175ae:	83 ec 08             	sub    $0x8,%esp
   175b1:	6a 0a                	push   $0xa
   175b3:	50                   	push   %eax
   175b4:	e8 92 15 00 00       	call   18b4b <str2int>
   175b9:	83 c4 10             	add    $0x10,%esp
   175bc:	89 45 f0             	mov    %eax,-0x10(%ebp)
   175bf:	83 ec 04             	sub    $0x4,%esp
   175c2:	6a 01                	push   $0x1
   175c4:	8d 45 e7             	lea    -0x19(%ebp),%eax
   175c7:	50                   	push   %eax
   175c8:	6a 01                	push   $0x1
   175ca:	e8 2e 1c 00 00       	call   191fd <write>
   175cf:	83 c4 10             	add    $0x10,%esp
   175d2:	c7 45 ec 00 00 00 00 	movl   $0x0,-0x14(%ebp)
   175d9:	eb 4a                	jmp    17625 <userW+0x11d>
   175db:	0f b6 45 e7          	movzbl -0x19(%ebp),%eax
   175df:	0f be c0             	movsbl %al,%eax
   175e2:	ff 75 ec             	pushl  -0x14(%ebp)
   175e5:	50                   	push   %eax
   175e6:	68 4d a3 01 00       	push   $0x1a34d
   175eb:	8d 85 67 ff ff ff    	lea    -0x99(%ebp),%eax
   175f1:	50                   	push   %eax
   175f2:	e8 34 17 00 00       	call   18d2b <sprint>
   175f7:	83 c4 10             	add    $0x10,%esp
   175fa:	83 ec 0c             	sub    $0xc,%esp
   175fd:	8d 85 67 ff ff ff    	lea    -0x99(%ebp),%eax
   17603:	50                   	push   %eax
   17604:	e8 fa 14 00 00       	call   18b03 <swrites>
   17609:	83 c4 10             	add    $0x10,%esp
   1760c:	8b 45 f0             	mov    -0x10(%ebp),%eax
   1760f:	69 c0 e8 03 00 00    	imul   $0x3e8,%eax,%eax
   17615:	83 ec 0c             	sub    $0xc,%esp
   17618:	50                   	push   %eax
   17619:	e8 e7 1b 00 00       	call   19205 <sleep>
   1761e:	83 c4 10             	add    $0x10,%esp
   17621:	83 45 ec 01          	addl   $0x1,-0x14(%ebp)
   17625:	8b 45 ec             	mov    -0x14(%ebp),%eax
   17628:	3b 45 f4             	cmp    -0xc(%ebp),%eax
   1762b:	7c ae                	jl     175db <userW+0xd3>
   1762d:	83 ec 0c             	sub    $0xc,%esp
   17630:	6a 00                	push   $0x0
   17632:	e8 ae 1b 00 00       	call   191e5 <exit>
   17637:	83 c4 10             	add    $0x10,%esp
   1763a:	b8 2a 00 00 00       	mov    $0x2a,%eax
   1763f:	c9                   	leave  
   17640:	c3                   	ret    

00017641 <userJ>:
   17641:	55                   	push   %ebp
   17642:	89 e5                	mov    %esp,%ebp
   17644:	81 ec b8 00 00 00    	sub    $0xb8,%esp
   1764a:	c7 45 f4 32 00 00 00 	movl   $0x32,-0xc(%ebp)
   17651:	c6 45 df 4a          	movb   $0x4a,-0x21(%ebp)
   17655:	c7 45 c8 00 00 00 00 	movl   $0x0,-0x38(%ebp)
   1765c:	c7 45 cc 00 00 00 00 	movl   $0x0,-0x34(%ebp)
   17663:	c7 45 d0 00 00 00 00 	movl   $0x0,-0x30(%ebp)
   1766a:	c7 45 d4 00 00 00 00 	movl   $0x0,-0x2c(%ebp)
   17671:	c7 45 d8 00 00 00 00 	movl   $0x0,-0x28(%ebp)
   17678:	83 ec 0c             	sub    $0xc,%esp
   1767b:	8d 45 c8             	lea    -0x38(%ebp),%eax
   1767e:	50                   	push   %eax
   1767f:	6a 05                	push   $0x5
   17681:	6a 0d                	push   $0xd
   17683:	ff 75 0c             	pushl  0xc(%ebp)
   17686:	6a 00                	push   $0x0
   17688:	e8 b5 1a 00 00       	call   19142 <parseArgString>
   1768d:	83 c4 20             	add    $0x20,%esp
   17690:	89 45 ec             	mov    %eax,-0x14(%ebp)
   17693:	83 7d ec 01          	cmpl   $0x1,-0x14(%ebp)
   17697:	7e 23                	jle    176bc <userJ+0x7b>
   17699:	8b 45 cc             	mov    -0x34(%ebp),%eax
   1769c:	0f b6 00             	movzbl (%eax),%eax
   1769f:	88 45 df             	mov    %al,-0x21(%ebp)
   176a2:	83 7d ec 02          	cmpl   $0x2,-0x14(%ebp)
   176a6:	7e 14                	jle    176bc <userJ+0x7b>
   176a8:	8b 45 d0             	mov    -0x30(%ebp),%eax
   176ab:	83 ec 08             	sub    $0x8,%esp
   176ae:	6a 0a                	push   $0xa
   176b0:	50                   	push   %eax
   176b1:	e8 95 14 00 00       	call   18b4b <str2int>
   176b6:	83 c4 10             	add    $0x10,%esp
   176b9:	89 45 f4             	mov    %eax,-0xc(%ebp)
   176bc:	83 ec 04             	sub    $0x4,%esp
   176bf:	6a 01                	push   $0x1
   176c1:	8d 45 df             	lea    -0x21(%ebp),%eax
   176c4:	50                   	push   %eax
   176c5:	6a 01                	push   $0x1
   176c7:	e8 31 1b 00 00       	call   191fd <write>
   176cc:	83 c4 10             	add    $0x10,%esp
   176cf:	c7 45 e8 56 a3 01 00 	movl   $0x1a356,-0x18(%ebp)
   176d6:	83 ec 0c             	sub    $0xc,%esp
   176d9:	ff 75 e8             	pushl  -0x18(%ebp)
   176dc:	e8 dc 14 00 00       	call   18bbd <strlen>
   176e1:	83 c4 10             	add    $0x10,%esp
   176e4:	83 c0 01             	add    $0x1,%eax
   176e7:	89 45 e4             	mov    %eax,-0x1c(%ebp)
   176ea:	c7 45 f0 00 00 00 00 	movl   $0x0,-0x10(%ebp)
   176f1:	eb 4c                	jmp    1773f <userJ+0xfe>
   176f3:	8b 45 e4             	mov    -0x1c(%ebp),%eax
   176f6:	ff 75 e8             	pushl  -0x18(%ebp)
   176f9:	50                   	push   %eax
   176fa:	6a 01                	push   $0x1
   176fc:	68 5b 77 01 00       	push   $0x1775b
   17701:	e8 e7 1a 00 00       	call   191ed <spawn>
   17706:	83 c4 10             	add    $0x10,%esp
   17709:	89 45 e0             	mov    %eax,-0x20(%ebp)
   1770c:	83 7d e0 00          	cmpl   $0x0,-0x20(%ebp)
   17710:	79 16                	jns    17728 <userJ+0xe7>
   17712:	83 ec 04             	sub    $0x4,%esp
   17715:	6a 03                	push   $0x3
   17717:	68 61 a3 01 00       	push   $0x1a361
   1771c:	6a 01                	push   $0x1
   1771e:	e8 da 1a 00 00       	call   191fd <write>
   17723:	83 c4 10             	add    $0x10,%esp
   17726:	eb 13                	jmp    1773b <userJ+0xfa>
   17728:	83 ec 04             	sub    $0x4,%esp
   1772b:	6a 01                	push   $0x1
   1772d:	8d 45 df             	lea    -0x21(%ebp),%eax
   17730:	50                   	push   %eax
   17731:	6a 01                	push   $0x1
   17733:	e8 c5 1a 00 00       	call   191fd <write>
   17738:	83 c4 10             	add    $0x10,%esp
   1773b:	83 45 f0 01          	addl   $0x1,-0x10(%ebp)
   1773f:	8b 45 f0             	mov    -0x10(%ebp),%eax
   17742:	3b 45 f4             	cmp    -0xc(%ebp),%eax
   17745:	7c ac                	jl     176f3 <userJ+0xb2>
   17747:	83 ec 0c             	sub    $0xc,%esp
   1774a:	6a 00                	push   $0x0
   1774c:	e8 94 1a 00 00       	call   191e5 <exit>
   17751:	83 c4 10             	add    $0x10,%esp
   17754:	b8 2a 00 00 00       	mov    $0x2a,%eax
   17759:	c9                   	leave  
   1775a:	c3                   	ret    

0001775b <userY>:
   1775b:	55                   	push   %ebp
   1775c:	89 e5                	mov    %esp,%ebp
   1775e:	81 ec 38 01 00 00    	sub    $0x138,%esp
   17764:	c7 45 f4 0a 00 00 00 	movl   $0xa,-0xc(%ebp)
   1776b:	c6 45 e7 59          	movb   $0x59,-0x19(%ebp)
   1776f:	c7 85 4c ff ff ff 00 	movl   $0x0,-0xb4(%ebp)
   17776:	00 00 00 
   17779:	c7 85 50 ff ff ff 00 	movl   $0x0,-0xb0(%ebp)
   17780:	00 00 00 
   17783:	c7 85 54 ff ff ff 00 	movl   $0x0,-0xac(%ebp)
   1778a:	00 00 00 
   1778d:	c7 85 58 ff ff ff 00 	movl   $0x0,-0xa8(%ebp)
   17794:	00 00 00 
   17797:	c7 85 5c ff ff ff 00 	movl   $0x0,-0xa4(%ebp)
   1779e:	00 00 00 
   177a1:	83 ec 0c             	sub    $0xc,%esp
   177a4:	8d 85 4c ff ff ff    	lea    -0xb4(%ebp),%eax
   177aa:	50                   	push   %eax
   177ab:	6a 05                	push   $0x5
   177ad:	6a 0d                	push   $0xd
   177af:	ff 75 0c             	pushl  0xc(%ebp)
   177b2:	6a 00                	push   $0x0
   177b4:	e8 89 19 00 00       	call   19142 <parseArgString>
   177b9:	83 c4 20             	add    $0x20,%esp
   177bc:	89 45 e0             	mov    %eax,-0x20(%ebp)
   177bf:	83 7d e0 01          	cmpl   $0x1,-0x20(%ebp)
   177c3:	7e 29                	jle    177ee <userY+0x93>
   177c5:	8b 85 50 ff ff ff    	mov    -0xb0(%ebp),%eax
   177cb:	0f b6 00             	movzbl (%eax),%eax
   177ce:	88 45 f3             	mov    %al,-0xd(%ebp)
   177d1:	83 7d e0 02          	cmpl   $0x2,-0x20(%ebp)
   177d5:	7e 17                	jle    177ee <userY+0x93>
   177d7:	8b 85 54 ff ff ff    	mov    -0xac(%ebp),%eax
   177dd:	83 ec 08             	sub    $0x8,%esp
   177e0:	6a 0a                	push   $0xa
   177e2:	50                   	push   %eax
   177e3:	e8 63 13 00 00       	call   18b4b <str2int>
   177e8:	83 c4 10             	add    $0x10,%esp
   177eb:	89 45 f4             	mov    %eax,-0xc(%ebp)
   177ee:	0f be 55 f3          	movsbl -0xd(%ebp),%edx
   177f2:	0f be 45 e7          	movsbl -0x19(%ebp),%eax
   177f6:	52                   	push   %edx
   177f7:	50                   	push   %eax
   177f8:	68 65 a3 01 00       	push   $0x1a365
   177fd:	8d 85 60 ff ff ff    	lea    -0xa0(%ebp),%eax
   17803:	50                   	push   %eax
   17804:	e8 22 15 00 00       	call   18d2b <sprint>
   17809:	83 c4 10             	add    $0x10,%esp
   1780c:	c7 45 ec 00 00 00 00 	movl   $0x0,-0x14(%ebp)
   17813:	eb 3c                	jmp    17851 <userY+0xf6>
   17815:	83 ec 0c             	sub    $0xc,%esp
   17818:	8d 85 60 ff ff ff    	lea    -0xa0(%ebp),%eax
   1781e:	50                   	push   %eax
   1781f:	e8 df 12 00 00       	call   18b03 <swrites>
   17824:	83 c4 10             	add    $0x10,%esp
   17827:	c7 45 e8 00 00 00 00 	movl   $0x0,-0x18(%ebp)
   1782e:	eb 04                	jmp    17834 <userY+0xd9>
   17830:	83 45 e8 01          	addl   $0x1,-0x18(%ebp)
   17834:	81 7d e8 9f 25 26 00 	cmpl   $0x26259f,-0x18(%ebp)
   1783b:	7e f3                	jle    17830 <userY+0xd5>
   1783d:	83 ec 0c             	sub    $0xc,%esp
   17840:	68 e8 03 00 00       	push   $0x3e8
   17845:	e8 bb 19 00 00       	call   19205 <sleep>
   1784a:	83 c4 10             	add    $0x10,%esp
   1784d:	83 45 ec 01          	addl   $0x1,-0x14(%ebp)
   17851:	8b 45 ec             	mov    -0x14(%ebp),%eax
   17854:	3b 45 f4             	cmp    -0xc(%ebp),%eax
   17857:	7c bc                	jl     17815 <userY+0xba>
   17859:	83 ec 0c             	sub    $0xc,%esp
   1785c:	6a 00                	push   $0x0
   1785e:	e8 82 19 00 00       	call   191e5 <exit>
   17863:	83 c4 10             	add    $0x10,%esp
   17866:	b8 2a 00 00 00       	mov    $0x2a,%eax
   1786b:	c9                   	leave  
   1786c:	c3                   	ret    

0001786d <main4>:
   1786d:	55                   	push   %ebp
   1786e:	89 e5                	mov    %esp,%ebp
   17870:	81 ec d8 00 00 00    	sub    $0xd8,%esp
   17876:	c7 45 f4 05 00 00 00 	movl   $0x5,-0xc(%ebp)
   1787d:	c6 45 e3 34          	movb   $0x34,-0x1d(%ebp)
   17881:	c7 45 ec 1e 00 00 00 	movl   $0x1e,-0x14(%ebp)
   17888:	c7 45 df 2a 34 2a 00 	movl   $0x2a342a,-0x21(%ebp)
   1788f:	c7 45 a8 00 00 00 00 	movl   $0x0,-0x58(%ebp)
   17896:	c7 45 ac 00 00 00 00 	movl   $0x0,-0x54(%ebp)
   1789d:	c7 45 b0 00 00 00 00 	movl   $0x0,-0x50(%ebp)
   178a4:	c7 45 b4 00 00 00 00 	movl   $0x0,-0x4c(%ebp)
   178ab:	c7 45 b8 00 00 00 00 	movl   $0x0,-0x48(%ebp)
   178b2:	83 ec 0c             	sub    $0xc,%esp
   178b5:	8d 45 a8             	lea    -0x58(%ebp),%eax
   178b8:	50                   	push   %eax
   178b9:	6a 05                	push   $0x5
   178bb:	6a 0d                	push   $0xd
   178bd:	ff 75 0c             	pushl  0xc(%ebp)
   178c0:	6a 03                	push   $0x3
   178c2:	e8 7b 18 00 00       	call   19142 <parseArgString>
   178c7:	83 c4 20             	add    $0x20,%esp
   178ca:	89 45 e8             	mov    %eax,-0x18(%ebp)
   178cd:	83 7d e8 03          	cmpl   $0x3,-0x18(%ebp)
   178d1:	74 33                	je     17906 <main4+0x99>
   178d3:	83 ec 0c             	sub    $0xc,%esp
   178d6:	6a 03                	push   $0x3
   178d8:	ff 75 e8             	pushl  -0x18(%ebp)
   178db:	68 6e a3 01 00       	push   $0x1a36e
   178e0:	68 2e a2 01 00       	push   $0x1a22e
   178e5:	8d 85 28 ff ff ff    	lea    -0xd8(%ebp),%eax
   178eb:	50                   	push   %eax
   178ec:	e8 3a 14 00 00       	call   18d2b <sprint>
   178f1:	83 c4 20             	add    $0x20,%esp
   178f4:	83 ec 0c             	sub    $0xc,%esp
   178f7:	8d 85 28 ff ff ff    	lea    -0xd8(%ebp),%eax
   178fd:	50                   	push   %eax
   178fe:	e8 97 11 00 00       	call   18a9a <cwrites>
   17903:	83 c4 10             	add    $0x10,%esp
   17906:	83 7d e8 03          	cmpl   $0x3,-0x18(%ebp)
   1790a:	75 1d                	jne    17929 <main4+0xbc>
   1790c:	8b 45 ac             	mov    -0x54(%ebp),%eax
   1790f:	0f b6 00             	movzbl (%eax),%eax
   17912:	88 45 e3             	mov    %al,-0x1d(%ebp)
   17915:	8b 45 b0             	mov    -0x50(%ebp),%eax
   17918:	83 ec 08             	sub    $0x8,%esp
   1791b:	6a 0a                	push   $0xa
   1791d:	50                   	push   %eax
   1791e:	e8 28 12 00 00       	call   18b4b <str2int>
   17923:	83 c4 10             	add    $0x10,%esp
   17926:	89 45 f4             	mov    %eax,-0xc(%ebp)
   17929:	83 ec 04             	sub    $0x4,%esp
   1792c:	6a 01                	push   $0x1
   1792e:	8d 45 e3             	lea    -0x1d(%ebp),%eax
   17931:	50                   	push   %eax
   17932:	6a 01                	push   $0x1
   17934:	e8 c4 18 00 00       	call   191fd <write>
   17939:	83 c4 10             	add    $0x10,%esp
   1793c:	c7 45 f0 00 00 00 00 	movl   $0x0,-0x10(%ebp)
   17943:	e9 9a 00 00 00       	jmp    179e2 <main4+0x175>
   17948:	83 ec 04             	sub    $0x4,%esp
   1794b:	6a 01                	push   $0x1
   1794d:	8d 45 e3             	lea    -0x1d(%ebp),%eax
   17950:	50                   	push   %eax
   17951:	6a 01                	push   $0x1
   17953:	e8 a5 18 00 00       	call   191fd <write>
   17958:	83 c4 10             	add    $0x10,%esp
   1795b:	8b 45 f0             	mov    -0x10(%ebp),%eax
   1795e:	83 c0 64             	add    $0x64,%eax
   17961:	83 ec 04             	sub    $0x4,%esp
   17964:	50                   	push   %eax
   17965:	68 74 a3 01 00       	push   $0x1a374
   1796a:	8d 45 bf             	lea    -0x41(%ebp),%eax
   1796d:	50                   	push   %eax
   1796e:	e8 b8 13 00 00       	call   18d2b <sprint>
   17973:	83 c4 10             	add    $0x10,%esp
   17976:	83 ec 0c             	sub    $0xc,%esp
   17979:	8d 45 bf             	lea    -0x41(%ebp),%eax
   1797c:	50                   	push   %eax
   1797d:	e8 3b 12 00 00       	call   18bbd <strlen>
   17982:	83 c4 10             	add    $0x10,%esp
   17985:	8d 50 01             	lea    0x1(%eax),%edx
   17988:	8d 45 bf             	lea    -0x41(%ebp),%eax
   1798b:	50                   	push   %eax
   1798c:	52                   	push   %edx
   1798d:	6a 01                	push   $0x1
   1798f:	68 02 7a 01 00       	push   $0x17a02
   17994:	e8 54 18 00 00       	call   191ed <spawn>
   17999:	83 c4 10             	add    $0x10,%esp
   1799c:	89 45 e4             	mov    %eax,-0x1c(%ebp)
   1799f:	83 7d e4 00          	cmpl   $0x0,-0x1c(%ebp)
   179a3:	79 11                	jns    179b6 <main4+0x149>
   179a5:	83 ec 0c             	sub    $0xc,%esp
   179a8:	8d 45 df             	lea    -0x21(%ebp),%eax
   179ab:	50                   	push   %eax
   179ac:	e8 52 11 00 00       	call   18b03 <swrites>
   179b1:	83 c4 10             	add    $0x10,%esp
   179b4:	eb 13                	jmp    179c9 <main4+0x15c>
   179b6:	83 ec 04             	sub    $0x4,%esp
   179b9:	6a 01                	push   $0x1
   179bb:	8d 45 e3             	lea    -0x1d(%ebp),%eax
   179be:	50                   	push   %eax
   179bf:	6a 01                	push   $0x1
   179c1:	e8 37 18 00 00       	call   191fd <write>
   179c6:	83 c4 10             	add    $0x10,%esp
   179c9:	8b 45 ec             	mov    -0x14(%ebp),%eax
   179cc:	69 c0 e8 03 00 00    	imul   $0x3e8,%eax,%eax
   179d2:	83 ec 0c             	sub    $0xc,%esp
   179d5:	50                   	push   %eax
   179d6:	e8 2a 18 00 00       	call   19205 <sleep>
   179db:	83 c4 10             	add    $0x10,%esp
   179de:	83 45 f0 01          	addl   $0x1,-0x10(%ebp)
   179e2:	8b 45 f0             	mov    -0x10(%ebp),%eax
   179e5:	3b 45 f4             	cmp    -0xc(%ebp),%eax
   179e8:	0f 8c 5a ff ff ff    	jl     17948 <main4+0xdb>
   179ee:	83 ec 0c             	sub    $0xc,%esp
   179f1:	6a 00                	push   $0x0
   179f3:	e8 ed 17 00 00       	call   191e5 <exit>
   179f8:	83 c4 10             	add    $0x10,%esp
   179fb:	b8 2a 00 00 00       	mov    $0x2a,%eax
   17a00:	c9                   	leave  
   17a01:	c3                   	ret    

00017a02 <userX>:
   17a02:	55                   	push   %ebp
   17a03:	89 e5                	mov    %esp,%ebp
   17a05:	81 ec 38 01 00 00    	sub    $0x138,%esp
   17a0b:	c7 45 e8 14 00 00 00 	movl   $0x14,-0x18(%ebp)
   17a12:	c6 45 e3 78          	movb   $0x78,-0x1d(%ebp)
   17a16:	c7 45 f4 11 00 00 00 	movl   $0x11,-0xc(%ebp)
   17a1d:	c7 85 4c ff ff ff 00 	movl   $0x0,-0xb4(%ebp)
   17a24:	00 00 00 
   17a27:	c7 85 50 ff ff ff 00 	movl   $0x0,-0xb0(%ebp)
   17a2e:	00 00 00 
   17a31:	c7 85 54 ff ff ff 00 	movl   $0x0,-0xac(%ebp)
   17a38:	00 00 00 
   17a3b:	c7 85 58 ff ff ff 00 	movl   $0x0,-0xa8(%ebp)
   17a42:	00 00 00 
   17a45:	c7 85 5c ff ff ff 00 	movl   $0x0,-0xa4(%ebp)
   17a4c:	00 00 00 
   17a4f:	83 ec 0c             	sub    $0xc,%esp
   17a52:	8d 85 4c ff ff ff    	lea    -0xb4(%ebp),%eax
   17a58:	50                   	push   %eax
   17a59:	6a 05                	push   $0x5
   17a5b:	6a 0d                	push   $0xd
   17a5d:	ff 75 0c             	pushl  0xc(%ebp)
   17a60:	6a 03                	push   $0x3
   17a62:	e8 db 16 00 00       	call   19142 <parseArgString>
   17a67:	83 c4 20             	add    $0x20,%esp
   17a6a:	89 45 e4             	mov    %eax,-0x1c(%ebp)
   17a6d:	83 7d e4 03          	cmpl   $0x3,-0x1c(%ebp)
   17a71:	74 33                	je     17aa6 <userX+0xa4>
   17a73:	83 ec 0c             	sub    $0xc,%esp
   17a76:	6a 03                	push   $0x3
   17a78:	ff 75 e4             	pushl  -0x1c(%ebp)
   17a7b:	68 7f a3 01 00       	push   $0x1a37f
   17a80:	68 2e a2 01 00       	push   $0x1a22e
   17a85:	8d 85 cc fe ff ff    	lea    -0x134(%ebp),%eax
   17a8b:	50                   	push   %eax
   17a8c:	e8 9a 12 00 00       	call   18d2b <sprint>
   17a91:	83 c4 20             	add    $0x20,%esp
   17a94:	83 ec 0c             	sub    $0xc,%esp
   17a97:	8d 85 cc fe ff ff    	lea    -0x134(%ebp),%eax
   17a9d:	50                   	push   %eax
   17a9e:	e8 f7 0f 00 00       	call   18a9a <cwrites>
   17aa3:	83 c4 10             	add    $0x10,%esp
   17aa6:	83 7d e4 03          	cmpl   $0x3,-0x1c(%ebp)
   17aaa:	75 23                	jne    17acf <userX+0xcd>
   17aac:	8b 85 50 ff ff ff    	mov    -0xb0(%ebp),%eax
   17ab2:	0f b6 00             	movzbl (%eax),%eax
   17ab5:	88 45 e3             	mov    %al,-0x1d(%ebp)
   17ab8:	8b 85 54 ff ff ff    	mov    -0xac(%ebp),%eax
   17abe:	83 ec 08             	sub    $0x8,%esp
   17ac1:	6a 0a                	push   $0xa
   17ac3:	50                   	push   %eax
   17ac4:	e8 82 10 00 00       	call   18b4b <str2int>
   17ac9:	83 c4 10             	add    $0x10,%esp
   17acc:	89 45 f4             	mov    %eax,-0xc(%ebp)
   17acf:	83 ec 04             	sub    $0x4,%esp
   17ad2:	6a 01                	push   $0x1
   17ad4:	8d 45 e3             	lea    -0x1d(%ebp),%eax
   17ad7:	50                   	push   %eax
   17ad8:	6a 01                	push   $0x1
   17ada:	e8 1e 17 00 00       	call   191fd <write>
   17adf:	83 c4 10             	add    $0x10,%esp
   17ae2:	0f b6 45 e3          	movzbl -0x1d(%ebp),%eax
   17ae6:	0f be c0             	movsbl %al,%eax
   17ae9:	ff 75 f4             	pushl  -0xc(%ebp)
   17aec:	50                   	push   %eax
   17aed:	68 4d a3 01 00       	push   $0x1a34d
   17af2:	8d 85 63 ff ff ff    	lea    -0x9d(%ebp),%eax
   17af8:	50                   	push   %eax
   17af9:	e8 2d 12 00 00       	call   18d2b <sprint>
   17afe:	83 c4 10             	add    $0x10,%esp
   17b01:	c7 45 f0 00 00 00 00 	movl   $0x0,-0x10(%ebp)
   17b08:	eb 2c                	jmp    17b36 <userX+0x134>
   17b0a:	83 ec 0c             	sub    $0xc,%esp
   17b0d:	8d 85 63 ff ff ff    	lea    -0x9d(%ebp),%eax
   17b13:	50                   	push   %eax
   17b14:	e8 ea 0f 00 00       	call   18b03 <swrites>
   17b19:	83 c4 10             	add    $0x10,%esp
   17b1c:	c7 45 ec 00 00 00 00 	movl   $0x0,-0x14(%ebp)
   17b23:	eb 04                	jmp    17b29 <userX+0x127>
   17b25:	83 45 ec 01          	addl   $0x1,-0x14(%ebp)
   17b29:	81 7d ec 9f 25 26 00 	cmpl   $0x26259f,-0x14(%ebp)
   17b30:	7e f3                	jle    17b25 <userX+0x123>
   17b32:	83 45 f0 01          	addl   $0x1,-0x10(%ebp)
   17b36:	8b 45 f0             	mov    -0x10(%ebp),%eax
   17b39:	3b 45 e8             	cmp    -0x18(%ebp),%eax
   17b3c:	7c cc                	jl     17b0a <userX+0x108>
   17b3e:	83 ec 0c             	sub    $0xc,%esp
   17b41:	6a 0c                	push   $0xc
   17b43:	e8 9d 16 00 00       	call   191e5 <exit>
   17b48:	83 c4 10             	add    $0x10,%esp
   17b4b:	b8 2a 00 00 00       	mov    $0x2a,%eax
   17b50:	c9                   	leave  
   17b51:	c3                   	ret    

00017b52 <main5>:
   17b52:	55                   	push   %ebp
   17b53:	89 e5                	mov    %esp,%ebp
   17b55:	81 ec d8 00 00 00    	sub    $0xd8,%esp
   17b5b:	c7 45 f4 05 00 00 00 	movl   $0x5,-0xc(%ebp)
   17b62:	c6 45 d3 35          	movb   $0x35,-0x2d(%ebp)
   17b66:	c7 45 f0 00 00 00 00 	movl   $0x0,-0x10(%ebp)
   17b6d:	c7 45 ce 2a 35 77 2a 	movl   $0x2a77352a,-0x32(%ebp)
   17b74:	c6 45 d2 00          	movb   $0x0,-0x2e(%ebp)
   17b78:	c7 45 c9 2a 35 7a 2a 	movl   $0x2a7a352a,-0x37(%ebp)
   17b7f:	c6 45 cd 00          	movb   $0x0,-0x33(%ebp)
   17b83:	c7 45 b4 00 00 00 00 	movl   $0x0,-0x4c(%ebp)
   17b8a:	c7 45 b8 00 00 00 00 	movl   $0x0,-0x48(%ebp)
   17b91:	c7 45 bc 00 00 00 00 	movl   $0x0,-0x44(%ebp)
   17b98:	c7 45 c0 00 00 00 00 	movl   $0x0,-0x40(%ebp)
   17b9f:	c7 45 c4 00 00 00 00 	movl   $0x0,-0x3c(%ebp)
   17ba6:	83 ec 0c             	sub    $0xc,%esp
   17ba9:	8d 45 b4             	lea    -0x4c(%ebp),%eax
   17bac:	50                   	push   %eax
   17bad:	6a 05                	push   $0x5
   17baf:	6a 0d                	push   $0xd
   17bb1:	ff 75 0c             	pushl  0xc(%ebp)
   17bb4:	6a 03                	push   $0x3
   17bb6:	e8 87 15 00 00       	call   19142 <parseArgString>
   17bbb:	83 c4 20             	add    $0x20,%esp
   17bbe:	89 45 e8             	mov    %eax,-0x18(%ebp)
   17bc1:	83 7d e8 03          	cmpl   $0x3,-0x18(%ebp)
   17bc5:	74 33                	je     17bfa <main5+0xa8>
   17bc7:	83 ec 0c             	sub    $0xc,%esp
   17bca:	6a 03                	push   $0x3
   17bcc:	ff 75 e8             	pushl  -0x18(%ebp)
   17bcf:	68 85 a3 01 00       	push   $0x1a385
   17bd4:	68 2e a2 01 00       	push   $0x1a22e
   17bd9:	8d 85 34 ff ff ff    	lea    -0xcc(%ebp),%eax
   17bdf:	50                   	push   %eax
   17be0:	e8 46 11 00 00       	call   18d2b <sprint>
   17be5:	83 c4 20             	add    $0x20,%esp
   17be8:	83 ec 0c             	sub    $0xc,%esp
   17beb:	8d 85 34 ff ff ff    	lea    -0xcc(%ebp),%eax
   17bf1:	50                   	push   %eax
   17bf2:	e8 a3 0e 00 00       	call   18a9a <cwrites>
   17bf7:	83 c4 10             	add    $0x10,%esp
   17bfa:	83 7d e8 04          	cmpl   $0x4,-0x18(%ebp)
   17bfe:	75 2e                	jne    17c2e <main5+0xdc>
   17c00:	8b 45 b8             	mov    -0x48(%ebp),%eax
   17c03:	0f b6 00             	movzbl (%eax),%eax
   17c06:	88 45 d3             	mov    %al,-0x2d(%ebp)
   17c09:	8b 45 bc             	mov    -0x44(%ebp),%eax
   17c0c:	0f b6 00             	movzbl (%eax),%eax
   17c0f:	3c 74                	cmp    $0x74,%al
   17c11:	0f 94 c0             	sete   %al
   17c14:	0f b6 c0             	movzbl %al,%eax
   17c17:	89 45 f0             	mov    %eax,-0x10(%ebp)
   17c1a:	8b 45 c0             	mov    -0x40(%ebp),%eax
   17c1d:	83 ec 08             	sub    $0x8,%esp
   17c20:	6a 0a                	push   $0xa
   17c22:	50                   	push   %eax
   17c23:	e8 23 0f 00 00       	call   18b4b <str2int>
   17c28:	83 c4 10             	add    $0x10,%esp
   17c2b:	89 45 f4             	mov    %eax,-0xc(%ebp)
   17c2e:	83 ec 04             	sub    $0x4,%esp
   17c31:	6a 01                	push   $0x1
   17c33:	8d 45 d3             	lea    -0x2d(%ebp),%eax
   17c36:	50                   	push   %eax
   17c37:	6a 01                	push   $0x1
   17c39:	e8 bf 15 00 00       	call   191fd <write>
   17c3e:	83 c4 10             	add    $0x10,%esp
   17c41:	c7 45 e4 8b a3 01 00 	movl   $0x1a38b,-0x1c(%ebp)
   17c48:	83 ec 0c             	sub    $0xc,%esp
   17c4b:	ff 75 e4             	pushl  -0x1c(%ebp)
   17c4e:	e8 6a 0f 00 00       	call   18bbd <strlen>
   17c53:	83 c4 10             	add    $0x10,%esp
   17c56:	83 c0 01             	add    $0x1,%eax
   17c59:	89 45 e0             	mov    %eax,-0x20(%ebp)
   17c5c:	c7 45 dc 98 a3 01 00 	movl   $0x1a398,-0x24(%ebp)
   17c63:	83 ec 0c             	sub    $0xc,%esp
   17c66:	ff 75 dc             	pushl  -0x24(%ebp)
   17c69:	e8 4f 0f 00 00       	call   18bbd <strlen>
   17c6e:	83 c4 10             	add    $0x10,%esp
   17c71:	83 c0 01             	add    $0x1,%eax
   17c74:	89 45 d8             	mov    %eax,-0x28(%ebp)
   17c77:	c7 45 ec 00 00 00 00 	movl   $0x0,-0x14(%ebp)
   17c7e:	eb 79                	jmp    17cf9 <main5+0x1a7>
   17c80:	83 ec 04             	sub    $0x4,%esp
   17c83:	6a 01                	push   $0x1
   17c85:	8d 45 d3             	lea    -0x2d(%ebp),%eax
   17c88:	50                   	push   %eax
   17c89:	6a 01                	push   $0x1
   17c8b:	e8 6d 15 00 00       	call   191fd <write>
   17c90:	83 c4 10             	add    $0x10,%esp
   17c93:	8b 45 e0             	mov    -0x20(%ebp),%eax
   17c96:	ff 75 e4             	pushl  -0x1c(%ebp)
   17c99:	50                   	push   %eax
   17c9a:	6a 01                	push   $0x1
   17c9c:	68 08 75 01 00       	push   $0x17508
   17ca1:	e8 47 15 00 00       	call   191ed <spawn>
   17ca6:	83 c4 10             	add    $0x10,%esp
   17ca9:	89 45 d4             	mov    %eax,-0x2c(%ebp)
   17cac:	83 7d d4 00          	cmpl   $0x0,-0x2c(%ebp)
   17cb0:	7f 0f                	jg     17cc1 <main5+0x16f>
   17cb2:	83 ec 0c             	sub    $0xc,%esp
   17cb5:	8d 45 ce             	lea    -0x32(%ebp),%eax
   17cb8:	50                   	push   %eax
   17cb9:	e8 45 0e 00 00       	call   18b03 <swrites>
   17cbe:	83 c4 10             	add    $0x10,%esp
   17cc1:	83 7d f0 00          	cmpl   $0x0,-0x10(%ebp)
   17cc5:	74 2e                	je     17cf5 <main5+0x1a3>
   17cc7:	8b 45 d8             	mov    -0x28(%ebp),%eax
   17cca:	ff 75 dc             	pushl  -0x24(%ebp)
   17ccd:	50                   	push   %eax
   17cce:	6a 01                	push   $0x1
   17cd0:	68 f6 70 01 00       	push   $0x170f6
   17cd5:	e8 13 15 00 00       	call   191ed <spawn>
   17cda:	83 c4 10             	add    $0x10,%esp
   17cdd:	89 45 d4             	mov    %eax,-0x2c(%ebp)
   17ce0:	83 7d d4 00          	cmpl   $0x0,-0x2c(%ebp)
   17ce4:	7f 0f                	jg     17cf5 <main5+0x1a3>
   17ce6:	83 ec 0c             	sub    $0xc,%esp
   17ce9:	8d 45 c9             	lea    -0x37(%ebp),%eax
   17cec:	50                   	push   %eax
   17ced:	e8 11 0e 00 00       	call   18b03 <swrites>
   17cf2:	83 c4 10             	add    $0x10,%esp
   17cf5:	83 45 ec 01          	addl   $0x1,-0x14(%ebp)
   17cf9:	8b 45 ec             	mov    -0x14(%ebp),%eax
   17cfc:	3b 45 f4             	cmp    -0xc(%ebp),%eax
   17cff:	0f 8c 7b ff ff ff    	jl     17c80 <main5+0x12e>
   17d05:	83 ec 0c             	sub    $0xc,%esp
   17d08:	6a 00                	push   $0x0
   17d0a:	e8 d6 14 00 00       	call   191e5 <exit>
   17d0f:	83 c4 10             	add    $0x10,%esp
   17d12:	b8 2a 00 00 00       	mov    $0x2a,%eax
   17d17:	c9                   	leave  
   17d18:	c3                   	ret    

00017d19 <userP>:
   17d19:	55                   	push   %ebp
   17d1a:	89 e5                	mov    %esp,%ebp
   17d1c:	81 ec b8 00 00 00    	sub    $0xb8,%esp
   17d22:	c7 45 f4 03 00 00 00 	movl   $0x3,-0xc(%ebp)
   17d29:	c6 45 e7 70          	movb   $0x70,-0x19(%ebp)
   17d2d:	c7 45 f0 02 00 00 00 	movl   $0x2,-0x10(%ebp)
   17d34:	c7 45 d0 00 00 00 00 	movl   $0x0,-0x30(%ebp)
   17d3b:	c7 45 d4 00 00 00 00 	movl   $0x0,-0x2c(%ebp)
   17d42:	c7 45 d8 00 00 00 00 	movl   $0x0,-0x28(%ebp)
   17d49:	c7 45 dc 00 00 00 00 	movl   $0x0,-0x24(%ebp)
   17d50:	c7 45 e0 00 00 00 00 	movl   $0x0,-0x20(%ebp)
   17d57:	83 ec 0c             	sub    $0xc,%esp
   17d5a:	8d 45 d0             	lea    -0x30(%ebp),%eax
   17d5d:	50                   	push   %eax
   17d5e:	6a 05                	push   $0x5
   17d60:	6a 0d                	push   $0xd
   17d62:	ff 75 0c             	pushl  0xc(%ebp)
   17d65:	6a 00                	push   $0x0
   17d67:	e8 d6 13 00 00       	call   19142 <parseArgString>
   17d6c:	83 c4 20             	add    $0x20,%esp
   17d6f:	89 45 e8             	mov    %eax,-0x18(%ebp)
   17d72:	83 7d e8 01          	cmpl   $0x1,-0x18(%ebp)
   17d76:	7e 3d                	jle    17db5 <userP+0x9c>
   17d78:	8b 45 d4             	mov    -0x2c(%ebp),%eax
   17d7b:	0f b6 00             	movzbl (%eax),%eax
   17d7e:	88 45 e7             	mov    %al,-0x19(%ebp)
   17d81:	83 7d e8 02          	cmpl   $0x2,-0x18(%ebp)
   17d85:	7e 2e                	jle    17db5 <userP+0x9c>
   17d87:	8b 45 d8             	mov    -0x28(%ebp),%eax
   17d8a:	83 ec 08             	sub    $0x8,%esp
   17d8d:	6a 0a                	push   $0xa
   17d8f:	50                   	push   %eax
   17d90:	e8 b6 0d 00 00       	call   18b4b <str2int>
   17d95:	83 c4 10             	add    $0x10,%esp
   17d98:	89 45 f4             	mov    %eax,-0xc(%ebp)
   17d9b:	83 7d e8 03          	cmpl   $0x3,-0x18(%ebp)
   17d9f:	7e 14                	jle    17db5 <userP+0x9c>
   17da1:	8b 45 dc             	mov    -0x24(%ebp),%eax
   17da4:	83 ec 08             	sub    $0x8,%esp
   17da7:	6a 0a                	push   $0xa
   17da9:	50                   	push   %eax
   17daa:	e8 9c 0d 00 00       	call   18b4b <str2int>
   17daf:	83 c4 10             	add    $0x10,%esp
   17db2:	89 45 f0             	mov    %eax,-0x10(%ebp)
   17db5:	83 ec 04             	sub    $0x4,%esp
   17db8:	6a 01                	push   $0x1
   17dba:	8d 45 e7             	lea    -0x19(%ebp),%eax
   17dbd:	50                   	push   %eax
   17dbe:	6a 01                	push   $0x1
   17dc0:	e8 38 14 00 00       	call   191fd <write>
   17dc5:	83 c4 10             	add    $0x10,%esp
   17dc8:	c7 45 ec 00 00 00 00 	movl   $0x0,-0x14(%ebp)
   17dcf:	eb 2c                	jmp    17dfd <userP+0xe4>
   17dd1:	8b 45 f0             	mov    -0x10(%ebp),%eax
   17dd4:	69 c0 e8 03 00 00    	imul   $0x3e8,%eax,%eax
   17dda:	83 ec 0c             	sub    $0xc,%esp
   17ddd:	50                   	push   %eax
   17dde:	e8 22 14 00 00       	call   19205 <sleep>
   17de3:	83 c4 10             	add    $0x10,%esp
   17de6:	83 ec 04             	sub    $0x4,%esp
   17de9:	6a 01                	push   $0x1
   17deb:	8d 45 e7             	lea    -0x19(%ebp),%eax
   17dee:	50                   	push   %eax
   17def:	6a 01                	push   $0x1
   17df1:	e8 07 14 00 00       	call   191fd <write>
   17df6:	83 c4 10             	add    $0x10,%esp
   17df9:	83 45 ec 01          	addl   $0x1,-0x14(%ebp)
   17dfd:	8b 45 ec             	mov    -0x14(%ebp),%eax
   17e00:	3b 45 f4             	cmp    -0xc(%ebp),%eax
   17e03:	7c cc                	jl     17dd1 <userP+0xb8>
   17e05:	83 ec 0c             	sub    $0xc,%esp
   17e08:	6a 00                	push   $0x0
   17e0a:	e8 d6 13 00 00       	call   191e5 <exit>
   17e0f:	83 c4 10             	add    $0x10,%esp
   17e12:	b8 2a 00 00 00       	mov    $0x2a,%eax
   17e17:	c9                   	leave  
   17e18:	c3                   	ret    

00017e19 <userQ>:
   17e19:	55                   	push   %ebp
   17e1a:	89 e5                	mov    %esp,%ebp
   17e1c:	81 ec 28 01 00 00    	sub    $0x128,%esp
   17e22:	c6 45 f3 71          	movb   $0x71,-0xd(%ebp)
   17e26:	c7 85 5c ff ff ff 00 	movl   $0x0,-0xa4(%ebp)
   17e2d:	00 00 00 
   17e30:	c7 85 60 ff ff ff 00 	movl   $0x0,-0xa0(%ebp)
   17e37:	00 00 00 
   17e3a:	c7 85 64 ff ff ff 00 	movl   $0x0,-0x9c(%ebp)
   17e41:	00 00 00 
   17e44:	c7 85 68 ff ff ff 00 	movl   $0x0,-0x98(%ebp)
   17e4b:	00 00 00 
   17e4e:	c7 85 6c ff ff ff 00 	movl   $0x0,-0x94(%ebp)
   17e55:	00 00 00 
   17e58:	83 ec 0c             	sub    $0xc,%esp
   17e5b:	8d 85 5c ff ff ff    	lea    -0xa4(%ebp),%eax
   17e61:	50                   	push   %eax
   17e62:	6a 05                	push   $0x5
   17e64:	6a 0d                	push   $0xd
   17e66:	ff 75 0c             	pushl  0xc(%ebp)
   17e69:	6a 02                	push   $0x2
   17e6b:	e8 d2 12 00 00       	call   19142 <parseArgString>
   17e70:	83 c4 20             	add    $0x20,%esp
   17e73:	89 45 f4             	mov    %eax,-0xc(%ebp)
   17e76:	83 7d f4 02          	cmpl   $0x2,-0xc(%ebp)
   17e7a:	74 33                	je     17eaf <userQ+0x96>
   17e7c:	83 ec 0c             	sub    $0xc,%esp
   17e7f:	6a 02                	push   $0x2
   17e81:	ff 75 f4             	pushl  -0xc(%ebp)
   17e84:	68 a3 a3 01 00       	push   $0x1a3a3
   17e89:	68 2e a2 01 00       	push   $0x1a22e
   17e8e:	8d 85 dc fe ff ff    	lea    -0x124(%ebp),%eax
   17e94:	50                   	push   %eax
   17e95:	e8 91 0e 00 00       	call   18d2b <sprint>
   17e9a:	83 c4 20             	add    $0x20,%esp
   17e9d:	83 ec 0c             	sub    $0xc,%esp
   17ea0:	8d 85 dc fe ff ff    	lea    -0x124(%ebp),%eax
   17ea6:	50                   	push   %eax
   17ea7:	e8 ee 0b 00 00       	call   18a9a <cwrites>
   17eac:	83 c4 10             	add    $0x10,%esp
   17eaf:	83 7d f4 02          	cmpl   $0x2,-0xc(%ebp)
   17eb3:	75 0c                	jne    17ec1 <userQ+0xa8>
   17eb5:	8b 85 60 ff ff ff    	mov    -0xa0(%ebp),%eax
   17ebb:	0f b6 00             	movzbl (%eax),%eax
   17ebe:	88 45 f3             	mov    %al,-0xd(%ebp)
   17ec1:	83 ec 04             	sub    $0x4,%esp
   17ec4:	6a 01                	push   $0x1
   17ec6:	8d 45 f3             	lea    -0xd(%ebp),%eax
   17ec9:	50                   	push   %eax
   17eca:	6a 01                	push   $0x1
   17ecc:	e8 2c 13 00 00       	call   191fd <write>
   17ed1:	83 c4 10             	add    $0x10,%esp
   17ed4:	e8 4c 13 00 00       	call   19225 <bogus>
   17ed9:	0f b6 45 f3          	movzbl -0xd(%ebp),%eax
   17edd:	0f be c0             	movsbl %al,%eax
   17ee0:	83 ec 04             	sub    $0x4,%esp
   17ee3:	50                   	push   %eax
   17ee4:	68 ac a3 01 00       	push   $0x1a3ac
   17ee9:	8d 85 73 ff ff ff    	lea    -0x8d(%ebp),%eax
   17eef:	50                   	push   %eax
   17ef0:	e8 36 0e 00 00       	call   18d2b <sprint>
   17ef5:	83 c4 10             	add    $0x10,%esp
   17ef8:	83 ec 0c             	sub    $0xc,%esp
   17efb:	8d 85 73 ff ff ff    	lea    -0x8d(%ebp),%eax
   17f01:	50                   	push   %eax
   17f02:	e8 93 0b 00 00       	call   18a9a <cwrites>
   17f07:	83 c4 10             	add    $0x10,%esp
   17f0a:	83 ec 0c             	sub    $0xc,%esp
   17f0d:	6a 01                	push   $0x1
   17f0f:	e8 d1 12 00 00       	call   191e5 <exit>
   17f14:	83 c4 10             	add    $0x10,%esp
   17f17:	b8 2a 00 00 00       	mov    $0x2a,%eax
   17f1c:	c9                   	leave  
   17f1d:	c3                   	ret    

00017f1e <userR>:
   17f1e:	55                   	push   %ebp
   17f1f:	89 e5                	mov    %esp,%ebp
   17f21:	81 ec 38 01 00 00    	sub    $0x138,%esp
   17f27:	c6 45 f7 72          	movb   $0x72,-0x9(%ebp)
   17f2b:	c7 45 f0 0a 00 00 00 	movl   $0xa,-0x10(%ebp)
   17f32:	c7 85 4c ff ff ff 00 	movl   $0x0,-0xb4(%ebp)
   17f39:	00 00 00 
   17f3c:	c7 85 50 ff ff ff 00 	movl   $0x0,-0xb0(%ebp)
   17f43:	00 00 00 
   17f46:	c7 85 54 ff ff ff 00 	movl   $0x0,-0xac(%ebp)
   17f4d:	00 00 00 
   17f50:	c7 85 58 ff ff ff 00 	movl   $0x0,-0xa8(%ebp)
   17f57:	00 00 00 
   17f5a:	c7 85 5c ff ff ff 00 	movl   $0x0,-0xa4(%ebp)
   17f61:	00 00 00 
   17f64:	83 ec 0c             	sub    $0xc,%esp
   17f67:	8d 85 4c ff ff ff    	lea    -0xb4(%ebp),%eax
   17f6d:	50                   	push   %eax
   17f6e:	6a 05                	push   $0x5
   17f70:	6a 0d                	push   $0xd
   17f72:	ff 75 0c             	pushl  0xc(%ebp)
   17f75:	6a 00                	push   $0x0
   17f77:	e8 c6 11 00 00       	call   19142 <parseArgString>
   17f7c:	83 c4 20             	add    $0x20,%esp
   17f7f:	89 45 ec             	mov    %eax,-0x14(%ebp)
   17f82:	83 7d ec 01          	cmpl   $0x1,-0x14(%ebp)
   17f86:	7e 29                	jle    17fb1 <userR+0x93>
   17f88:	8b 85 50 ff ff ff    	mov    -0xb0(%ebp),%eax
   17f8e:	0f b6 00             	movzbl (%eax),%eax
   17f91:	88 45 f7             	mov    %al,-0x9(%ebp)
   17f94:	83 7d ec 02          	cmpl   $0x2,-0x14(%ebp)
   17f98:	7e 17                	jle    17fb1 <userR+0x93>
   17f9a:	8b 85 58 ff ff ff    	mov    -0xa8(%ebp),%eax
   17fa0:	83 ec 08             	sub    $0x8,%esp
   17fa3:	6a 0a                	push   $0xa
   17fa5:	50                   	push   %eax
   17fa6:	e8 a0 0b 00 00       	call   18b4b <str2int>
   17fab:	83 c4 10             	add    $0x10,%esp
   17fae:	89 45 f0             	mov    %eax,-0x10(%ebp)
   17fb1:	0f b6 45 f7          	movzbl -0x9(%ebp),%eax
   17fb5:	88 85 60 ff ff ff    	mov    %al,-0xa0(%ebp)
   17fbb:	c6 85 61 ff ff ff 5b 	movb   $0x5b,-0x9f(%ebp)
   17fc2:	c6 85 62 ff ff ff 3f 	movb   $0x3f,-0x9e(%ebp)
   17fc9:	c6 85 63 ff ff ff 5d 	movb   $0x5d,-0x9d(%ebp)
   17fd0:	c6 85 64 ff ff ff 00 	movb   $0x0,-0x9c(%ebp)
   17fd7:	83 ec 04             	sub    $0x4,%esp
   17fda:	6a 01                	push   $0x1
   17fdc:	8d 85 60 ff ff ff    	lea    -0xa0(%ebp),%eax
   17fe2:	50                   	push   %eax
   17fe3:	6a 01                	push   $0x1
   17fe5:	e8 13 12 00 00       	call   191fd <write>
   17fea:	83 c4 10             	add    $0x10,%esp
   17fed:	8b 45 f0             	mov    -0x10(%ebp),%eax
   17ff0:	69 c0 e8 03 00 00    	imul   $0x3e8,%eax,%eax
   17ff6:	83 ec 0c             	sub    $0xc,%esp
   17ff9:	50                   	push   %eax
   17ffa:	e8 06 12 00 00       	call   19205 <sleep>
   17fff:	83 c4 10             	add    $0x10,%esp
   18002:	83 ec 04             	sub    $0x4,%esp
   18005:	6a 01                	push   $0x1
   18007:	8d 85 60 ff ff ff    	lea    -0xa0(%ebp),%eax
   1800d:	83 c0 02             	add    $0x2,%eax
   18010:	50                   	push   %eax
   18011:	6a 01                	push   $0x1
   18013:	e8 dd 11 00 00       	call   191f5 <read>
   18018:	83 c4 10             	add    $0x10,%esp
   1801b:	89 45 e8             	mov    %eax,-0x18(%ebp)
   1801e:	83 7d e8 01          	cmpl   $0x1,-0x18(%ebp)
   18022:	74 46                	je     1806a <userR+0x14c>
   18024:	0f be 45 f7          	movsbl -0x9(%ebp),%eax
   18028:	ff 75 e8             	pushl  -0x18(%ebp)
   1802b:	50                   	push   %eax
   1802c:	68 d7 a3 01 00       	push   $0x1a3d7
   18031:	8d 85 68 ff ff ff    	lea    -0x98(%ebp),%eax
   18037:	50                   	push   %eax
   18038:	e8 ee 0c 00 00       	call   18d2b <sprint>
   1803d:	83 c4 10             	add    $0x10,%esp
   18040:	83 ec 0c             	sub    $0xc,%esp
   18043:	8d 85 68 ff ff ff    	lea    -0x98(%ebp),%eax
   18049:	50                   	push   %eax
   1804a:	e8 4b 0a 00 00       	call   18a9a <cwrites>
   1804f:	83 c4 10             	add    $0x10,%esp
   18052:	83 7d e8 ff          	cmpl   $0xffffffff,-0x18(%ebp)
   18056:	75 aa                	jne    18002 <userR+0xe4>
   18058:	83 ec 0c             	sub    $0xc,%esp
   1805b:	68 e8 03 00 00       	push   $0x3e8
   18060:	e8 a0 11 00 00       	call   19205 <sleep>
   18065:	83 c4 10             	add    $0x10,%esp
   18068:	eb 98                	jmp    18002 <userR+0xe4>
   1806a:	83 ec 04             	sub    $0x4,%esp
   1806d:	6a 04                	push   $0x4
   1806f:	8d 85 60 ff ff ff    	lea    -0xa0(%ebp),%eax
   18075:	50                   	push   %eax
   18076:	6a 01                	push   $0x1
   18078:	e8 80 11 00 00       	call   191fd <write>
   1807d:	83 c4 10             	add    $0x10,%esp
   18080:	eb 80                	jmp    18002 <userR+0xe4>

00018082 <userS>:
   18082:	55                   	push   %ebp
   18083:	89 e5                	mov    %esp,%ebp
   18085:	81 ec 28 01 00 00    	sub    $0x128,%esp
   1808b:	c6 45 ef 73          	movb   $0x73,-0x11(%ebp)
   1808f:	c7 45 f4 14 00 00 00 	movl   $0x14,-0xc(%ebp)
   18096:	c7 85 58 ff ff ff 00 	movl   $0x0,-0xa8(%ebp)
   1809d:	00 00 00 
   180a0:	c7 85 5c ff ff ff 00 	movl   $0x0,-0xa4(%ebp)
   180a7:	00 00 00 
   180aa:	c7 85 60 ff ff ff 00 	movl   $0x0,-0xa0(%ebp)
   180b1:	00 00 00 
   180b4:	c7 85 64 ff ff ff 00 	movl   $0x0,-0x9c(%ebp)
   180bb:	00 00 00 
   180be:	c7 85 68 ff ff ff 00 	movl   $0x0,-0x98(%ebp)
   180c5:	00 00 00 
   180c8:	83 ec 0c             	sub    $0xc,%esp
   180cb:	8d 85 58 ff ff ff    	lea    -0xa8(%ebp),%eax
   180d1:	50                   	push   %eax
   180d2:	6a 05                	push   $0x5
   180d4:	6a 0d                	push   $0xd
   180d6:	ff 75 0c             	pushl  0xc(%ebp)
   180d9:	6a 00                	push   $0x0
   180db:	e8 62 10 00 00       	call   19142 <parseArgString>
   180e0:	83 c4 20             	add    $0x20,%esp
   180e3:	89 45 f0             	mov    %eax,-0x10(%ebp)
   180e6:	83 7d f0 01          	cmpl   $0x1,-0x10(%ebp)
   180ea:	7e 29                	jle    18115 <userS+0x93>
   180ec:	8b 85 5c ff ff ff    	mov    -0xa4(%ebp),%eax
   180f2:	0f b6 00             	movzbl (%eax),%eax
   180f5:	88 45 ef             	mov    %al,-0x11(%ebp)
   180f8:	83 7d f0 02          	cmpl   $0x2,-0x10(%ebp)
   180fc:	7e 17                	jle    18115 <userS+0x93>
   180fe:	8b 85 60 ff ff ff    	mov    -0xa0(%ebp),%eax
   18104:	83 ec 08             	sub    $0x8,%esp
   18107:	6a 0a                	push   $0xa
   18109:	50                   	push   %eax
   1810a:	e8 3c 0a 00 00       	call   18b4b <str2int>
   1810f:	83 c4 10             	add    $0x10,%esp
   18112:	89 45 f4             	mov    %eax,-0xc(%ebp)
   18115:	83 ec 04             	sub    $0x4,%esp
   18118:	6a 01                	push   $0x1
   1811a:	8d 45 ef             	lea    -0x11(%ebp),%eax
   1811d:	50                   	push   %eax
   1811e:	6a 01                	push   $0x1
   18120:	e8 d8 10 00 00       	call   191fd <write>
   18125:	83 c4 10             	add    $0x10,%esp
   18128:	8b 45 f4             	mov    -0xc(%ebp),%eax
   1812b:	69 c0 e8 03 00 00    	imul   $0x3e8,%eax,%eax
   18131:	50                   	push   %eax
   18132:	ff 75 f4             	pushl  -0xc(%ebp)
   18135:	68 f0 a3 01 00       	push   $0x1a3f0
   1813a:	8d 85 6f ff ff ff    	lea    -0x91(%ebp),%eax
   18140:	50                   	push   %eax
   18141:	e8 e5 0b 00 00       	call   18d2b <sprint>
   18146:	83 c4 10             	add    $0x10,%esp
   18149:	83 ec 0c             	sub    $0xc,%esp
   1814c:	8d 85 6f ff ff ff    	lea    -0x91(%ebp),%eax
   18152:	50                   	push   %eax
   18153:	e8 42 09 00 00       	call   18a9a <cwrites>
   18158:	83 c4 10             	add    $0x10,%esp
   1815b:	8b 45 f4             	mov    -0xc(%ebp),%eax
   1815e:	69 c0 e8 03 00 00    	imul   $0x3e8,%eax,%eax
   18164:	83 ec 0c             	sub    $0xc,%esp
   18167:	50                   	push   %eax
   18168:	e8 98 10 00 00       	call   19205 <sleep>
   1816d:	83 c4 10             	add    $0x10,%esp
   18170:	83 ec 04             	sub    $0x4,%esp
   18173:	6a 01                	push   $0x1
   18175:	8d 45 ef             	lea    -0x11(%ebp),%eax
   18178:	50                   	push   %eax
   18179:	6a 01                	push   $0x1
   1817b:	e8 7d 10 00 00       	call   191fd <write>
   18180:	83 c4 10             	add    $0x10,%esp
   18183:	eb d6                	jmp    1815b <userS+0xd9>

00018185 <main6>:
   18185:	55                   	push   %ebp
   18186:	89 e5                	mov    %esp,%ebp
   18188:	81 ec c8 01 00 00    	sub    $0x1c8,%esp
   1818e:	c7 45 e0 03 00 00 00 	movl   $0x3,-0x20(%ebp)
   18195:	c6 45 c7 36          	movb   $0x36,-0x39(%ebp)
   18199:	c7 45 d8 08 00 00 00 	movl   $0x8,-0x28(%ebp)
   181a0:	c6 45 df 01          	movb   $0x1,-0x21(%ebp)
   181a4:	c7 45 e8 00 00 00 00 	movl   $0x0,-0x18(%ebp)
   181ab:	c7 85 cc fe ff ff 00 	movl   $0x0,-0x134(%ebp)
   181b2:	00 00 00 
   181b5:	c7 85 d0 fe ff ff 00 	movl   $0x0,-0x130(%ebp)
   181bc:	00 00 00 
   181bf:	c7 85 d4 fe ff ff 00 	movl   $0x0,-0x12c(%ebp)
   181c6:	00 00 00 
   181c9:	c7 85 d8 fe ff ff 00 	movl   $0x0,-0x128(%ebp)
   181d0:	00 00 00 
   181d3:	c7 85 dc fe ff ff 00 	movl   $0x0,-0x124(%ebp)
   181da:	00 00 00 
   181dd:	83 ec 0c             	sub    $0xc,%esp
   181e0:	8d 85 cc fe ff ff    	lea    -0x134(%ebp),%eax
   181e6:	50                   	push   %eax
   181e7:	6a 05                	push   $0x5
   181e9:	6a 0d                	push   $0xd
   181eb:	ff 75 0c             	pushl  0xc(%ebp)
   181ee:	6a 04                	push   $0x4
   181f0:	e8 4d 0f 00 00       	call   19142 <parseArgString>
   181f5:	83 c4 20             	add    $0x20,%esp
   181f8:	89 45 d4             	mov    %eax,-0x2c(%ebp)
   181fb:	83 7d d4 04          	cmpl   $0x4,-0x2c(%ebp)
   181ff:	74 33                	je     18234 <main6+0xaf>
   18201:	83 ec 0c             	sub    $0xc,%esp
   18204:	6a 04                	push   $0x4
   18206:	ff 75 d4             	pushl  -0x2c(%ebp)
   18209:	68 07 a4 01 00       	push   $0x1a407
   1820e:	68 2e a2 01 00       	push   $0x1a22e
   18213:	8d 85 44 fe ff ff    	lea    -0x1bc(%ebp),%eax
   18219:	50                   	push   %eax
   1821a:	e8 0c 0b 00 00       	call   18d2b <sprint>
   1821f:	83 c4 20             	add    $0x20,%esp
   18222:	83 ec 0c             	sub    $0xc,%esp
   18225:	8d 85 44 fe ff ff    	lea    -0x1bc(%ebp),%eax
   1822b:	50                   	push   %eax
   1822c:	e8 69 08 00 00       	call   18a9a <cwrites>
   18231:	83 c4 10             	add    $0x10,%esp
   18234:	83 7d d4 04          	cmpl   $0x4,-0x2c(%ebp)
   18238:	75 34                	jne    1826e <main6+0xe9>
   1823a:	8b 85 d0 fe ff ff    	mov    -0x130(%ebp),%eax
   18240:	0f b6 00             	movzbl (%eax),%eax
   18243:	88 45 c7             	mov    %al,-0x39(%ebp)
   18246:	8b 85 d4 fe ff ff    	mov    -0x12c(%ebp),%eax
   1824c:	0f b6 00             	movzbl (%eax),%eax
   1824f:	3c 77                	cmp    $0x77,%al
   18251:	0f 94 c0             	sete   %al
   18254:	88 45 df             	mov    %al,-0x21(%ebp)
   18257:	8b 85 d8 fe ff ff    	mov    -0x128(%ebp),%eax
   1825d:	83 ec 08             	sub    $0x8,%esp
   18260:	6a 0a                	push   $0xa
   18262:	50                   	push   %eax
   18263:	e8 e3 08 00 00       	call   18b4b <str2int>
   18268:	83 c4 10             	add    $0x10,%esp
   1826b:	89 45 e0             	mov    %eax,-0x20(%ebp)
   1826e:	c7 85 c8 fe ff ff 2a 	movl   $0x2a3f2a,-0x138(%ebp)
   18275:	3f 2a 00 
   18278:	0f b6 45 c7          	movzbl -0x39(%ebp),%eax
   1827c:	88 85 c9 fe ff ff    	mov    %al,-0x137(%ebp)
   18282:	83 ec 04             	sub    $0x4,%esp
   18285:	6a 01                	push   $0x1
   18287:	8d 45 c7             	lea    -0x39(%ebp),%eax
   1828a:	50                   	push   %eax
   1828b:	6a 01                	push   $0x1
   1828d:	e8 6b 0f 00 00       	call   191fd <write>
   18292:	83 c4 10             	add    $0x10,%esp
   18295:	c7 45 d0 0f a3 01 00 	movl   $0x1a30f,-0x30(%ebp)
   1829c:	83 ec 0c             	sub    $0xc,%esp
   1829f:	ff 75 d0             	pushl  -0x30(%ebp)
   182a2:	e8 16 09 00 00       	call   18bbd <strlen>
   182a7:	83 c4 10             	add    $0x10,%esp
   182aa:	83 c0 01             	add    $0x1,%eax
   182ad:	89 45 cc             	mov    %eax,-0x34(%ebp)
   182b0:	c7 45 e4 00 00 00 00 	movl   $0x0,-0x1c(%ebp)
   182b7:	eb 4b                	jmp    18304 <main6+0x17f>
   182b9:	8b 45 cc             	mov    -0x34(%ebp),%eax
   182bc:	ff 75 d0             	pushl  -0x30(%ebp)
   182bf:	50                   	push   %eax
   182c0:	6a 01                	push   $0x1
   182c2:	68 08 75 01 00       	push   $0x17508
   182c7:	e8 21 0f 00 00       	call   191ed <spawn>
   182cc:	83 c4 10             	add    $0x10,%esp
   182cf:	89 45 c8             	mov    %eax,-0x38(%ebp)
   182d2:	83 7d c8 00          	cmpl   $0x0,-0x38(%ebp)
   182d6:	79 14                	jns    182ec <main6+0x167>
   182d8:	83 ec 0c             	sub    $0xc,%esp
   182db:	8d 85 c8 fe ff ff    	lea    -0x138(%ebp),%eax
   182e1:	50                   	push   %eax
   182e2:	e8 1c 08 00 00       	call   18b03 <swrites>
   182e7:	83 c4 10             	add    $0x10,%esp
   182ea:	eb 14                	jmp    18300 <main6+0x17b>
   182ec:	8b 45 e8             	mov    -0x18(%ebp),%eax
   182ef:	8d 50 01             	lea    0x1(%eax),%edx
   182f2:	89 55 e8             	mov    %edx,-0x18(%ebp)
   182f5:	8b 55 c8             	mov    -0x38(%ebp),%edx
   182f8:	66 89 94 45 e2 fe ff 	mov    %dx,-0x11e(%ebp,%eax,2)
   182ff:	ff 
   18300:	83 45 e4 01          	addl   $0x1,-0x1c(%ebp)
   18304:	8b 45 e4             	mov    -0x1c(%ebp),%eax
   18307:	3b 45 e0             	cmp    -0x20(%ebp),%eax
   1830a:	7c ad                	jl     182b9 <main6+0x134>
   1830c:	8b 45 d8             	mov    -0x28(%ebp),%eax
   1830f:	69 c0 e8 03 00 00    	imul   $0x3e8,%eax,%eax
   18315:	83 ec 0c             	sub    $0xc,%esp
   18318:	50                   	push   %eax
   18319:	e8 e7 0e 00 00       	call   19205 <sleep>
   1831e:	83 c4 10             	add    $0x10,%esp
   18321:	c7 45 f4 00 00 00 00 	movl   $0x0,-0xc(%ebp)
   18328:	80 7d df 00          	cmpb   $0x0,-0x21(%ebp)
   1832c:	74 27                	je     18355 <main6+0x1d0>
   1832e:	8b 45 f4             	mov    -0xc(%ebp),%eax
   18331:	0f b7 84 45 e2 fe ff 	movzwl -0x11e(%ebp,%eax,2),%eax
   18338:	ff 
   18339:	0f b7 c0             	movzwl %ax,%eax
   1833c:	83 ec 08             	sub    $0x8,%esp
   1833f:	8d 95 c4 fe ff ff    	lea    -0x13c(%ebp),%edx
   18345:	52                   	push   %edx
   18346:	50                   	push   %eax
   18347:	e8 c9 0e 00 00       	call   19215 <waitpid>
   1834c:	83 c4 10             	add    $0x10,%esp
   1834f:	66 89 45 f2          	mov    %ax,-0xe(%ebp)
   18353:	eb 1e                	jmp    18373 <main6+0x1ee>
   18355:	8b 45 f4             	mov    -0xc(%ebp),%eax
   18358:	0f b7 84 45 e2 fe ff 	movzwl -0x11e(%ebp,%eax,2),%eax
   1835f:	ff 
   18360:	0f b7 c0             	movzwl %ax,%eax
   18363:	83 ec 0c             	sub    $0xc,%esp
   18366:	50                   	push   %eax
   18367:	e8 a1 0e 00 00       	call   1920d <kill>
   1836c:	83 c4 10             	add    $0x10,%esp
   1836f:	66 89 45 f2          	mov    %ax,-0xe(%ebp)
   18373:	c7 45 ec 00 00 00 00 	movl   $0x0,-0x14(%ebp)
   1837a:	eb 15                	jmp    18391 <main6+0x20c>
   1837c:	8b 45 ec             	mov    -0x14(%ebp),%eax
   1837f:	0f b7 84 45 e2 fe ff 	movzwl -0x11e(%ebp,%eax,2),%eax
   18386:	ff 
   18387:	66 39 45 f2          	cmp    %ax,-0xe(%ebp)
   1838b:	74 0e                	je     1839b <main6+0x216>
   1838d:	83 45 ec 01          	addl   $0x1,-0x14(%ebp)
   18391:	8b 45 ec             	mov    -0x14(%ebp),%eax
   18394:	3b 45 e8             	cmp    -0x18(%ebp),%eax
   18397:	7c e3                	jl     1837c <main6+0x1f7>
   18399:	eb 01                	jmp    1839c <main6+0x217>
   1839b:	90                   	nop
   1839c:	8b 45 ec             	mov    -0x14(%ebp),%eax
   1839f:	3b 45 e8             	cmp    -0x18(%ebp),%eax
   183a2:	7d 6b                	jge    1840f <main6+0x28a>
   183a4:	8b 45 ec             	mov    -0x14(%ebp),%eax
   183a7:	3b 45 f4             	cmp    -0xc(%ebp),%eax
   183aa:	74 33                	je     183df <main6+0x25a>
   183ac:	8b 8d c4 fe ff ff    	mov    -0x13c(%ebp),%ecx
   183b2:	0f b7 55 f2          	movzwl -0xe(%ebp),%edx
   183b6:	0f b6 45 c7          	movzbl -0x39(%ebp),%eax
   183ba:	0f be c0             	movsbl %al,%eax
   183bd:	83 ec 04             	sub    $0x4,%esp
   183c0:	51                   	push   %ecx
   183c1:	52                   	push   %edx
   183c2:	ff 75 f4             	pushl  -0xc(%ebp)
   183c5:	ff 75 ec             	pushl  -0x14(%ebp)
   183c8:	50                   	push   %eax
   183c9:	68 10 a4 01 00       	push   $0x1a410
   183ce:	8d 85 47 ff ff ff    	lea    -0xb9(%ebp),%eax
   183d4:	50                   	push   %eax
   183d5:	e8 51 09 00 00       	call   18d2b <sprint>
   183da:	83 c4 20             	add    $0x20,%esp
   183dd:	eb 51                	jmp    18430 <main6+0x2ab>
   183df:	8b 8d c4 fe ff ff    	mov    -0x13c(%ebp),%ecx
   183e5:	0f b7 55 f2          	movzwl -0xe(%ebp),%edx
   183e9:	0f b6 45 c7          	movzbl -0x39(%ebp),%eax
   183ed:	0f be c0             	movsbl %al,%eax
   183f0:	83 ec 08             	sub    $0x8,%esp
   183f3:	51                   	push   %ecx
   183f4:	52                   	push   %edx
   183f5:	ff 75 ec             	pushl  -0x14(%ebp)
   183f8:	50                   	push   %eax
   183f9:	68 34 a4 01 00       	push   $0x1a434
   183fe:	8d 85 47 ff ff ff    	lea    -0xb9(%ebp),%eax
   18404:	50                   	push   %eax
   18405:	e8 21 09 00 00       	call   18d2b <sprint>
   1840a:	83 c4 20             	add    $0x20,%esp
   1840d:	eb 21                	jmp    18430 <main6+0x2ab>
   1840f:	0f b7 55 f2          	movzwl -0xe(%ebp),%edx
   18413:	0f b6 45 c7          	movzbl -0x39(%ebp),%eax
   18417:	0f be c0             	movsbl %al,%eax
   1841a:	52                   	push   %edx
   1841b:	50                   	push   %eax
   1841c:	68 54 a4 01 00       	push   $0x1a454
   18421:	8d 85 47 ff ff ff    	lea    -0xb9(%ebp),%eax
   18427:	50                   	push   %eax
   18428:	e8 fe 08 00 00       	call   18d2b <sprint>
   1842d:	83 c4 10             	add    $0x10,%esp
   18430:	83 ec 0c             	sub    $0xc,%esp
   18433:	8d 85 47 ff ff ff    	lea    -0xb9(%ebp),%eax
   18439:	50                   	push   %eax
   1843a:	e8 5b 06 00 00       	call   18a9a <cwrites>
   1843f:	83 c4 10             	add    $0x10,%esp
   18442:	83 45 f4 01          	addl   $0x1,-0xc(%ebp)
   18446:	8b 45 f4             	mov    -0xc(%ebp),%eax
   18449:	3b 45 e8             	cmp    -0x18(%ebp),%eax
   1844c:	0f 8c d6 fe ff ff    	jl     18328 <main6+0x1a3>
   18452:	83 ec 0c             	sub    $0xc,%esp
   18455:	6a 00                	push   $0x0
   18457:	e8 89 0d 00 00       	call   191e5 <exit>
   1845c:	83 c4 10             	add    $0x10,%esp
   1845f:	b8 2a 00 00 00       	mov    $0x2a,%eax
   18464:	c9                   	leave  
   18465:	c3                   	ret    

00018466 <init>:
   18466:	55                   	push   %ebp
   18467:	89 e5                	mov    %esp,%ebp
   18469:	53                   	push   %ebx
   1846a:	81 ec 34 01 00 00    	sub    $0x134,%esp
   18470:	a1 a0 f4 01 00       	mov    0x1f4a0,%eax
   18475:	85 c0                	test   %eax,%eax
   18477:	7e 12                	jle    1848b <init+0x25>
   18479:	83 ec 0c             	sub    $0xc,%esp
   1847c:	68 61 a5 01 00       	push   $0x1a561
   18481:	e8 14 06 00 00       	call   18a9a <cwrites>
   18486:	83 c4 10             	add    $0x10,%esp
   18489:	eb fe                	jmp    18489 <init+0x23>
   1848b:	83 ec 0c             	sub    $0xc,%esp
   1848e:	68 7c a5 01 00       	push   $0x1a57c
   18493:	e8 02 06 00 00       	call   18a9a <cwrites>
   18498:	83 c4 10             	add    $0x10,%esp
   1849b:	a1 a0 f4 01 00       	mov    0x1f4a0,%eax
   184a0:	83 c0 01             	add    $0x1,%eax
   184a3:	a3 a0 f4 01 00       	mov    %eax,0x1f4a0
   184a8:	c7 85 4c ff ff ff 00 	movl   $0x0,-0xb4(%ebp)
   184af:	00 00 00 
   184b2:	c7 85 50 ff ff ff 00 	movl   $0x0,-0xb0(%ebp)
   184b9:	00 00 00 
   184bc:	c7 85 54 ff ff ff 00 	movl   $0x0,-0xac(%ebp)
   184c3:	00 00 00 
   184c6:	c7 85 58 ff ff ff 00 	movl   $0x0,-0xa8(%ebp)
   184cd:	00 00 00 
   184d0:	c7 85 5c ff ff ff 00 	movl   $0x0,-0xa4(%ebp)
   184d7:	00 00 00 
   184da:	83 ec 0c             	sub    $0xc,%esp
   184dd:	8d 85 4c ff ff ff    	lea    -0xb4(%ebp),%eax
   184e3:	50                   	push   %eax
   184e4:	6a 05                	push   $0x5
   184e6:	6a 0d                	push   $0xd
   184e8:	ff 75 0c             	pushl  0xc(%ebp)
   184eb:	6a 02                	push   $0x2
   184ed:	e8 50 0c 00 00       	call   19142 <parseArgString>
   184f2:	83 c4 20             	add    $0x20,%esp
   184f5:	89 45 e8             	mov    %eax,-0x18(%ebp)
   184f8:	83 7d e8 02          	cmpl   $0x2,-0x18(%ebp)
   184fc:	74 33                	je     18531 <init+0xcb>
   184fe:	83 ec 0c             	sub    $0xc,%esp
   18501:	6a 02                	push   $0x2
   18503:	ff 75 e8             	pushl  -0x18(%ebp)
   18506:	68 8a a5 01 00       	push   $0x1a58a
   1850b:	68 2e a2 01 00       	push   $0x1a22e
   18510:	8d 85 c8 fe ff ff    	lea    -0x138(%ebp),%eax
   18516:	50                   	push   %eax
   18517:	e8 0f 08 00 00       	call   18d2b <sprint>
   1851c:	83 c4 20             	add    $0x20,%esp
   1851f:	83 ec 0c             	sub    $0xc,%esp
   18522:	8d 85 c8 fe ff ff    	lea    -0x138(%ebp),%eax
   18528:	50                   	push   %eax
   18529:	e8 6c 05 00 00       	call   18a9a <cwrites>
   1852e:	83 c4 10             	add    $0x10,%esp
   18531:	8b 85 50 ff ff ff    	mov    -0xb0(%ebp),%eax
   18537:	85 c0                	test   %eax,%eax
   18539:	75 06                	jne    18541 <init+0xdb>
   1853b:	c6 45 f7 2b          	movb   $0x2b,-0x9(%ebp)
   1853f:	eb 0c                	jmp    1854d <init+0xe7>
   18541:	8b 85 50 ff ff ff    	mov    -0xb0(%ebp),%eax
   18547:	0f b6 00             	movzbl (%eax),%eax
   1854a:	88 45 f7             	mov    %al,-0x9(%ebp)
   1854d:	83 ec 0c             	sub    $0xc,%esp
   18550:	6a 1a                	push   $0x1a
   18552:	e8 8b 05 00 00       	call   18ae2 <swritech>
   18557:	83 c4 10             	add    $0x10,%esp
   1855a:	c7 45 f0 00 00 00 00 	movl   $0x0,-0x10(%ebp)
   18561:	eb 04                	jmp    18567 <init+0x101>
   18563:	83 45 f0 01          	addl   $0x1,-0x10(%ebp)
   18567:	81 7d f0 9f 25 26 00 	cmpl   $0x26259f,-0x10(%ebp)
   1856e:	7e f3                	jle    18563 <init+0xfd>
   18570:	83 ec 0c             	sub    $0xc,%esp
   18573:	68 90 a5 01 00       	push   $0x1a590
   18578:	e8 86 05 00 00       	call   18b03 <swrites>
   1857d:	83 c4 10             	add    $0x10,%esp
   18580:	83 ec 0c             	sub    $0xc,%esp
   18583:	68 b8 a5 01 00       	push   $0x1a5b8
   18588:	e8 0d 05 00 00       	call   18a9a <cwrites>
   1858d:	83 c4 10             	add    $0x10,%esp
   18590:	c7 45 e4 00 00 00 00 	movl   $0x0,-0x1c(%ebp)
   18597:	c7 45 ec 80 d5 01 00 	movl   $0x1d580,-0x14(%ebp)
   1859e:	eb 74                	jmp    18614 <init+0x1ae>
   185a0:	8b 45 ec             	mov    -0x14(%ebp),%eax
   185a3:	8b 58 0c             	mov    0xc(%eax),%ebx
   185a6:	8b 45 ec             	mov    -0x14(%ebp),%eax
   185a9:	8b 48 08             	mov    0x8(%eax),%ecx
   185ac:	8b 45 ec             	mov    -0x14(%ebp),%eax
   185af:	8b 40 04             	mov    0x4(%eax),%eax
   185b2:	0f b6 d0             	movzbl %al,%edx
   185b5:	8b 45 ec             	mov    -0x14(%ebp),%eax
   185b8:	8b 00                	mov    (%eax),%eax
   185ba:	53                   	push   %ebx
   185bb:	51                   	push   %ecx
   185bc:	52                   	push   %edx
   185bd:	50                   	push   %eax
   185be:	e8 2a 0c 00 00       	call   191ed <spawn>
   185c3:	83 c4 10             	add    $0x10,%esp
   185c6:	89 45 e4             	mov    %eax,-0x1c(%ebp)
   185c9:	83 7d e4 00          	cmpl   $0x0,-0x1c(%ebp)
   185cd:	7f 31                	jg     18600 <init+0x19a>
   185cf:	8b 45 ec             	mov    -0x14(%ebp),%eax
   185d2:	8b 00                	mov    (%eax),%eax
   185d4:	ff 75 e4             	pushl  -0x1c(%ebp)
   185d7:	50                   	push   %eax
   185d8:	68 d8 a5 01 00       	push   $0x1a5d8
   185dd:	8d 85 60 ff ff ff    	lea    -0xa0(%ebp),%eax
   185e3:	50                   	push   %eax
   185e4:	e8 42 07 00 00       	call   18d2b <sprint>
   185e9:	83 c4 10             	add    $0x10,%esp
   185ec:	83 ec 0c             	sub    $0xc,%esp
   185ef:	8d 85 60 ff ff ff    	lea    -0xa0(%ebp),%eax
   185f5:	50                   	push   %eax
   185f6:	e8 9f 04 00 00       	call   18a9a <cwrites>
   185fb:	83 c4 10             	add    $0x10,%esp
   185fe:	eb 10                	jmp    18610 <init+0x1aa>
   18600:	0f be 45 f7          	movsbl -0x9(%ebp),%eax
   18604:	83 ec 0c             	sub    $0xc,%esp
   18607:	50                   	push   %eax
   18608:	e8 d5 04 00 00       	call   18ae2 <swritech>
   1860d:	83 c4 10             	add    $0x10,%esp
   18610:	83 45 ec 10          	addl   $0x10,-0x14(%ebp)
   18614:	8b 45 ec             	mov    -0x14(%ebp),%eax
   18617:	8b 00                	mov    (%eax),%eax
   18619:	85 c0                	test   %eax,%eax
   1861b:	75 83                	jne    185a0 <init+0x13a>
   1861d:	83 ec 0c             	sub    $0xc,%esp
   18620:	68 fc a5 01 00       	push   $0x1a5fc
   18625:	e8 d9 04 00 00       	call   18b03 <swrites>
   1862a:	83 c4 10             	add    $0x10,%esp
   1862d:	83 ec 0c             	sub    $0xc,%esp
   18630:	68 04 a6 01 00       	push   $0x1a604
   18635:	e8 60 04 00 00       	call   18a9a <cwrites>
   1863a:	83 c4 10             	add    $0x10,%esp
   1863d:	83 ec 08             	sub    $0x8,%esp
   18640:	8d 85 48 ff ff ff    	lea    -0xb8(%ebp),%eax
   18646:	50                   	push   %eax
   18647:	6a 00                	push   $0x0
   18649:	e8 c7 0b 00 00       	call   19215 <waitpid>
   1864e:	83 c4 10             	add    $0x10,%esp
   18651:	89 45 e0             	mov    %eax,-0x20(%ebp)
   18654:	83 7d e0 00          	cmpl   $0x0,-0x20(%ebp)
   18658:	7e e3                	jle    1863d <init+0x1d7>
   1865a:	8b 85 48 ff ff ff    	mov    -0xb8(%ebp),%eax
   18660:	50                   	push   %eax
   18661:	ff 75 e0             	pushl  -0x20(%ebp)
   18664:	68 28 a6 01 00       	push   $0x1a628
   18669:	8d 85 60 ff ff ff    	lea    -0xa0(%ebp),%eax
   1866f:	50                   	push   %eax
   18670:	e8 b6 06 00 00       	call   18d2b <sprint>
   18675:	83 c4 10             	add    $0x10,%esp
   18678:	83 ec 0c             	sub    $0xc,%esp
   1867b:	8d 85 60 ff ff ff    	lea    -0xa0(%ebp),%eax
   18681:	50                   	push   %eax
   18682:	e8 13 04 00 00       	call   18a9a <cwrites>
   18687:	83 c4 10             	add    $0x10,%esp
   1868a:	eb b1                	jmp    1863d <init+0x1d7>

0001868c <idle>:
   1868c:	55                   	push   %ebp
   1868d:	89 e5                	mov    %esp,%ebp
   1868f:	81 ec 98 02 00 00    	sub    $0x298,%esp
   18695:	c6 45 bf 2e          	movb   $0x2e,-0x41(%ebp)
   18699:	c6 45 c7 00          	movb   $0x0,-0x39(%ebp)
   1869d:	83 ec 0c             	sub    $0xc,%esp
   186a0:	68 3b a6 01 00       	push   $0x1a63b
   186a5:	e8 f0 03 00 00       	call   18a9a <cwrites>
   186aa:	83 c4 10             	add    $0x10,%esp
   186ad:	83 ec 04             	sub    $0x4,%esp
   186b0:	6a 01                	push   $0x1
   186b2:	8d 45 bf             	lea    -0x41(%ebp),%eax
   186b5:	50                   	push   %eax
   186b6:	6a 01                	push   $0x1
   186b8:	e8 40 0b 00 00       	call   191fd <write>
   186bd:	83 c4 10             	add    $0x10,%esp
   186c0:	e8 68 da ff ff       	call   1612d <file_system_init>
   186c5:	89 45 c0             	mov    %eax,-0x40(%ebp)
   186c8:	83 ec 04             	sub    $0x4,%esp
   186cb:	ff 75 c0             	pushl  -0x40(%ebp)
   186ce:	68 49 a6 01 00       	push   $0x1a649
   186d3:	8d 85 6f ff ff ff    	lea    -0x91(%ebp),%eax
   186d9:	50                   	push   %eax
   186da:	e8 4c 06 00 00       	call   18d2b <sprint>
   186df:	83 c4 10             	add    $0x10,%esp
   186e2:	83 ec 0c             	sub    $0xc,%esp
   186e5:	8d 85 6f ff ff ff    	lea    -0x91(%ebp),%eax
   186eb:	50                   	push   %eax
   186ec:	e8 a9 03 00 00       	call   18a9a <cwrites>
   186f1:	83 c4 10             	add    $0x10,%esp
   186f4:	8b 45 c0             	mov    -0x40(%ebp),%eax
   186f7:	8b 40 18             	mov    0x18(%eax),%eax
   186fa:	6a 00                	push   $0x0
   186fc:	6a 00                	push   $0x0
   186fe:	50                   	push   %eax
   186ff:	ff 75 c0             	pushl  -0x40(%ebp)
   18702:	e8 98 db ff ff       	call   1629f <create_inode>
   18707:	83 c4 10             	add    $0x10,%esp
   1870a:	8b 45 c0             	mov    -0x40(%ebp),%eax
   1870d:	8b 40 18             	mov    0x18(%eax),%eax
   18710:	0f b6 00             	movzbl (%eax),%eax
   18713:	0f b6 c0             	movzbl %al,%eax
   18716:	83 ec 04             	sub    $0x4,%esp
   18719:	50                   	push   %eax
   1871a:	68 4f a6 01 00       	push   $0x1a64f
   1871f:	8d 85 6f ff ff ff    	lea    -0x91(%ebp),%eax
   18725:	50                   	push   %eax
   18726:	e8 00 06 00 00       	call   18d2b <sprint>
   1872b:	83 c4 10             	add    $0x10,%esp
   1872e:	83 ec 0c             	sub    $0xc,%esp
   18731:	8d 85 6f ff ff ff    	lea    -0x91(%ebp),%eax
   18737:	50                   	push   %eax
   18738:	e8 5d 03 00 00       	call   18a9a <cwrites>
   1873d:	83 c4 10             	add    $0x10,%esp
   18740:	83 ec 08             	sub    $0x8,%esp
   18743:	68 63 a6 01 00       	push   $0x1a663
   18748:	8d 85 6f ff ff ff    	lea    -0x91(%ebp),%eax
   1874e:	50                   	push   %eax
   1874f:	e8 d7 05 00 00       	call   18d2b <sprint>
   18754:	83 c4 10             	add    $0x10,%esp
   18757:	83 ec 0c             	sub    $0xc,%esp
   1875a:	8d 85 6f ff ff ff    	lea    -0x91(%ebp),%eax
   18760:	50                   	push   %eax
   18761:	e8 34 03 00 00       	call   18a9a <cwrites>
   18766:	83 c4 10             	add    $0x10,%esp
   18769:	c7 45 f4 00 00 00 00 	movl   $0x0,-0xc(%ebp)
   18770:	eb 04                	jmp    18776 <idle+0xea>
   18772:	83 45 f4 01          	addl   $0x1,-0xc(%ebp)
   18776:	81 7d f4 ff 93 35 77 	cmpl   $0x773593ff,-0xc(%ebp)
   1877d:	7e f3                	jle    18772 <idle+0xe6>
   1877f:	8b 45 c0             	mov    -0x40(%ebp),%eax
   18782:	8b 40 18             	mov    0x18(%eax),%eax
   18785:	83 ec 08             	sub    $0x8,%esp
   18788:	50                   	push   %eax
   18789:	ff 75 c0             	pushl  -0x40(%ebp)
   1878c:	e8 11 e1 ff ff       	call   168a2 <print_directory>
   18791:	83 c4 10             	add    $0x10,%esp
   18794:	c7 45 f0 00 00 00 00 	movl   $0x0,-0x10(%ebp)
   1879b:	eb 04                	jmp    187a1 <idle+0x115>
   1879d:	83 45 f0 01          	addl   $0x1,-0x10(%ebp)
   187a1:	81 7d f0 ff 93 35 77 	cmpl   $0x773593ff,-0x10(%ebp)
   187a8:	7e f3                	jle    1879d <idle+0x111>
   187aa:	c7 45 ec 00 00 00 00 	movl   $0x0,-0x14(%ebp)
   187b1:	eb 12                	jmp    187c5 <idle+0x139>
   187b3:	8d 95 6f fd ff ff    	lea    -0x291(%ebp),%edx
   187b9:	8b 45 ec             	mov    -0x14(%ebp),%eax
   187bc:	01 d0                	add    %edx,%eax
   187be:	c6 00 61             	movb   $0x61,(%eax)
   187c1:	83 45 ec 01          	addl   $0x1,-0x14(%ebp)
   187c5:	81 7d ec fe 01 00 00 	cmpl   $0x1fe,-0x14(%ebp)
   187cc:	7e e5                	jle    187b3 <idle+0x127>
   187ce:	c6 85 6e ff ff ff 00 	movb   $0x0,-0x92(%ebp)
   187d5:	c6 45 c7 01          	movb   $0x1,-0x39(%ebp)
   187d9:	0f b6 55 c7          	movzbl -0x39(%ebp),%edx
   187dd:	8b 45 c0             	mov    -0x40(%ebp),%eax
   187e0:	8b 40 18             	mov    0x18(%eax),%eax
   187e3:	83 ec 08             	sub    $0x8,%esp
   187e6:	52                   	push   %edx
   187e7:	8d 95 6f fd ff ff    	lea    -0x291(%ebp),%edx
   187ed:	52                   	push   %edx
   187ee:	68 73 a6 01 00       	push   $0x1a673
   187f3:	6a 01                	push   $0x1
   187f5:	50                   	push   %eax
   187f6:	ff 75 c0             	pushl  -0x40(%ebp)
   187f9:	e8 8e dd ff ff       	call   1658c <create_data_block>
   187fe:	83 c4 20             	add    $0x20,%esp
   18801:	83 ec 08             	sub    $0x8,%esp
   18804:	68 7e a6 01 00       	push   $0x1a67e
   18809:	8d 85 6f ff ff ff    	lea    -0x91(%ebp),%eax
   1880f:	50                   	push   %eax
   18810:	e8 16 05 00 00       	call   18d2b <sprint>
   18815:	83 c4 10             	add    $0x10,%esp
   18818:	83 ec 0c             	sub    $0xc,%esp
   1881b:	8d 85 6f ff ff ff    	lea    -0x91(%ebp),%eax
   18821:	50                   	push   %eax
   18822:	e8 73 02 00 00       	call   18a9a <cwrites>
   18827:	83 c4 10             	add    $0x10,%esp
   1882a:	c7 45 e8 00 00 00 00 	movl   $0x0,-0x18(%ebp)
   18831:	eb 04                	jmp    18837 <idle+0x1ab>
   18833:	83 45 e8 01          	addl   $0x1,-0x18(%ebp)
   18837:	81 7d e8 ff 93 35 77 	cmpl   $0x773593ff,-0x18(%ebp)
   1883e:	7e f3                	jle    18833 <idle+0x1a7>
   18840:	0f b6 55 c7          	movzbl -0x39(%ebp),%edx
   18844:	8b 45 c0             	mov    -0x40(%ebp),%eax
   18847:	8b 40 18             	mov    0x18(%eax),%eax
   1884a:	83 ec 04             	sub    $0x4,%esp
   1884d:	52                   	push   %edx
   1884e:	50                   	push   %eax
   1884f:	ff 75 c0             	pushl  -0x40(%ebp)
   18852:	e8 6a de ff ff       	call   166c1 <inode_read>
   18857:	83 c4 10             	add    $0x10,%esp
   1885a:	c7 45 e4 00 00 00 00 	movl   $0x0,-0x1c(%ebp)
   18861:	eb 04                	jmp    18867 <idle+0x1db>
   18863:	83 45 e4 01          	addl   $0x1,-0x1c(%ebp)
   18867:	81 7d e4 ff 93 35 77 	cmpl   $0x773593ff,-0x1c(%ebp)
   1886e:	7e f3                	jle    18863 <idle+0x1d7>
   18870:	0f b6 55 c7          	movzbl -0x39(%ebp),%edx
   18874:	8b 45 c0             	mov    -0x40(%ebp),%eax
   18877:	8b 40 18             	mov    0x18(%eax),%eax
   1887a:	83 ec 04             	sub    $0x4,%esp
   1887d:	52                   	push   %edx
   1887e:	50                   	push   %eax
   1887f:	ff 75 c0             	pushl  -0x40(%ebp)
   18882:	e8 1a df ff ff       	call   167a1 <inode_delete_data>
   18887:	83 c4 10             	add    $0x10,%esp
   1888a:	83 ec 08             	sub    $0x8,%esp
   1888d:	68 93 a6 01 00       	push   $0x1a693
   18892:	8d 85 6f ff ff ff    	lea    -0x91(%ebp),%eax
   18898:	50                   	push   %eax
   18899:	e8 8d 04 00 00       	call   18d2b <sprint>
   1889e:	83 c4 10             	add    $0x10,%esp
   188a1:	83 ec 0c             	sub    $0xc,%esp
   188a4:	8d 85 6f ff ff ff    	lea    -0x91(%ebp),%eax
   188aa:	50                   	push   %eax
   188ab:	e8 ea 01 00 00       	call   18a9a <cwrites>
   188b0:	83 c4 10             	add    $0x10,%esp
   188b3:	c7 45 e0 00 00 00 00 	movl   $0x0,-0x20(%ebp)
   188ba:	eb 04                	jmp    188c0 <idle+0x234>
   188bc:	83 45 e0 01          	addl   $0x1,-0x20(%ebp)
   188c0:	81 7d e0 ff 93 35 77 	cmpl   $0x773593ff,-0x20(%ebp)
   188c7:	7e f3                	jle    188bc <idle+0x230>
   188c9:	0f b6 55 c7          	movzbl -0x39(%ebp),%edx
   188cd:	8b 45 c0             	mov    -0x40(%ebp),%eax
   188d0:	8b 40 18             	mov    0x18(%eax),%eax
   188d3:	83 ec 04             	sub    $0x4,%esp
   188d6:	52                   	push   %edx
   188d7:	50                   	push   %eax
   188d8:	ff 75 c0             	pushl  -0x40(%ebp)
   188db:	e8 e1 dd ff ff       	call   166c1 <inode_read>
   188e0:	83 c4 10             	add    $0x10,%esp
   188e3:	c7 45 dc 00 00 00 00 	movl   $0x0,-0x24(%ebp)
   188ea:	eb 04                	jmp    188f0 <idle+0x264>
   188ec:	83 45 dc 01          	addl   $0x1,-0x24(%ebp)
   188f0:	81 7d dc ff 93 35 77 	cmpl   $0x773593ff,-0x24(%ebp)
   188f7:	7e f3                	jle    188ec <idle+0x260>
   188f9:	c6 45 c7 00          	movb   $0x0,-0x39(%ebp)
   188fd:	0f b6 55 c7          	movzbl -0x39(%ebp),%edx
   18901:	8b 45 c0             	mov    -0x40(%ebp),%eax
   18904:	8b 40 18             	mov    0x18(%eax),%eax
   18907:	0f b6 4d c7          	movzbl -0x39(%ebp),%ecx
   1890b:	8b 44 88 04          	mov    0x4(%eax,%ecx,4),%eax
   1890f:	6a 00                	push   $0x0
   18911:	52                   	push   %edx
   18912:	50                   	push   %eax
   18913:	ff 75 c0             	pushl  -0x40(%ebp)
   18916:	e8 84 d9 ff ff       	call   1629f <create_inode>
   1891b:	83 c4 10             	add    $0x10,%esp
   1891e:	83 ec 08             	sub    $0x8,%esp
   18921:	68 63 a6 01 00       	push   $0x1a663
   18926:	8d 85 6f ff ff ff    	lea    -0x91(%ebp),%eax
   1892c:	50                   	push   %eax
   1892d:	e8 f9 03 00 00       	call   18d2b <sprint>
   18932:	83 c4 10             	add    $0x10,%esp
   18935:	83 ec 0c             	sub    $0xc,%esp
   18938:	8d 85 6f ff ff ff    	lea    -0x91(%ebp),%eax
   1893e:	50                   	push   %eax
   1893f:	e8 56 01 00 00       	call   18a9a <cwrites>
   18944:	83 c4 10             	add    $0x10,%esp
   18947:	c7 45 d8 00 00 00 00 	movl   $0x0,-0x28(%ebp)
   1894e:	eb 04                	jmp    18954 <idle+0x2c8>
   18950:	83 45 d8 01          	addl   $0x1,-0x28(%ebp)
   18954:	81 7d d8 ff 93 35 77 	cmpl   $0x773593ff,-0x28(%ebp)
   1895b:	7e f3                	jle    18950 <idle+0x2c4>
   1895d:	8b 45 c0             	mov    -0x40(%ebp),%eax
   18960:	8b 40 18             	mov    0x18(%eax),%eax
   18963:	83 ec 08             	sub    $0x8,%esp
   18966:	50                   	push   %eax
   18967:	ff 75 c0             	pushl  -0x40(%ebp)
   1896a:	e8 ad de ff ff       	call   1681c <move_in_directory>
   1896f:	83 c4 10             	add    $0x10,%esp
   18972:	89 c2                	mov    %eax,%edx
   18974:	8b 45 c0             	mov    -0x40(%ebp),%eax
   18977:	89 50 18             	mov    %edx,0x18(%eax)
   1897a:	8b 45 c0             	mov    -0x40(%ebp),%eax
   1897d:	8b 40 18             	mov    0x18(%eax),%eax
   18980:	83 ec 08             	sub    $0x8,%esp
   18983:	50                   	push   %eax
   18984:	ff 75 c0             	pushl  -0x40(%ebp)
   18987:	e8 16 df ff ff       	call   168a2 <print_directory>
   1898c:	83 c4 10             	add    $0x10,%esp
   1898f:	c7 45 d4 00 00 00 00 	movl   $0x0,-0x2c(%ebp)
   18996:	eb 04                	jmp    1899c <idle+0x310>
   18998:	83 45 d4 01          	addl   $0x1,-0x2c(%ebp)
   1899c:	81 7d d4 ff 93 35 77 	cmpl   $0x773593ff,-0x2c(%ebp)
   189a3:	7e f3                	jle    18998 <idle+0x30c>
   189a5:	c6 45 c7 00          	movb   $0x0,-0x39(%ebp)
   189a9:	0f b6 55 c7          	movzbl -0x39(%ebp),%edx
   189ad:	8b 45 c0             	mov    -0x40(%ebp),%eax
   189b0:	8b 40 18             	mov    0x18(%eax),%eax
   189b3:	0f b6 4d c7          	movzbl -0x39(%ebp),%ecx
   189b7:	8b 44 88 04          	mov    0x4(%eax,%ecx,4),%eax
   189bb:	6a 00                	push   $0x0
   189bd:	52                   	push   %edx
   189be:	50                   	push   %eax
   189bf:	ff 75 c0             	pushl  -0x40(%ebp)
   189c2:	e8 d8 d8 ff ff       	call   1629f <create_inode>
   189c7:	83 c4 10             	add    $0x10,%esp
   189ca:	8b 45 c0             	mov    -0x40(%ebp),%eax
   189cd:	8b 40 18             	mov    0x18(%eax),%eax
   189d0:	83 ec 08             	sub    $0x8,%esp
   189d3:	50                   	push   %eax
   189d4:	ff 75 c0             	pushl  -0x40(%ebp)
   189d7:	e8 c6 de ff ff       	call   168a2 <print_directory>
   189dc:	83 c4 10             	add    $0x10,%esp
   189df:	c7 45 d0 00 00 00 00 	movl   $0x0,-0x30(%ebp)
   189e6:	eb 04                	jmp    189ec <idle+0x360>
   189e8:	83 45 d0 01          	addl   $0x1,-0x30(%ebp)
   189ec:	81 7d d0 ff 93 35 77 	cmpl   $0x773593ff,-0x30(%ebp)
   189f3:	7e f3                	jle    189e8 <idle+0x35c>
   189f5:	8b 45 c0             	mov    -0x40(%ebp),%eax
   189f8:	8b 40 18             	mov    0x18(%eax),%eax
   189fb:	6a 00                	push   $0x0
   189fd:	6a 00                	push   $0x0
   189ff:	50                   	push   %eax
   18a00:	ff 75 c0             	pushl  -0x40(%ebp)
   18a03:	e8 c0 d9 ff ff       	call   163c8 <delete_pointer_in_inode>
   18a08:	83 c4 10             	add    $0x10,%esp
   18a0b:	8b 45 c0             	mov    -0x40(%ebp),%eax
   18a0e:	8b 40 18             	mov    0x18(%eax),%eax
   18a11:	83 ec 08             	sub    $0x8,%esp
   18a14:	50                   	push   %eax
   18a15:	ff 75 c0             	pushl  -0x40(%ebp)
   18a18:	e8 85 de ff ff       	call   168a2 <print_directory>
   18a1d:	83 c4 10             	add    $0x10,%esp
   18a20:	c7 45 cc 00 00 00 00 	movl   $0x0,-0x34(%ebp)
   18a27:	eb 04                	jmp    18a2d <idle+0x3a1>
   18a29:	83 45 cc 01          	addl   $0x1,-0x34(%ebp)
   18a2d:	81 7d cc ff 93 35 77 	cmpl   $0x773593ff,-0x34(%ebp)
   18a34:	7e f3                	jle    18a29 <idle+0x39d>
   18a36:	c7 45 c8 00 00 00 00 	movl   $0x0,-0x38(%ebp)
   18a3d:	eb 04                	jmp    18a43 <idle+0x3b7>
   18a3f:	83 45 c8 01          	addl   $0x1,-0x38(%ebp)
   18a43:	81 7d c8 ff e0 f5 05 	cmpl   $0x5f5e0ff,-0x38(%ebp)
   18a4a:	7e f3                	jle    18a3f <idle+0x3b3>
   18a4c:	83 ec 04             	sub    $0x4,%esp
   18a4f:	6a 01                	push   $0x1
   18a51:	8d 45 bf             	lea    -0x41(%ebp),%eax
   18a54:	50                   	push   %eax
   18a55:	6a 01                	push   $0x1
   18a57:	e8 a1 07 00 00       	call   191fd <write>
   18a5c:	83 c4 10             	add    $0x10,%esp
   18a5f:	eb d5                	jmp    18a36 <idle+0x3aa>

00018a61 <wait>:
   18a61:	55                   	push   %ebp
   18a62:	89 e5                	mov    %esp,%ebp
   18a64:	83 ec 08             	sub    $0x8,%esp
   18a67:	83 ec 08             	sub    $0x8,%esp
   18a6a:	ff 75 08             	pushl  0x8(%ebp)
   18a6d:	6a 00                	push   $0x0
   18a6f:	e8 a1 07 00 00       	call   19215 <waitpid>
   18a74:	83 c4 10             	add    $0x10,%esp
   18a77:	c9                   	leave  
   18a78:	c3                   	ret    

00018a79 <cwritech>:
   18a79:	55                   	push   %ebp
   18a7a:	89 e5                	mov    %esp,%ebp
   18a7c:	83 ec 18             	sub    $0x18,%esp
   18a7f:	8b 45 08             	mov    0x8(%ebp),%eax
   18a82:	88 45 f4             	mov    %al,-0xc(%ebp)
   18a85:	83 ec 04             	sub    $0x4,%esp
   18a88:	6a 01                	push   $0x1
   18a8a:	8d 45 f4             	lea    -0xc(%ebp),%eax
   18a8d:	50                   	push   %eax
   18a8e:	6a 00                	push   $0x0
   18a90:	e8 68 07 00 00       	call   191fd <write>
   18a95:	83 c4 10             	add    $0x10,%esp
   18a98:	c9                   	leave  
   18a99:	c3                   	ret    

00018a9a <cwrites>:
   18a9a:	55                   	push   %ebp
   18a9b:	89 e5                	mov    %esp,%ebp
   18a9d:	83 ec 18             	sub    $0x18,%esp
   18aa0:	83 ec 0c             	sub    $0xc,%esp
   18aa3:	ff 75 08             	pushl  0x8(%ebp)
   18aa6:	e8 12 01 00 00       	call   18bbd <strlen>
   18aab:	83 c4 10             	add    $0x10,%esp
   18aae:	89 45 f4             	mov    %eax,-0xc(%ebp)
   18ab1:	8b 45 f4             	mov    -0xc(%ebp),%eax
   18ab4:	83 ec 04             	sub    $0x4,%esp
   18ab7:	50                   	push   %eax
   18ab8:	ff 75 08             	pushl  0x8(%ebp)
   18abb:	6a 00                	push   $0x0
   18abd:	e8 3b 07 00 00       	call   191fd <write>
   18ac2:	83 c4 10             	add    $0x10,%esp
   18ac5:	c9                   	leave  
   18ac6:	c3                   	ret    

00018ac7 <cwrite>:
   18ac7:	55                   	push   %ebp
   18ac8:	89 e5                	mov    %esp,%ebp
   18aca:	83 ec 08             	sub    $0x8,%esp
   18acd:	83 ec 04             	sub    $0x4,%esp
   18ad0:	ff 75 0c             	pushl  0xc(%ebp)
   18ad3:	ff 75 08             	pushl  0x8(%ebp)
   18ad6:	6a 00                	push   $0x0
   18ad8:	e8 20 07 00 00       	call   191fd <write>
   18add:	83 c4 10             	add    $0x10,%esp
   18ae0:	c9                   	leave  
   18ae1:	c3                   	ret    

00018ae2 <swritech>:
   18ae2:	55                   	push   %ebp
   18ae3:	89 e5                	mov    %esp,%ebp
   18ae5:	83 ec 18             	sub    $0x18,%esp
   18ae8:	8b 45 08             	mov    0x8(%ebp),%eax
   18aeb:	88 45 f4             	mov    %al,-0xc(%ebp)
   18aee:	83 ec 04             	sub    $0x4,%esp
   18af1:	6a 01                	push   $0x1
   18af3:	8d 45 f4             	lea    -0xc(%ebp),%eax
   18af6:	50                   	push   %eax
   18af7:	6a 01                	push   $0x1
   18af9:	e8 ff 06 00 00       	call   191fd <write>
   18afe:	83 c4 10             	add    $0x10,%esp
   18b01:	c9                   	leave  
   18b02:	c3                   	ret    

00018b03 <swrites>:
   18b03:	55                   	push   %ebp
   18b04:	89 e5                	mov    %esp,%ebp
   18b06:	83 ec 18             	sub    $0x18,%esp
   18b09:	83 ec 0c             	sub    $0xc,%esp
   18b0c:	ff 75 08             	pushl  0x8(%ebp)
   18b0f:	e8 a9 00 00 00       	call   18bbd <strlen>
   18b14:	83 c4 10             	add    $0x10,%esp
   18b17:	89 45 f4             	mov    %eax,-0xc(%ebp)
   18b1a:	8b 45 f4             	mov    -0xc(%ebp),%eax
   18b1d:	83 ec 04             	sub    $0x4,%esp
   18b20:	50                   	push   %eax
   18b21:	ff 75 08             	pushl  0x8(%ebp)
   18b24:	6a 01                	push   $0x1
   18b26:	e8 d2 06 00 00       	call   191fd <write>
   18b2b:	83 c4 10             	add    $0x10,%esp
   18b2e:	c9                   	leave  
   18b2f:	c3                   	ret    

00018b30 <swrite>:
   18b30:	55                   	push   %ebp
   18b31:	89 e5                	mov    %esp,%ebp
   18b33:	83 ec 08             	sub    $0x8,%esp
   18b36:	83 ec 04             	sub    $0x4,%esp
   18b39:	ff 75 0c             	pushl  0xc(%ebp)
   18b3c:	ff 75 08             	pushl  0x8(%ebp)
   18b3f:	6a 01                	push   $0x1
   18b41:	e8 b7 06 00 00       	call   191fd <write>
   18b46:	83 c4 10             	add    $0x10,%esp
   18b49:	c9                   	leave  
   18b4a:	c3                   	ret    

00018b4b <str2int>:
   18b4b:	55                   	push   %ebp
   18b4c:	89 e5                	mov    %esp,%ebp
   18b4e:	53                   	push   %ebx
   18b4f:	83 ec 14             	sub    $0x14,%esp
   18b52:	8b 45 08             	mov    0x8(%ebp),%eax
   18b55:	8b 4d 0c             	mov    0xc(%ebp),%ecx
   18b58:	bb 00 00 00 00       	mov    $0x0,%ebx
   18b5d:	c6 45 eb 39          	movb   $0x39,-0x15(%ebp)
   18b61:	c7 45 f8 01 00 00 00 	movl   $0x1,-0x8(%ebp)
   18b68:	0f b6 10             	movzbl (%eax),%edx
   18b6b:	80 fa 2d             	cmp    $0x2d,%dl
   18b6e:	75 0a                	jne    18b7a <str2int+0x2f>
   18b70:	c7 45 f8 ff ff ff ff 	movl   $0xffffffff,-0x8(%ebp)
   18b77:	83 c0 01             	add    $0x1,%eax
   18b7a:	83 f9 0a             	cmp    $0xa,%ecx
   18b7d:	74 2b                	je     18baa <str2int+0x5f>
   18b7f:	89 ca                	mov    %ecx,%edx
   18b81:	83 c2 2f             	add    $0x2f,%edx
   18b84:	88 55 eb             	mov    %dl,-0x15(%ebp)
   18b87:	eb 21                	jmp    18baa <str2int+0x5f>
   18b89:	0f b6 10             	movzbl (%eax),%edx
   18b8c:	80 fa 2f             	cmp    $0x2f,%dl
   18b8f:	7e 20                	jle    18bb1 <str2int+0x66>
   18b91:	0f b6 10             	movzbl (%eax),%edx
   18b94:	38 55 eb             	cmp    %dl,-0x15(%ebp)
   18b97:	7c 18                	jl     18bb1 <str2int+0x66>
   18b99:	0f af d9             	imul   %ecx,%ebx
   18b9c:	0f b6 10             	movzbl (%eax),%edx
   18b9f:	0f be d2             	movsbl %dl,%edx
   18ba2:	01 da                	add    %ebx,%edx
   18ba4:	8d 5a d0             	lea    -0x30(%edx),%ebx
   18ba7:	83 c0 01             	add    $0x1,%eax
   18baa:	0f b6 10             	movzbl (%eax),%edx
   18bad:	84 d2                	test   %dl,%dl
   18baf:	75 d8                	jne    18b89 <str2int+0x3e>
   18bb1:	89 d8                	mov    %ebx,%eax
   18bb3:	0f af 45 f8          	imul   -0x8(%ebp),%eax
   18bb7:	83 c4 14             	add    $0x14,%esp
   18bba:	5b                   	pop    %ebx
   18bbb:	5d                   	pop    %ebp
   18bbc:	c3                   	ret    

00018bbd <strlen>:
   18bbd:	55                   	push   %ebp
   18bbe:	89 e5                	mov    %esp,%ebp
   18bc0:	53                   	push   %ebx
   18bc1:	8b 55 08             	mov    0x8(%ebp),%edx
   18bc4:	bb 00 00 00 00       	mov    $0x0,%ebx
   18bc9:	eb 03                	jmp    18bce <strlen+0x11>
   18bcb:	83 c3 01             	add    $0x1,%ebx
   18bce:	89 d0                	mov    %edx,%eax
   18bd0:	8d 50 01             	lea    0x1(%eax),%edx
   18bd3:	0f b6 00             	movzbl (%eax),%eax
   18bd6:	84 c0                	test   %al,%al
   18bd8:	75 f1                	jne    18bcb <strlen+0xe>
   18bda:	89 d8                	mov    %ebx,%eax
   18bdc:	5b                   	pop    %ebx
   18bdd:	5d                   	pop    %ebp
   18bde:	c3                   	ret    

00018bdf <strcpy>:
   18bdf:	55                   	push   %ebp
   18be0:	89 e5                	mov    %esp,%ebp
   18be2:	56                   	push   %esi
   18be3:	53                   	push   %ebx
   18be4:	8b 4d 08             	mov    0x8(%ebp),%ecx
   18be7:	8b 75 0c             	mov    0xc(%ebp),%esi
   18bea:	89 cb                	mov    %ecx,%ebx
   18bec:	90                   	nop
   18bed:	89 f2                	mov    %esi,%edx
   18bef:	8d 72 01             	lea    0x1(%edx),%esi
   18bf2:	89 c8                	mov    %ecx,%eax
   18bf4:	8d 48 01             	lea    0x1(%eax),%ecx
   18bf7:	0f b6 12             	movzbl (%edx),%edx
   18bfa:	88 10                	mov    %dl,(%eax)
   18bfc:	0f b6 00             	movzbl (%eax),%eax
   18bff:	84 c0                	test   %al,%al
   18c01:	75 ea                	jne    18bed <strcpy+0xe>
   18c03:	89 d8                	mov    %ebx,%eax
   18c05:	5b                   	pop    %ebx
   18c06:	5e                   	pop    %esi
   18c07:	5d                   	pop    %ebp
   18c08:	c3                   	ret    

00018c09 <strcat>:
   18c09:	55                   	push   %ebp
   18c0a:	89 e5                	mov    %esp,%ebp
   18c0c:	56                   	push   %esi
   18c0d:	53                   	push   %ebx
   18c0e:	8b 45 08             	mov    0x8(%ebp),%eax
   18c11:	8b 75 0c             	mov    0xc(%ebp),%esi
   18c14:	89 c3                	mov    %eax,%ebx
   18c16:	eb 03                	jmp    18c1b <strcat+0x12>
   18c18:	83 c0 01             	add    $0x1,%eax
   18c1b:	0f b6 10             	movzbl (%eax),%edx
   18c1e:	84 d2                	test   %dl,%dl
   18c20:	75 f6                	jne    18c18 <strcat+0xf>
   18c22:	90                   	nop
   18c23:	89 f1                	mov    %esi,%ecx
   18c25:	8d 71 01             	lea    0x1(%ecx),%esi
   18c28:	89 c2                	mov    %eax,%edx
   18c2a:	8d 42 01             	lea    0x1(%edx),%eax
   18c2d:	0f b6 09             	movzbl (%ecx),%ecx
   18c30:	88 0a                	mov    %cl,(%edx)
   18c32:	0f b6 12             	movzbl (%edx),%edx
   18c35:	84 d2                	test   %dl,%dl
   18c37:	75 ea                	jne    18c23 <strcat+0x1a>
   18c39:	89 d8                	mov    %ebx,%eax
   18c3b:	5b                   	pop    %ebx
   18c3c:	5e                   	pop    %esi
   18c3d:	5d                   	pop    %ebp
   18c3e:	c3                   	ret    

00018c3f <strcmp>:
   18c3f:	55                   	push   %ebp
   18c40:	89 e5                	mov    %esp,%ebp
   18c42:	53                   	push   %ebx
   18c43:	8b 45 08             	mov    0x8(%ebp),%eax
   18c46:	8b 55 0c             	mov    0xc(%ebp),%edx
   18c49:	eb 06                	jmp    18c51 <strcmp+0x12>
   18c4b:	83 c0 01             	add    $0x1,%eax
   18c4e:	83 c2 01             	add    $0x1,%edx
   18c51:	0f b6 08             	movzbl (%eax),%ecx
   18c54:	84 c9                	test   %cl,%cl
   18c56:	74 0a                	je     18c62 <strcmp+0x23>
   18c58:	0f b6 18             	movzbl (%eax),%ebx
   18c5b:	0f b6 0a             	movzbl (%edx),%ecx
   18c5e:	38 cb                	cmp    %cl,%bl
   18c60:	74 e9                	je     18c4b <strcmp+0xc>
   18c62:	0f b6 00             	movzbl (%eax),%eax
   18c65:	0f b6 c8             	movzbl %al,%ecx
   18c68:	0f b6 02             	movzbl (%edx),%eax
   18c6b:	0f b6 c0             	movzbl %al,%eax
   18c6e:	29 c1                	sub    %eax,%ecx
   18c70:	89 c8                	mov    %ecx,%eax
   18c72:	5b                   	pop    %ebx
   18c73:	5d                   	pop    %ebp
   18c74:	c3                   	ret    

00018c75 <pad>:
   18c75:	55                   	push   %ebp
   18c76:	89 e5                	mov    %esp,%ebp
   18c78:	eb 12                	jmp    18c8c <pad+0x17>
   18c7a:	8b 45 08             	mov    0x8(%ebp),%eax
   18c7d:	8d 50 01             	lea    0x1(%eax),%edx
   18c80:	89 55 08             	mov    %edx,0x8(%ebp)
   18c83:	8b 55 10             	mov    0x10(%ebp),%edx
   18c86:	88 10                	mov    %dl,(%eax)
   18c88:	83 6d 0c 01          	subl   $0x1,0xc(%ebp)
   18c8c:	83 7d 0c 00          	cmpl   $0x0,0xc(%ebp)
   18c90:	7f e8                	jg     18c7a <pad+0x5>
   18c92:	8b 45 08             	mov    0x8(%ebp),%eax
   18c95:	5d                   	pop    %ebp
   18c96:	c3                   	ret    

00018c97 <padstr>:
   18c97:	55                   	push   %ebp
   18c98:	89 e5                	mov    %esp,%ebp
   18c9a:	83 ec 10             	sub    $0x10,%esp
   18c9d:	83 7d 10 00          	cmpl   $0x0,0x10(%ebp)
   18ca1:	79 0e                	jns    18cb1 <padstr+0x1a>
   18ca3:	ff 75 0c             	pushl  0xc(%ebp)
   18ca6:	e8 12 ff ff ff       	call   18bbd <strlen>
   18cab:	83 c4 04             	add    $0x4,%esp
   18cae:	89 45 10             	mov    %eax,0x10(%ebp)
   18cb1:	8b 45 14             	mov    0x14(%ebp),%eax
   18cb4:	2b 45 10             	sub    0x10(%ebp),%eax
   18cb7:	89 45 f8             	mov    %eax,-0x8(%ebp)
   18cba:	83 7d f8 00          	cmpl   $0x0,-0x8(%ebp)
   18cbe:	7e 1a                	jle    18cda <padstr+0x43>
   18cc0:	83 7d 18 00          	cmpl   $0x0,0x18(%ebp)
   18cc4:	75 14                	jne    18cda <padstr+0x43>
   18cc6:	ff 75 1c             	pushl  0x1c(%ebp)
   18cc9:	ff 75 f8             	pushl  -0x8(%ebp)
   18ccc:	ff 75 08             	pushl  0x8(%ebp)
   18ccf:	e8 a1 ff ff ff       	call   18c75 <pad>
   18cd4:	83 c4 0c             	add    $0xc,%esp
   18cd7:	89 45 08             	mov    %eax,0x8(%ebp)
   18cda:	c7 45 fc 00 00 00 00 	movl   $0x0,-0x4(%ebp)
   18ce1:	eb 1b                	jmp    18cfe <padstr+0x67>
   18ce3:	8b 55 fc             	mov    -0x4(%ebp),%edx
   18ce6:	8b 45 0c             	mov    0xc(%ebp),%eax
   18ce9:	8d 0c 02             	lea    (%edx,%eax,1),%ecx
   18cec:	8b 45 08             	mov    0x8(%ebp),%eax
   18cef:	8d 50 01             	lea    0x1(%eax),%edx
   18cf2:	89 55 08             	mov    %edx,0x8(%ebp)
   18cf5:	0f b6 11             	movzbl (%ecx),%edx
   18cf8:	88 10                	mov    %dl,(%eax)
   18cfa:	83 45 fc 01          	addl   $0x1,-0x4(%ebp)
   18cfe:	8b 45 fc             	mov    -0x4(%ebp),%eax
   18d01:	3b 45 10             	cmp    0x10(%ebp),%eax
   18d04:	7c dd                	jl     18ce3 <padstr+0x4c>
   18d06:	83 7d f8 00          	cmpl   $0x0,-0x8(%ebp)
   18d0a:	7e 1a                	jle    18d26 <padstr+0x8f>
   18d0c:	83 7d 18 00          	cmpl   $0x0,0x18(%ebp)
   18d10:	74 14                	je     18d26 <padstr+0x8f>
   18d12:	ff 75 1c             	pushl  0x1c(%ebp)
   18d15:	ff 75 f8             	pushl  -0x8(%ebp)
   18d18:	ff 75 08             	pushl  0x8(%ebp)
   18d1b:	e8 55 ff ff ff       	call   18c75 <pad>
   18d20:	83 c4 0c             	add    $0xc,%esp
   18d23:	89 45 08             	mov    %eax,0x8(%ebp)
   18d26:	8b 45 08             	mov    0x8(%ebp),%eax
   18d29:	c9                   	leave  
   18d2a:	c3                   	ret    

00018d2b <sprint>:
   18d2b:	55                   	push   %ebp
   18d2c:	89 e5                	mov    %esp,%ebp
   18d2e:	83 ec 38             	sub    $0x38,%esp
   18d31:	8d 45 0c             	lea    0xc(%ebp),%eax
   18d34:	83 c0 04             	add    $0x4,%eax
   18d37:	89 45 f4             	mov    %eax,-0xc(%ebp)
   18d3a:	e9 f8 01 00 00       	jmp    18f37 <sprint+0x20c>
   18d3f:	80 7d f3 25          	cmpb   $0x25,-0xd(%ebp)
   18d43:	0f 85 df 01 00 00    	jne    18f28 <sprint+0x1fd>
   18d49:	c7 45 ec 00 00 00 00 	movl   $0x0,-0x14(%ebp)
   18d50:	c7 45 e4 20 00 00 00 	movl   $0x20,-0x1c(%ebp)
   18d57:	c7 45 e8 00 00 00 00 	movl   $0x0,-0x18(%ebp)
   18d5e:	8b 45 0c             	mov    0xc(%ebp),%eax
   18d61:	8d 50 01             	lea    0x1(%eax),%edx
   18d64:	89 55 0c             	mov    %edx,0xc(%ebp)
   18d67:	0f b6 00             	movzbl (%eax),%eax
   18d6a:	88 45 f3             	mov    %al,-0xd(%ebp)
   18d6d:	80 7d f3 2d          	cmpb   $0x2d,-0xd(%ebp)
   18d71:	75 16                	jne    18d89 <sprint+0x5e>
   18d73:	c7 45 ec 01 00 00 00 	movl   $0x1,-0x14(%ebp)
   18d7a:	8b 45 0c             	mov    0xc(%ebp),%eax
   18d7d:	8d 50 01             	lea    0x1(%eax),%edx
   18d80:	89 55 0c             	mov    %edx,0xc(%ebp)
   18d83:	0f b6 00             	movzbl (%eax),%eax
   18d86:	88 45 f3             	mov    %al,-0xd(%ebp)
   18d89:	80 7d f3 30          	cmpb   $0x30,-0xd(%ebp)
   18d8d:	75 40                	jne    18dcf <sprint+0xa4>
   18d8f:	c7 45 e4 30 00 00 00 	movl   $0x30,-0x1c(%ebp)
   18d96:	8b 45 0c             	mov    0xc(%ebp),%eax
   18d99:	8d 50 01             	lea    0x1(%eax),%edx
   18d9c:	89 55 0c             	mov    %edx,0xc(%ebp)
   18d9f:	0f b6 00             	movzbl (%eax),%eax
   18da2:	88 45 f3             	mov    %al,-0xd(%ebp)
   18da5:	eb 28                	jmp    18dcf <sprint+0xa4>
   18da7:	8b 55 e8             	mov    -0x18(%ebp),%edx
   18daa:	89 d0                	mov    %edx,%eax
   18dac:	c1 e0 02             	shl    $0x2,%eax
   18daf:	01 d0                	add    %edx,%eax
   18db1:	01 c0                	add    %eax,%eax
   18db3:	89 45 e8             	mov    %eax,-0x18(%ebp)
   18db6:	0f be 45 f3          	movsbl -0xd(%ebp),%eax
   18dba:	83 e8 30             	sub    $0x30,%eax
   18dbd:	01 45 e8             	add    %eax,-0x18(%ebp)
   18dc0:	8b 45 0c             	mov    0xc(%ebp),%eax
   18dc3:	8d 50 01             	lea    0x1(%eax),%edx
   18dc6:	89 55 0c             	mov    %edx,0xc(%ebp)
   18dc9:	0f b6 00             	movzbl (%eax),%eax
   18dcc:	88 45 f3             	mov    %al,-0xd(%ebp)
   18dcf:	80 7d f3 2f          	cmpb   $0x2f,-0xd(%ebp)
   18dd3:	7e 06                	jle    18ddb <sprint+0xb0>
   18dd5:	80 7d f3 39          	cmpb   $0x39,-0xd(%ebp)
   18dd9:	7e cc                	jle    18da7 <sprint+0x7c>
   18ddb:	0f be 45 f3          	movsbl -0xd(%ebp),%eax
   18ddf:	83 e8 63             	sub    $0x63,%eax
   18de2:	83 f8 15             	cmp    $0x15,%eax
   18de5:	0f 87 4c 01 00 00    	ja     18f37 <sprint+0x20c>
   18deb:	8b 04 85 a8 a6 01 00 	mov    0x1a6a8(,%eax,4),%eax
   18df2:	ff e0                	jmp    *%eax
   18df4:	8b 45 f4             	mov    -0xc(%ebp),%eax
   18df7:	8d 50 04             	lea    0x4(%eax),%edx
   18dfa:	89 55 f4             	mov    %edx,-0xc(%ebp)
   18dfd:	8b 00                	mov    (%eax),%eax
   18dff:	88 45 f3             	mov    %al,-0xd(%ebp)
   18e02:	0f b6 45 f3          	movzbl -0xd(%ebp),%eax
   18e06:	88 45 d0             	mov    %al,-0x30(%ebp)
   18e09:	c6 45 d1 00          	movb   $0x0,-0x2f(%ebp)
   18e0d:	ff 75 e4             	pushl  -0x1c(%ebp)
   18e10:	ff 75 ec             	pushl  -0x14(%ebp)
   18e13:	ff 75 e8             	pushl  -0x18(%ebp)
   18e16:	6a 01                	push   $0x1
   18e18:	8d 45 d0             	lea    -0x30(%ebp),%eax
   18e1b:	50                   	push   %eax
   18e1c:	ff 75 08             	pushl  0x8(%ebp)
   18e1f:	e8 73 fe ff ff       	call   18c97 <padstr>
   18e24:	83 c4 18             	add    $0x18,%esp
   18e27:	89 45 08             	mov    %eax,0x8(%ebp)
   18e2a:	e9 08 01 00 00       	jmp    18f37 <sprint+0x20c>
   18e2f:	8b 45 f4             	mov    -0xc(%ebp),%eax
   18e32:	8d 50 04             	lea    0x4(%eax),%edx
   18e35:	89 55 f4             	mov    %edx,-0xc(%ebp)
   18e38:	8b 00                	mov    (%eax),%eax
   18e3a:	83 ec 08             	sub    $0x8,%esp
   18e3d:	50                   	push   %eax
   18e3e:	8d 45 d0             	lea    -0x30(%ebp),%eax
   18e41:	50                   	push   %eax
   18e42:	e8 9b 01 00 00       	call   18fe2 <cvt_dec>
   18e47:	83 c4 10             	add    $0x10,%esp
   18e4a:	89 45 e0             	mov    %eax,-0x20(%ebp)
   18e4d:	83 ec 08             	sub    $0x8,%esp
   18e50:	ff 75 e4             	pushl  -0x1c(%ebp)
   18e53:	ff 75 ec             	pushl  -0x14(%ebp)
   18e56:	ff 75 e8             	pushl  -0x18(%ebp)
   18e59:	ff 75 e0             	pushl  -0x20(%ebp)
   18e5c:	8d 45 d0             	lea    -0x30(%ebp),%eax
   18e5f:	50                   	push   %eax
   18e60:	ff 75 08             	pushl  0x8(%ebp)
   18e63:	e8 2f fe ff ff       	call   18c97 <padstr>
   18e68:	83 c4 20             	add    $0x20,%esp
   18e6b:	89 45 08             	mov    %eax,0x8(%ebp)
   18e6e:	e9 c4 00 00 00       	jmp    18f37 <sprint+0x20c>
   18e73:	8b 45 f4             	mov    -0xc(%ebp),%eax
   18e76:	8d 50 04             	lea    0x4(%eax),%edx
   18e79:	89 55 f4             	mov    %edx,-0xc(%ebp)
   18e7c:	8b 00                	mov    (%eax),%eax
   18e7e:	89 45 dc             	mov    %eax,-0x24(%ebp)
   18e81:	83 ec 08             	sub    $0x8,%esp
   18e84:	ff 75 e4             	pushl  -0x1c(%ebp)
   18e87:	ff 75 ec             	pushl  -0x14(%ebp)
   18e8a:	ff 75 e8             	pushl  -0x18(%ebp)
   18e8d:	6a ff                	push   $0xffffffff
   18e8f:	ff 75 dc             	pushl  -0x24(%ebp)
   18e92:	ff 75 08             	pushl  0x8(%ebp)
   18e95:	e8 fd fd ff ff       	call   18c97 <padstr>
   18e9a:	83 c4 20             	add    $0x20,%esp
   18e9d:	89 45 08             	mov    %eax,0x8(%ebp)
   18ea0:	e9 92 00 00 00       	jmp    18f37 <sprint+0x20c>
   18ea5:	8b 45 f4             	mov    -0xc(%ebp),%eax
   18ea8:	8d 50 04             	lea    0x4(%eax),%edx
   18eab:	89 55 f4             	mov    %edx,-0xc(%ebp)
   18eae:	8b 00                	mov    (%eax),%eax
   18eb0:	83 ec 08             	sub    $0x8,%esp
   18eb3:	50                   	push   %eax
   18eb4:	8d 45 d0             	lea    -0x30(%ebp),%eax
   18eb7:	50                   	push   %eax
   18eb8:	e8 6c 01 00 00       	call   19029 <cvt_hex>
   18ebd:	83 c4 10             	add    $0x10,%esp
   18ec0:	89 45 e0             	mov    %eax,-0x20(%ebp)
   18ec3:	83 ec 08             	sub    $0x8,%esp
   18ec6:	ff 75 e4             	pushl  -0x1c(%ebp)
   18ec9:	ff 75 ec             	pushl  -0x14(%ebp)
   18ecc:	ff 75 e8             	pushl  -0x18(%ebp)
   18ecf:	ff 75 e0             	pushl  -0x20(%ebp)
   18ed2:	8d 45 d0             	lea    -0x30(%ebp),%eax
   18ed5:	50                   	push   %eax
   18ed6:	ff 75 08             	pushl  0x8(%ebp)
   18ed9:	e8 b9 fd ff ff       	call   18c97 <padstr>
   18ede:	83 c4 20             	add    $0x20,%esp
   18ee1:	89 45 08             	mov    %eax,0x8(%ebp)
   18ee4:	eb 51                	jmp    18f37 <sprint+0x20c>
   18ee6:	8b 45 f4             	mov    -0xc(%ebp),%eax
   18ee9:	8d 50 04             	lea    0x4(%eax),%edx
   18eec:	89 55 f4             	mov    %edx,-0xc(%ebp)
   18eef:	8b 00                	mov    (%eax),%eax
   18ef1:	83 ec 08             	sub    $0x8,%esp
   18ef4:	50                   	push   %eax
   18ef5:	8d 45 d0             	lea    -0x30(%ebp),%eax
   18ef8:	50                   	push   %eax
   18ef9:	e8 ba 01 00 00       	call   190b8 <cvt_oct>
   18efe:	83 c4 10             	add    $0x10,%esp
   18f01:	89 45 e0             	mov    %eax,-0x20(%ebp)
   18f04:	83 ec 08             	sub    $0x8,%esp
   18f07:	ff 75 e4             	pushl  -0x1c(%ebp)
   18f0a:	ff 75 ec             	pushl  -0x14(%ebp)
   18f0d:	ff 75 e8             	pushl  -0x18(%ebp)
   18f10:	ff 75 e0             	pushl  -0x20(%ebp)
   18f13:	8d 45 d0             	lea    -0x30(%ebp),%eax
   18f16:	50                   	push   %eax
   18f17:	ff 75 08             	pushl  0x8(%ebp)
   18f1a:	e8 78 fd ff ff       	call   18c97 <padstr>
   18f1f:	83 c4 20             	add    $0x20,%esp
   18f22:	89 45 08             	mov    %eax,0x8(%ebp)
   18f25:	90                   	nop
   18f26:	eb 0f                	jmp    18f37 <sprint+0x20c>
   18f28:	8b 45 08             	mov    0x8(%ebp),%eax
   18f2b:	8d 50 01             	lea    0x1(%eax),%edx
   18f2e:	89 55 08             	mov    %edx,0x8(%ebp)
   18f31:	0f b6 55 f3          	movzbl -0xd(%ebp),%edx
   18f35:	88 10                	mov    %dl,(%eax)
   18f37:	8b 45 0c             	mov    0xc(%ebp),%eax
   18f3a:	8d 50 01             	lea    0x1(%eax),%edx
   18f3d:	89 55 0c             	mov    %edx,0xc(%ebp)
   18f40:	0f b6 00             	movzbl (%eax),%eax
   18f43:	88 45 f3             	mov    %al,-0xd(%ebp)
   18f46:	80 7d f3 00          	cmpb   $0x0,-0xd(%ebp)
   18f4a:	0f 85 ef fd ff ff    	jne    18d3f <sprint+0x14>
   18f50:	8b 45 08             	mov    0x8(%ebp),%eax
   18f53:	c6 00 00             	movb   $0x0,(%eax)
   18f56:	90                   	nop
   18f57:	c9                   	leave  
   18f58:	c3                   	ret    

00018f59 <cvt_dec0>:
   18f59:	55                   	push   %ebp
   18f5a:	89 e5                	mov    %esp,%ebp
   18f5c:	83 ec 18             	sub    $0x18,%esp
   18f5f:	8b 4d 0c             	mov    0xc(%ebp),%ecx
   18f62:	ba 67 66 66 66       	mov    $0x66666667,%edx
   18f67:	89 c8                	mov    %ecx,%eax
   18f69:	f7 ea                	imul   %edx
   18f6b:	c1 fa 02             	sar    $0x2,%edx
   18f6e:	89 c8                	mov    %ecx,%eax
   18f70:	c1 f8 1f             	sar    $0x1f,%eax
   18f73:	29 c2                	sub    %eax,%edx
   18f75:	89 d0                	mov    %edx,%eax
   18f77:	89 45 f4             	mov    %eax,-0xc(%ebp)
   18f7a:	83 7d f4 00          	cmpl   $0x0,-0xc(%ebp)
   18f7e:	79 0e                	jns    18f8e <cvt_dec0+0x35>
   18f80:	c7 45 f4 cc cc cc 0c 	movl   $0xccccccc,-0xc(%ebp)
   18f87:	c7 45 0c 08 00 00 00 	movl   $0x8,0xc(%ebp)
   18f8e:	83 7d f4 00          	cmpl   $0x0,-0xc(%ebp)
   18f92:	74 14                	je     18fa8 <cvt_dec0+0x4f>
   18f94:	83 ec 08             	sub    $0x8,%esp
   18f97:	ff 75 f4             	pushl  -0xc(%ebp)
   18f9a:	ff 75 08             	pushl  0x8(%ebp)
   18f9d:	e8 b7 ff ff ff       	call   18f59 <cvt_dec0>
   18fa2:	83 c4 10             	add    $0x10,%esp
   18fa5:	89 45 08             	mov    %eax,0x8(%ebp)
   18fa8:	8b 4d 0c             	mov    0xc(%ebp),%ecx
   18fab:	ba 67 66 66 66       	mov    $0x66666667,%edx
   18fb0:	89 c8                	mov    %ecx,%eax
   18fb2:	f7 ea                	imul   %edx
   18fb4:	c1 fa 02             	sar    $0x2,%edx
   18fb7:	89 c8                	mov    %ecx,%eax
   18fb9:	c1 f8 1f             	sar    $0x1f,%eax
   18fbc:	29 c2                	sub    %eax,%edx
   18fbe:	89 d0                	mov    %edx,%eax
   18fc0:	c1 e0 02             	shl    $0x2,%eax
   18fc3:	01 d0                	add    %edx,%eax
   18fc5:	01 c0                	add    %eax,%eax
   18fc7:	29 c1                	sub    %eax,%ecx
   18fc9:	89 ca                	mov    %ecx,%edx
   18fcb:	89 d0                	mov    %edx,%eax
   18fcd:	8d 48 30             	lea    0x30(%eax),%ecx
   18fd0:	8b 45 08             	mov    0x8(%ebp),%eax
   18fd3:	8d 50 01             	lea    0x1(%eax),%edx
   18fd6:	89 55 08             	mov    %edx,0x8(%ebp)
   18fd9:	89 ca                	mov    %ecx,%edx
   18fdb:	88 10                	mov    %dl,(%eax)
   18fdd:	8b 45 08             	mov    0x8(%ebp),%eax
   18fe0:	c9                   	leave  
   18fe1:	c3                   	ret    

00018fe2 <cvt_dec>:
   18fe2:	55                   	push   %ebp
   18fe3:	89 e5                	mov    %esp,%ebp
   18fe5:	83 ec 18             	sub    $0x18,%esp
   18fe8:	8b 45 08             	mov    0x8(%ebp),%eax
   18feb:	89 45 f4             	mov    %eax,-0xc(%ebp)
   18fee:	83 7d 0c 00          	cmpl   $0x0,0xc(%ebp)
   18ff2:	79 0f                	jns    19003 <cvt_dec+0x21>
   18ff4:	8b 45 f4             	mov    -0xc(%ebp),%eax
   18ff7:	8d 50 01             	lea    0x1(%eax),%edx
   18ffa:	89 55 f4             	mov    %edx,-0xc(%ebp)
   18ffd:	c6 00 2d             	movb   $0x2d,(%eax)
   19000:	f7 5d 0c             	negl   0xc(%ebp)
   19003:	83 ec 08             	sub    $0x8,%esp
   19006:	ff 75 0c             	pushl  0xc(%ebp)
   19009:	ff 75 f4             	pushl  -0xc(%ebp)
   1900c:	e8 48 ff ff ff       	call   18f59 <cvt_dec0>
   19011:	83 c4 10             	add    $0x10,%esp
   19014:	89 45 f4             	mov    %eax,-0xc(%ebp)
   19017:	8b 45 f4             	mov    -0xc(%ebp),%eax
   1901a:	c6 00 00             	movb   $0x0,(%eax)
   1901d:	8b 55 f4             	mov    -0xc(%ebp),%edx
   19020:	8b 45 08             	mov    0x8(%ebp),%eax
   19023:	29 c2                	sub    %eax,%edx
   19025:	89 d0                	mov    %edx,%eax
   19027:	c9                   	leave  
   19028:	c3                   	ret    

00019029 <cvt_hex>:
   19029:	55                   	push   %ebp
   1902a:	89 e5                	mov    %esp,%ebp
   1902c:	83 ec 20             	sub    $0x20,%esp
   1902f:	c7 45 e3 30 31 32 33 	movl   $0x33323130,-0x1d(%ebp)
   19036:	c7 45 e7 34 35 36 37 	movl   $0x37363534,-0x19(%ebp)
   1903d:	c7 45 eb 38 39 41 42 	movl   $0x42413938,-0x15(%ebp)
   19044:	c7 45 ef 43 44 45 46 	movl   $0x46454443,-0x11(%ebp)
   1904b:	c6 45 f3 00          	movb   $0x0,-0xd(%ebp)
   1904f:	c7 45 fc 00 00 00 00 	movl   $0x0,-0x4(%ebp)
   19056:	c7 45 f8 00 00 00 00 	movl   $0x0,-0x8(%ebp)
   1905d:	eb 48                	jmp    190a7 <cvt_hex+0x7e>
   1905f:	8b 45 0c             	mov    0xc(%ebp),%eax
   19062:	25 00 00 00 f0       	and    $0xf0000000,%eax
   19067:	89 45 f4             	mov    %eax,-0xc(%ebp)
   1906a:	83 7d fc 00          	cmpl   $0x0,-0x4(%ebp)
   1906e:	75 0c                	jne    1907c <cvt_hex+0x53>
   19070:	83 7d f4 00          	cmpl   $0x0,-0xc(%ebp)
   19074:	75 06                	jne    1907c <cvt_hex+0x53>
   19076:	83 7d f8 07          	cmpl   $0x7,-0x8(%ebp)
   1907a:	75 23                	jne    1909f <cvt_hex+0x76>
   1907c:	83 45 fc 01          	addl   $0x1,-0x4(%ebp)
   19080:	8b 45 f4             	mov    -0xc(%ebp),%eax
   19083:	c1 e8 1c             	shr    $0x1c,%eax
   19086:	89 45 f4             	mov    %eax,-0xc(%ebp)
   19089:	8b 45 08             	mov    0x8(%ebp),%eax
   1908c:	8d 50 01             	lea    0x1(%eax),%edx
   1908f:	89 55 08             	mov    %edx,0x8(%ebp)
   19092:	8d 4d e3             	lea    -0x1d(%ebp),%ecx
   19095:	8b 55 f4             	mov    -0xc(%ebp),%edx
   19098:	01 ca                	add    %ecx,%edx
   1909a:	0f b6 12             	movzbl (%edx),%edx
   1909d:	88 10                	mov    %dl,(%eax)
   1909f:	c1 65 0c 04          	shll   $0x4,0xc(%ebp)
   190a3:	83 45 f8 01          	addl   $0x1,-0x8(%ebp)
   190a7:	83 7d f8 07          	cmpl   $0x7,-0x8(%ebp)
   190ab:	7e b2                	jle    1905f <cvt_hex+0x36>
   190ad:	8b 45 08             	mov    0x8(%ebp),%eax
   190b0:	c6 00 00             	movb   $0x0,(%eax)
   190b3:	8b 45 fc             	mov    -0x4(%ebp),%eax
   190b6:	c9                   	leave  
   190b7:	c3                   	ret    

000190b8 <cvt_oct>:
   190b8:	55                   	push   %ebp
   190b9:	89 e5                	mov    %esp,%ebp
   190bb:	83 ec 10             	sub    $0x10,%esp
   190be:	c7 45 f8 00 00 00 00 	movl   $0x0,-0x8(%ebp)
   190c5:	8b 45 08             	mov    0x8(%ebp),%eax
   190c8:	89 45 f4             	mov    %eax,-0xc(%ebp)
   190cb:	8b 45 0c             	mov    0xc(%ebp),%eax
   190ce:	25 00 00 00 c0       	and    $0xc0000000,%eax
   190d3:	89 45 f0             	mov    %eax,-0x10(%ebp)
   190d6:	c1 7d f0 1e          	sarl   $0x1e,-0x10(%ebp)
   190da:	c7 45 fc 00 00 00 00 	movl   $0x0,-0x4(%ebp)
   190e1:	eb 47                	jmp    1912a <cvt_oct+0x72>
   190e3:	83 7d fc 0a          	cmpl   $0xa,-0x4(%ebp)
   190e7:	74 0c                	je     190f5 <cvt_oct+0x3d>
   190e9:	83 7d f0 00          	cmpl   $0x0,-0x10(%ebp)
   190ed:	75 06                	jne    190f5 <cvt_oct+0x3d>
   190ef:	83 7d f8 00          	cmpl   $0x0,-0x8(%ebp)
   190f3:	74 1e                	je     19113 <cvt_oct+0x5b>
   190f5:	c7 45 f8 01 00 00 00 	movl   $0x1,-0x8(%ebp)
   190fc:	83 65 f0 07          	andl   $0x7,-0x10(%ebp)
   19100:	8b 45 f0             	mov    -0x10(%ebp),%eax
   19103:	8d 48 30             	lea    0x30(%eax),%ecx
   19106:	8b 45 f4             	mov    -0xc(%ebp),%eax
   19109:	8d 50 01             	lea    0x1(%eax),%edx
   1910c:	89 55 f4             	mov    %edx,-0xc(%ebp)
   1910f:	89 ca                	mov    %ecx,%edx
   19111:	88 10                	mov    %dl,(%eax)
   19113:	c1 65 0c 03          	shll   $0x3,0xc(%ebp)
   19117:	8b 45 0c             	mov    0xc(%ebp),%eax
   1911a:	25 00 00 00 e0       	and    $0xe0000000,%eax
   1911f:	89 45 f0             	mov    %eax,-0x10(%ebp)
   19122:	c1 7d f0 1d          	sarl   $0x1d,-0x10(%ebp)
   19126:	83 45 fc 01          	addl   $0x1,-0x4(%ebp)
   1912a:	83 7d fc 0a          	cmpl   $0xa,-0x4(%ebp)
   1912e:	7e b3                	jle    190e3 <cvt_oct+0x2b>
   19130:	8b 45 f4             	mov    -0xc(%ebp),%eax
   19133:	c6 00 00             	movb   $0x0,(%eax)
   19136:	8b 55 f4             	mov    -0xc(%ebp),%edx
   19139:	8b 45 08             	mov    0x8(%ebp),%eax
   1913c:	29 c2                	sub    %eax,%edx
   1913e:	89 d0                	mov    %edx,%eax
   19140:	c9                   	leave  
   19141:	c3                   	ret    

00019142 <parseArgString>:
   19142:	55                   	push   %ebp
   19143:	89 e5                	mov    %esp,%ebp
   19145:	83 ec 14             	sub    $0x14,%esp
   19148:	8b 45 10             	mov    0x10(%ebp),%eax
   1914b:	88 45 ec             	mov    %al,-0x14(%ebp)
   1914e:	83 7d 0c 00          	cmpl   $0x0,0xc(%ebp)
   19152:	75 0a                	jne    1915e <parseArgString+0x1c>
   19154:	b8 ff ff ff ff       	mov    $0xffffffff,%eax
   19159:	e9 85 00 00 00       	jmp    191e3 <parseArgString+0xa1>
   1915e:	8b 45 08             	mov    0x8(%ebp),%eax
   19161:	3b 45 14             	cmp    0x14(%ebp),%eax
   19164:	7c 07                	jl     1916d <parseArgString+0x2b>
   19166:	b8 ff ff ff ff       	mov    $0xffffffff,%eax
   1916b:	eb 76                	jmp    191e3 <parseArgString+0xa1>
   1916d:	8b 45 0c             	mov    0xc(%ebp),%eax
   19170:	89 45 f8             	mov    %eax,-0x8(%ebp)
   19173:	c7 45 fc 00 00 00 00 	movl   $0x0,-0x4(%ebp)
   1917a:	eb 4b                	jmp    191c7 <parseArgString+0x85>
   1917c:	8b 45 fc             	mov    -0x4(%ebp),%eax
   1917f:	8d 14 85 00 00 00 00 	lea    0x0(,%eax,4),%edx
   19186:	8b 45 18             	mov    0x18(%ebp),%eax
   19189:	01 c2                	add    %eax,%edx
   1918b:	8b 45 f8             	mov    -0x8(%ebp),%eax
   1918e:	89 02                	mov    %eax,(%edx)
   19190:	eb 1d                	jmp    191af <parseArgString+0x6d>
   19192:	8b 45 f8             	mov    -0x8(%ebp),%eax
   19195:	0f b6 00             	movzbl (%eax),%eax
   19198:	38 45 ec             	cmp    %al,-0x14(%ebp)
   1919b:	75 0e                	jne    191ab <parseArgString+0x69>
   1919d:	8b 45 f8             	mov    -0x8(%ebp),%eax
   191a0:	8d 50 01             	lea    0x1(%eax),%edx
   191a3:	89 55 f8             	mov    %edx,-0x8(%ebp)
   191a6:	c6 00 00             	movb   $0x0,(%eax)
   191a9:	eb 0e                	jmp    191b9 <parseArgString+0x77>
   191ab:	83 45 f8 01          	addl   $0x1,-0x8(%ebp)
   191af:	8b 45 f8             	mov    -0x8(%ebp),%eax
   191b2:	0f b6 00             	movzbl (%eax),%eax
   191b5:	84 c0                	test   %al,%al
   191b7:	75 d9                	jne    19192 <parseArgString+0x50>
   191b9:	8b 45 f8             	mov    -0x8(%ebp),%eax
   191bc:	0f b6 00             	movzbl (%eax),%eax
   191bf:	84 c0                	test   %al,%al
   191c1:	74 19                	je     191dc <parseArgString+0x9a>
   191c3:	83 45 fc 01          	addl   $0x1,-0x4(%ebp)
   191c7:	8b 45 fc             	mov    -0x4(%ebp),%eax
   191ca:	3b 45 08             	cmp    0x8(%ebp),%eax
   191cd:	7d 0e                	jge    191dd <parseArgString+0x9b>
   191cf:	8b 45 14             	mov    0x14(%ebp),%eax
   191d2:	83 e8 01             	sub    $0x1,%eax
   191d5:	39 45 fc             	cmp    %eax,-0x4(%ebp)
   191d8:	7c a2                	jl     1917c <parseArgString+0x3a>
   191da:	eb 01                	jmp    191dd <parseArgString+0x9b>
   191dc:	90                   	nop
   191dd:	8b 45 fc             	mov    -0x4(%ebp),%eax
   191e0:	83 c0 01             	add    $0x1,%eax
   191e3:	c9                   	leave  
   191e4:	c3                   	ret    

000191e5 <exit>:
   191e5:	b8 00 00 00 00       	mov    $0x0,%eax
   191ea:	cd 80                	int    $0x80
   191ec:	c3                   	ret    

000191ed <spawn>:
   191ed:	b8 01 00 00 00       	mov    $0x1,%eax
   191f2:	cd 80                	int    $0x80
   191f4:	c3                   	ret    

000191f5 <read>:
   191f5:	b8 02 00 00 00       	mov    $0x2,%eax
   191fa:	cd 80                	int    $0x80
   191fc:	c3                   	ret    

000191fd <write>:
   191fd:	b8 03 00 00 00       	mov    $0x3,%eax
   19202:	cd 80                	int    $0x80
   19204:	c3                   	ret    

00019205 <sleep>:
   19205:	b8 04 00 00 00       	mov    $0x4,%eax
   1920a:	cd 80                	int    $0x80
   1920c:	c3                   	ret    

0001920d <kill>:
   1920d:	b8 05 00 00 00       	mov    $0x5,%eax
   19212:	cd 80                	int    $0x80
   19214:	c3                   	ret    

00019215 <waitpid>:
   19215:	b8 06 00 00 00       	mov    $0x6,%eax
   1921a:	cd 80                	int    $0x80
   1921c:	c3                   	ret    

0001921d <ushell>:
   1921d:	b8 07 00 00 00       	mov    $0x7,%eax
   19222:	cd 80                	int    $0x80
   19224:	c3                   	ret    

00019225 <bogus>:
   19225:	b8 ad 0b 00 00       	mov    $0xbad,%eax
   1922a:	cd 80                	int    $0x80
   1922c:	c3                   	ret    

0001922d <fallbackExit>:
   1922d:	68 ad 0b 00 00       	push   $0xbad
   19232:	e8 ae ff ff ff       	call   191e5 <exit>
