
prog.o:     file format elf32-i386


Disassembly of section .text:

00010000 <_start>:
   10000:	fa                   	cli    
   10001:	b0 00                	mov    $0x0,%al
   10003:	e6 70                	out    %al,$0x70
   10005:	31 c0                	xor    %eax,%eax
   10007:	66 b8 18 00          	mov    $0x18,%ax
   1000b:	8e d8                	mov    %eax,%ds
   1000d:	8e c0                	mov    %eax,%es
   1000f:	8e e0                	mov    %eax,%fs
   10011:	8e e8                	mov    %eax,%gs
   10013:	66 b8 20 00          	mov    $0x20,%ax
   10017:	8e d0                	mov    %eax,%ss
   10019:	bd 00 00 01 00       	mov    $0x10000,%ebp
   1001e:	89 ec                	mov    %ebp,%esp
   10020:	bf b0 d5 01 00       	mov    $0x1d5b0,%edi

00010025 <clearbss>:
   10025:	c7 07 00 00 00 00    	movl   $0x0,(%edi)
   1002b:	83 c7 04             	add    $0x4,%edi
   1002e:	81 ff 70 ff 01 00    	cmp    $0x1ff70,%edi
   10034:	72 ef                	jb     10025 <clearbss>
   10036:	e8 2c 26 00 00       	call   12667 <_kinit>
   1003b:	e9 2c 00 00 00       	jmp    1006c <__isr_restore>

00010040 <isr_save>:
   10040:	60                   	pusha  
   10041:	1e                   	push   %ds
   10042:	06                   	push   %es
   10043:	0f a0                	push   %fs
   10045:	0f a8                	push   %gs
   10047:	16                   	push   %ss
   10048:	8b 44 24 34          	mov    0x34(%esp),%eax
   1004c:	8b 5c 24 38          	mov    0x38(%esp),%ebx
   10050:	8b 15 54 ff 01 00    	mov    0x1ff54,%edx
   10056:	89 22                	mov    %esp,(%edx)
   10058:	8b 25 a4 fe 01 00    	mov    0x1fea4,%esp
   1005e:	53                   	push   %ebx
   1005f:	50                   	push   %eax
   10060:	8b 1c 85 80 f3 01 00 	mov    0x1f380(,%eax,4),%ebx
   10067:	ff d3                	call   *%ebx
   10069:	83 c4 08             	add    $0x8,%esp

0001006c <__isr_restore>:
   1006c:	8b 1d 54 ff 01 00    	mov    0x1ff54,%ebx
   10072:	8b 23                	mov    (%ebx),%esp
   10074:	31 c0                	xor    %eax,%eax
   10076:	66 8b 43 16          	mov    0x16(%ebx),%ax
   1007a:	50                   	push   %eax
   1007b:	66 8b 43 14          	mov    0x14(%ebx),%ax
   1007f:	50                   	push   %eax
   10080:	a1 80 f7 01 00       	mov    0x1f780,%eax
   10085:	50                   	push   %eax
   10086:	68 a3 00 01 00       	push   $0x100a3
   1008b:	6a 01                	push   $0x1
   1008d:	6a 00                	push   $0x0
   1008f:	e8 9f 15 00 00       	call   11633 <__cio_printf_at>
   10094:	83 c4 18             	add    $0x18,%esp
   10097:	17                   	pop    %ss
   10098:	0f a9                	pop    %gs
   1009a:	0f a1                	pop    %fs
   1009c:	07                   	pop    %es
   1009d:	1f                   	pop    %ds
   1009e:	61                   	popa   
   1009f:	83 c4 08             	add    $0x8,%esp
   100a2:	cf                   	iret   

000100a3 <fmtall>:
   100a3:	74 69                	je     1010e <fmt+0x50>
   100a5:	6d                   	insl   (%dx),%es:(%edi)
   100a6:	65 20 25 30 38 78 20 	and    %ah,%gs:0x20783830
   100ad:	70 69                	jo     10118 <fmt+0x5a>
   100af:	64 20 25 35 64 20 70 	and    %ah,%fs:0x70206435
   100b6:	70 69                	jo     10121 <fmt+0x63>
   100b8:	64                   	fs
   100b9:	20                   	.byte 0x20
   100ba:	25                   	.byte 0x25
   100bb:	35                   	.byte 0x35
   100bc:	64                   	fs
   100bd:	0a                   	.byte 0xa

000100be <fmt>:
   100be:	20 73 73             	and    %dh,0x73(%ebx)
   100c1:	3d 25 30 38 78       	cmp    $0x78383025,%eax
   100c6:	20 20                	and    %ah,(%eax)
   100c8:	67 73 3d             	addr16 jae 10108 <fmt+0x4a>
   100cb:	25 30 38 78 20       	and    $0x20783830,%eax
   100d0:	20 66 73             	and    %ah,0x73(%esi)
   100d3:	3d 25 30 38 78       	cmp    $0x78383025,%eax
   100d8:	20 20                	and    %ah,(%eax)
   100da:	65 73 3d             	gs jae 1011a <fmt+0x5c>
   100dd:	25 30 38 78 20       	and    $0x20783830,%eax
   100e2:	20 64 73 3d          	and    %ah,0x3d(%ebx,%esi,2)
   100e6:	25 30 38 78 0a       	and    $0xa783830,%eax
   100eb:	65 64 69 3d 25 30 38 	gs imul $0x69736520,%fs:0x78383025,%edi
   100f2:	78 20 65 73 69 
   100f7:	3d 25 30 38 78       	cmp    $0x78383025,%eax
   100fc:	20 65 62             	and    %ah,0x62(%ebp)
   100ff:	70 3d                	jo     1013e <fmt+0x80>
   10101:	25 30 38 78 20       	and    $0x20783830,%eax
   10106:	65 73 70             	gs jae 10179 <__isr_0x02+0x6>
   10109:	3d 25 30 38 78       	cmp    $0x78383025,%eax
   1010e:	20 65 62             	and    %ah,0x62(%ebp)
   10111:	78 3d                	js     10150 <fmt+0x92>
   10113:	25 30 38 78 0a       	and    $0xa783830,%eax
   10118:	65 64 78 3d          	gs fs js 10159 <fmt+0x9b>
   1011c:	25 30 38 78 20       	and    $0x20783830,%eax
   10121:	65 63 78 3d          	arpl   %di,%gs:0x3d(%eax)
   10125:	25 30 38 78 20       	and    $0x20783830,%eax
   1012a:	65 61                	gs popa 
   1012c:	78 3d                	js     1016b <__isr_0x01+0x1>
   1012e:	25 30 38 78 20       	and    $0x20783830,%eax
   10133:	76 65                	jbe    1019a <__isr_0x06+0x3>
   10135:	63 3d 25 30 38 78    	arpl   %di,0x78383025
   1013b:	20 63 6f             	and    %ah,0x6f(%ebx)
   1013e:	64 3d 25 30 38 78    	fs cmp $0x78383025,%eax
   10144:	0a 65 69             	or     0x69(%ebp),%ah
   10147:	70 3d                	jo     10186 <__isr_0x04+0x1>
   10149:	25 30 38 78 20       	and    $0x20783830,%eax
   1014e:	20 63 73             	and    %ah,0x73(%ebx)
   10151:	3d 25 30 38 78       	cmp    $0x78383025,%eax
   10156:	20 65 66             	and    %ah,0x66(%ebp)
   10159:	6c                   	insb   (%dx),%es:(%edi)
   1015a:	3d 25 30 38 78       	cmp    $0x78383025,%eax
   1015f:	0a 00                	or     (%eax),%al

00010161 <__isr_0x00>:
   10161:	6a 00                	push   $0x0
   10163:	6a 00                	push   $0x0
   10165:	e9 d6 fe ff ff       	jmp    10040 <isr_save>

0001016a <__isr_0x01>:
   1016a:	6a 00                	push   $0x0
   1016c:	6a 01                	push   $0x1
   1016e:	e9 cd fe ff ff       	jmp    10040 <isr_save>

00010173 <__isr_0x02>:
   10173:	6a 00                	push   $0x0
   10175:	6a 02                	push   $0x2
   10177:	e9 c4 fe ff ff       	jmp    10040 <isr_save>

0001017c <__isr_0x03>:
   1017c:	6a 00                	push   $0x0
   1017e:	6a 03                	push   $0x3
   10180:	e9 bb fe ff ff       	jmp    10040 <isr_save>

00010185 <__isr_0x04>:
   10185:	6a 00                	push   $0x0
   10187:	6a 04                	push   $0x4
   10189:	e9 b2 fe ff ff       	jmp    10040 <isr_save>

0001018e <__isr_0x05>:
   1018e:	6a 00                	push   $0x0
   10190:	6a 05                	push   $0x5
   10192:	e9 a9 fe ff ff       	jmp    10040 <isr_save>

00010197 <__isr_0x06>:
   10197:	6a 00                	push   $0x0
   10199:	6a 06                	push   $0x6
   1019b:	e9 a0 fe ff ff       	jmp    10040 <isr_save>

000101a0 <__isr_0x07>:
   101a0:	6a 00                	push   $0x0
   101a2:	6a 07                	push   $0x7
   101a4:	e9 97 fe ff ff       	jmp    10040 <isr_save>

000101a9 <__isr_0x08>:
   101a9:	6a 08                	push   $0x8
   101ab:	e9 90 fe ff ff       	jmp    10040 <isr_save>

000101b0 <__isr_0x09>:
   101b0:	6a 00                	push   $0x0
   101b2:	6a 09                	push   $0x9
   101b4:	e9 87 fe ff ff       	jmp    10040 <isr_save>

000101b9 <__isr_0x0a>:
   101b9:	6a 0a                	push   $0xa
   101bb:	e9 80 fe ff ff       	jmp    10040 <isr_save>

000101c0 <__isr_0x0b>:
   101c0:	6a 0b                	push   $0xb
   101c2:	e9 79 fe ff ff       	jmp    10040 <isr_save>

000101c7 <__isr_0x0c>:
   101c7:	6a 0c                	push   $0xc
   101c9:	e9 72 fe ff ff       	jmp    10040 <isr_save>

000101ce <__isr_0x0d>:
   101ce:	6a 0d                	push   $0xd
   101d0:	e9 6b fe ff ff       	jmp    10040 <isr_save>

000101d5 <__isr_0x0e>:
   101d5:	6a 0e                	push   $0xe
   101d7:	e9 64 fe ff ff       	jmp    10040 <isr_save>

000101dc <__isr_0x0f>:
   101dc:	6a 00                	push   $0x0
   101de:	6a 0f                	push   $0xf
   101e0:	e9 5b fe ff ff       	jmp    10040 <isr_save>

000101e5 <__isr_0x10>:
   101e5:	6a 00                	push   $0x0
   101e7:	6a 10                	push   $0x10
   101e9:	e9 52 fe ff ff       	jmp    10040 <isr_save>

000101ee <__isr_0x11>:
   101ee:	6a 11                	push   $0x11
   101f0:	e9 4b fe ff ff       	jmp    10040 <isr_save>

000101f5 <__isr_0x12>:
   101f5:	6a 00                	push   $0x0
   101f7:	6a 12                	push   $0x12
   101f9:	e9 42 fe ff ff       	jmp    10040 <isr_save>

000101fe <__isr_0x13>:
   101fe:	6a 00                	push   $0x0
   10200:	6a 13                	push   $0x13
   10202:	e9 39 fe ff ff       	jmp    10040 <isr_save>

00010207 <__isr_0x14>:
   10207:	6a 00                	push   $0x0
   10209:	6a 14                	push   $0x14
   1020b:	e9 30 fe ff ff       	jmp    10040 <isr_save>

00010210 <__isr_0x15>:
   10210:	6a 00                	push   $0x0
   10212:	6a 15                	push   $0x15
   10214:	e9 27 fe ff ff       	jmp    10040 <isr_save>

00010219 <__isr_0x16>:
   10219:	6a 00                	push   $0x0
   1021b:	6a 16                	push   $0x16
   1021d:	e9 1e fe ff ff       	jmp    10040 <isr_save>

00010222 <__isr_0x17>:
   10222:	6a 00                	push   $0x0
   10224:	6a 17                	push   $0x17
   10226:	e9 15 fe ff ff       	jmp    10040 <isr_save>

0001022b <__isr_0x18>:
   1022b:	6a 00                	push   $0x0
   1022d:	6a 18                	push   $0x18
   1022f:	e9 0c fe ff ff       	jmp    10040 <isr_save>

00010234 <__isr_0x19>:
   10234:	6a 00                	push   $0x0
   10236:	6a 19                	push   $0x19
   10238:	e9 03 fe ff ff       	jmp    10040 <isr_save>

0001023d <__isr_0x1a>:
   1023d:	6a 00                	push   $0x0
   1023f:	6a 1a                	push   $0x1a
   10241:	e9 fa fd ff ff       	jmp    10040 <isr_save>

00010246 <__isr_0x1b>:
   10246:	6a 00                	push   $0x0
   10248:	6a 1b                	push   $0x1b
   1024a:	e9 f1 fd ff ff       	jmp    10040 <isr_save>

0001024f <__isr_0x1c>:
   1024f:	6a 00                	push   $0x0
   10251:	6a 1c                	push   $0x1c
   10253:	e9 e8 fd ff ff       	jmp    10040 <isr_save>

00010258 <__isr_0x1d>:
   10258:	6a 00                	push   $0x0
   1025a:	6a 1d                	push   $0x1d
   1025c:	e9 df fd ff ff       	jmp    10040 <isr_save>

00010261 <__isr_0x1e>:
   10261:	6a 00                	push   $0x0
   10263:	6a 1e                	push   $0x1e
   10265:	e9 d6 fd ff ff       	jmp    10040 <isr_save>

0001026a <__isr_0x1f>:
   1026a:	6a 00                	push   $0x0
   1026c:	6a 1f                	push   $0x1f
   1026e:	e9 cd fd ff ff       	jmp    10040 <isr_save>

00010273 <__isr_0x20>:
   10273:	6a 00                	push   $0x0
   10275:	6a 20                	push   $0x20
   10277:	e9 c4 fd ff ff       	jmp    10040 <isr_save>

0001027c <__isr_0x21>:
   1027c:	6a 00                	push   $0x0
   1027e:	6a 21                	push   $0x21
   10280:	e9 bb fd ff ff       	jmp    10040 <isr_save>

00010285 <__isr_0x22>:
   10285:	6a 00                	push   $0x0
   10287:	6a 22                	push   $0x22
   10289:	e9 b2 fd ff ff       	jmp    10040 <isr_save>

0001028e <__isr_0x23>:
   1028e:	6a 00                	push   $0x0
   10290:	6a 23                	push   $0x23
   10292:	e9 a9 fd ff ff       	jmp    10040 <isr_save>

00010297 <__isr_0x24>:
   10297:	6a 00                	push   $0x0
   10299:	6a 24                	push   $0x24
   1029b:	e9 a0 fd ff ff       	jmp    10040 <isr_save>

000102a0 <__isr_0x25>:
   102a0:	6a 00                	push   $0x0
   102a2:	6a 25                	push   $0x25
   102a4:	e9 97 fd ff ff       	jmp    10040 <isr_save>

000102a9 <__isr_0x26>:
   102a9:	6a 00                	push   $0x0
   102ab:	6a 26                	push   $0x26
   102ad:	e9 8e fd ff ff       	jmp    10040 <isr_save>

000102b2 <__isr_0x27>:
   102b2:	6a 00                	push   $0x0
   102b4:	6a 27                	push   $0x27
   102b6:	e9 85 fd ff ff       	jmp    10040 <isr_save>

000102bb <__isr_0x28>:
   102bb:	6a 00                	push   $0x0
   102bd:	6a 28                	push   $0x28
   102bf:	e9 7c fd ff ff       	jmp    10040 <isr_save>

000102c4 <__isr_0x29>:
   102c4:	6a 00                	push   $0x0
   102c6:	6a 29                	push   $0x29
   102c8:	e9 73 fd ff ff       	jmp    10040 <isr_save>

000102cd <__isr_0x2a>:
   102cd:	6a 00                	push   $0x0
   102cf:	6a 2a                	push   $0x2a
   102d1:	e9 6a fd ff ff       	jmp    10040 <isr_save>

000102d6 <__isr_0x2b>:
   102d6:	6a 00                	push   $0x0
   102d8:	6a 2b                	push   $0x2b
   102da:	e9 61 fd ff ff       	jmp    10040 <isr_save>

000102df <__isr_0x2c>:
   102df:	6a 00                	push   $0x0
   102e1:	6a 2c                	push   $0x2c
   102e3:	e9 58 fd ff ff       	jmp    10040 <isr_save>

000102e8 <__isr_0x2d>:
   102e8:	6a 00                	push   $0x0
   102ea:	6a 2d                	push   $0x2d
   102ec:	e9 4f fd ff ff       	jmp    10040 <isr_save>

000102f1 <__isr_0x2e>:
   102f1:	6a 00                	push   $0x0
   102f3:	6a 2e                	push   $0x2e
   102f5:	e9 46 fd ff ff       	jmp    10040 <isr_save>

000102fa <__isr_0x2f>:
   102fa:	6a 00                	push   $0x0
   102fc:	6a 2f                	push   $0x2f
   102fe:	e9 3d fd ff ff       	jmp    10040 <isr_save>

00010303 <__isr_0x30>:
   10303:	6a 00                	push   $0x0
   10305:	6a 30                	push   $0x30
   10307:	e9 34 fd ff ff       	jmp    10040 <isr_save>

0001030c <__isr_0x31>:
   1030c:	6a 00                	push   $0x0
   1030e:	6a 31                	push   $0x31
   10310:	e9 2b fd ff ff       	jmp    10040 <isr_save>

00010315 <__isr_0x32>:
   10315:	6a 00                	push   $0x0
   10317:	6a 32                	push   $0x32
   10319:	e9 22 fd ff ff       	jmp    10040 <isr_save>

0001031e <__isr_0x33>:
   1031e:	6a 00                	push   $0x0
   10320:	6a 33                	push   $0x33
   10322:	e9 19 fd ff ff       	jmp    10040 <isr_save>

00010327 <__isr_0x34>:
   10327:	6a 00                	push   $0x0
   10329:	6a 34                	push   $0x34
   1032b:	e9 10 fd ff ff       	jmp    10040 <isr_save>

00010330 <__isr_0x35>:
   10330:	6a 00                	push   $0x0
   10332:	6a 35                	push   $0x35
   10334:	e9 07 fd ff ff       	jmp    10040 <isr_save>

00010339 <__isr_0x36>:
   10339:	6a 00                	push   $0x0
   1033b:	6a 36                	push   $0x36
   1033d:	e9 fe fc ff ff       	jmp    10040 <isr_save>

00010342 <__isr_0x37>:
   10342:	6a 00                	push   $0x0
   10344:	6a 37                	push   $0x37
   10346:	e9 f5 fc ff ff       	jmp    10040 <isr_save>

0001034b <__isr_0x38>:
   1034b:	6a 00                	push   $0x0
   1034d:	6a 38                	push   $0x38
   1034f:	e9 ec fc ff ff       	jmp    10040 <isr_save>

00010354 <__isr_0x39>:
   10354:	6a 00                	push   $0x0
   10356:	6a 39                	push   $0x39
   10358:	e9 e3 fc ff ff       	jmp    10040 <isr_save>

0001035d <__isr_0x3a>:
   1035d:	6a 00                	push   $0x0
   1035f:	6a 3a                	push   $0x3a
   10361:	e9 da fc ff ff       	jmp    10040 <isr_save>

00010366 <__isr_0x3b>:
   10366:	6a 00                	push   $0x0
   10368:	6a 3b                	push   $0x3b
   1036a:	e9 d1 fc ff ff       	jmp    10040 <isr_save>

0001036f <__isr_0x3c>:
   1036f:	6a 00                	push   $0x0
   10371:	6a 3c                	push   $0x3c
   10373:	e9 c8 fc ff ff       	jmp    10040 <isr_save>

00010378 <__isr_0x3d>:
   10378:	6a 00                	push   $0x0
   1037a:	6a 3d                	push   $0x3d
   1037c:	e9 bf fc ff ff       	jmp    10040 <isr_save>

00010381 <__isr_0x3e>:
   10381:	6a 00                	push   $0x0
   10383:	6a 3e                	push   $0x3e
   10385:	e9 b6 fc ff ff       	jmp    10040 <isr_save>

0001038a <__isr_0x3f>:
   1038a:	6a 00                	push   $0x0
   1038c:	6a 3f                	push   $0x3f
   1038e:	e9 ad fc ff ff       	jmp    10040 <isr_save>

00010393 <__isr_0x40>:
   10393:	6a 00                	push   $0x0
   10395:	6a 40                	push   $0x40
   10397:	e9 a4 fc ff ff       	jmp    10040 <isr_save>

0001039c <__isr_0x41>:
   1039c:	6a 00                	push   $0x0
   1039e:	6a 41                	push   $0x41
   103a0:	e9 9b fc ff ff       	jmp    10040 <isr_save>

000103a5 <__isr_0x42>:
   103a5:	6a 00                	push   $0x0
   103a7:	6a 42                	push   $0x42
   103a9:	e9 92 fc ff ff       	jmp    10040 <isr_save>

000103ae <__isr_0x43>:
   103ae:	6a 00                	push   $0x0
   103b0:	6a 43                	push   $0x43
   103b2:	e9 89 fc ff ff       	jmp    10040 <isr_save>

000103b7 <__isr_0x44>:
   103b7:	6a 00                	push   $0x0
   103b9:	6a 44                	push   $0x44
   103bb:	e9 80 fc ff ff       	jmp    10040 <isr_save>

000103c0 <__isr_0x45>:
   103c0:	6a 00                	push   $0x0
   103c2:	6a 45                	push   $0x45
   103c4:	e9 77 fc ff ff       	jmp    10040 <isr_save>

000103c9 <__isr_0x46>:
   103c9:	6a 00                	push   $0x0
   103cb:	6a 46                	push   $0x46
   103cd:	e9 6e fc ff ff       	jmp    10040 <isr_save>

000103d2 <__isr_0x47>:
   103d2:	6a 00                	push   $0x0
   103d4:	6a 47                	push   $0x47
   103d6:	e9 65 fc ff ff       	jmp    10040 <isr_save>

000103db <__isr_0x48>:
   103db:	6a 00                	push   $0x0
   103dd:	6a 48                	push   $0x48
   103df:	e9 5c fc ff ff       	jmp    10040 <isr_save>

000103e4 <__isr_0x49>:
   103e4:	6a 00                	push   $0x0
   103e6:	6a 49                	push   $0x49
   103e8:	e9 53 fc ff ff       	jmp    10040 <isr_save>

000103ed <__isr_0x4a>:
   103ed:	6a 00                	push   $0x0
   103ef:	6a 4a                	push   $0x4a
   103f1:	e9 4a fc ff ff       	jmp    10040 <isr_save>

000103f6 <__isr_0x4b>:
   103f6:	6a 00                	push   $0x0
   103f8:	6a 4b                	push   $0x4b
   103fa:	e9 41 fc ff ff       	jmp    10040 <isr_save>

000103ff <__isr_0x4c>:
   103ff:	6a 00                	push   $0x0
   10401:	6a 4c                	push   $0x4c
   10403:	e9 38 fc ff ff       	jmp    10040 <isr_save>

00010408 <__isr_0x4d>:
   10408:	6a 00                	push   $0x0
   1040a:	6a 4d                	push   $0x4d
   1040c:	e9 2f fc ff ff       	jmp    10040 <isr_save>

00010411 <__isr_0x4e>:
   10411:	6a 00                	push   $0x0
   10413:	6a 4e                	push   $0x4e
   10415:	e9 26 fc ff ff       	jmp    10040 <isr_save>

0001041a <__isr_0x4f>:
   1041a:	6a 00                	push   $0x0
   1041c:	6a 4f                	push   $0x4f
   1041e:	e9 1d fc ff ff       	jmp    10040 <isr_save>

00010423 <__isr_0x50>:
   10423:	6a 00                	push   $0x0
   10425:	6a 50                	push   $0x50
   10427:	e9 14 fc ff ff       	jmp    10040 <isr_save>

0001042c <__isr_0x51>:
   1042c:	6a 00                	push   $0x0
   1042e:	6a 51                	push   $0x51
   10430:	e9 0b fc ff ff       	jmp    10040 <isr_save>

00010435 <__isr_0x52>:
   10435:	6a 00                	push   $0x0
   10437:	6a 52                	push   $0x52
   10439:	e9 02 fc ff ff       	jmp    10040 <isr_save>

0001043e <__isr_0x53>:
   1043e:	6a 00                	push   $0x0
   10440:	6a 53                	push   $0x53
   10442:	e9 f9 fb ff ff       	jmp    10040 <isr_save>

00010447 <__isr_0x54>:
   10447:	6a 00                	push   $0x0
   10449:	6a 54                	push   $0x54
   1044b:	e9 f0 fb ff ff       	jmp    10040 <isr_save>

00010450 <__isr_0x55>:
   10450:	6a 00                	push   $0x0
   10452:	6a 55                	push   $0x55
   10454:	e9 e7 fb ff ff       	jmp    10040 <isr_save>

00010459 <__isr_0x56>:
   10459:	6a 00                	push   $0x0
   1045b:	6a 56                	push   $0x56
   1045d:	e9 de fb ff ff       	jmp    10040 <isr_save>

00010462 <__isr_0x57>:
   10462:	6a 00                	push   $0x0
   10464:	6a 57                	push   $0x57
   10466:	e9 d5 fb ff ff       	jmp    10040 <isr_save>

0001046b <__isr_0x58>:
   1046b:	6a 00                	push   $0x0
   1046d:	6a 58                	push   $0x58
   1046f:	e9 cc fb ff ff       	jmp    10040 <isr_save>

00010474 <__isr_0x59>:
   10474:	6a 00                	push   $0x0
   10476:	6a 59                	push   $0x59
   10478:	e9 c3 fb ff ff       	jmp    10040 <isr_save>

0001047d <__isr_0x5a>:
   1047d:	6a 00                	push   $0x0
   1047f:	6a 5a                	push   $0x5a
   10481:	e9 ba fb ff ff       	jmp    10040 <isr_save>

00010486 <__isr_0x5b>:
   10486:	6a 00                	push   $0x0
   10488:	6a 5b                	push   $0x5b
   1048a:	e9 b1 fb ff ff       	jmp    10040 <isr_save>

0001048f <__isr_0x5c>:
   1048f:	6a 00                	push   $0x0
   10491:	6a 5c                	push   $0x5c
   10493:	e9 a8 fb ff ff       	jmp    10040 <isr_save>

00010498 <__isr_0x5d>:
   10498:	6a 00                	push   $0x0
   1049a:	6a 5d                	push   $0x5d
   1049c:	e9 9f fb ff ff       	jmp    10040 <isr_save>

000104a1 <__isr_0x5e>:
   104a1:	6a 00                	push   $0x0
   104a3:	6a 5e                	push   $0x5e
   104a5:	e9 96 fb ff ff       	jmp    10040 <isr_save>

000104aa <__isr_0x5f>:
   104aa:	6a 00                	push   $0x0
   104ac:	6a 5f                	push   $0x5f
   104ae:	e9 8d fb ff ff       	jmp    10040 <isr_save>

000104b3 <__isr_0x60>:
   104b3:	6a 00                	push   $0x0
   104b5:	6a 60                	push   $0x60
   104b7:	e9 84 fb ff ff       	jmp    10040 <isr_save>

000104bc <__isr_0x61>:
   104bc:	6a 00                	push   $0x0
   104be:	6a 61                	push   $0x61
   104c0:	e9 7b fb ff ff       	jmp    10040 <isr_save>

000104c5 <__isr_0x62>:
   104c5:	6a 00                	push   $0x0
   104c7:	6a 62                	push   $0x62
   104c9:	e9 72 fb ff ff       	jmp    10040 <isr_save>

000104ce <__isr_0x63>:
   104ce:	6a 00                	push   $0x0
   104d0:	6a 63                	push   $0x63
   104d2:	e9 69 fb ff ff       	jmp    10040 <isr_save>

000104d7 <__isr_0x64>:
   104d7:	6a 00                	push   $0x0
   104d9:	6a 64                	push   $0x64
   104db:	e9 60 fb ff ff       	jmp    10040 <isr_save>

000104e0 <__isr_0x65>:
   104e0:	6a 00                	push   $0x0
   104e2:	6a 65                	push   $0x65
   104e4:	e9 57 fb ff ff       	jmp    10040 <isr_save>

000104e9 <__isr_0x66>:
   104e9:	6a 00                	push   $0x0
   104eb:	6a 66                	push   $0x66
   104ed:	e9 4e fb ff ff       	jmp    10040 <isr_save>

000104f2 <__isr_0x67>:
   104f2:	6a 00                	push   $0x0
   104f4:	6a 67                	push   $0x67
   104f6:	e9 45 fb ff ff       	jmp    10040 <isr_save>

000104fb <__isr_0x68>:
   104fb:	6a 00                	push   $0x0
   104fd:	6a 68                	push   $0x68
   104ff:	e9 3c fb ff ff       	jmp    10040 <isr_save>

00010504 <__isr_0x69>:
   10504:	6a 00                	push   $0x0
   10506:	6a 69                	push   $0x69
   10508:	e9 33 fb ff ff       	jmp    10040 <isr_save>

0001050d <__isr_0x6a>:
   1050d:	6a 00                	push   $0x0
   1050f:	6a 6a                	push   $0x6a
   10511:	e9 2a fb ff ff       	jmp    10040 <isr_save>

00010516 <__isr_0x6b>:
   10516:	6a 00                	push   $0x0
   10518:	6a 6b                	push   $0x6b
   1051a:	e9 21 fb ff ff       	jmp    10040 <isr_save>

0001051f <__isr_0x6c>:
   1051f:	6a 00                	push   $0x0
   10521:	6a 6c                	push   $0x6c
   10523:	e9 18 fb ff ff       	jmp    10040 <isr_save>

00010528 <__isr_0x6d>:
   10528:	6a 00                	push   $0x0
   1052a:	6a 6d                	push   $0x6d
   1052c:	e9 0f fb ff ff       	jmp    10040 <isr_save>

00010531 <__isr_0x6e>:
   10531:	6a 00                	push   $0x0
   10533:	6a 6e                	push   $0x6e
   10535:	e9 06 fb ff ff       	jmp    10040 <isr_save>

0001053a <__isr_0x6f>:
   1053a:	6a 00                	push   $0x0
   1053c:	6a 6f                	push   $0x6f
   1053e:	e9 fd fa ff ff       	jmp    10040 <isr_save>

00010543 <__isr_0x70>:
   10543:	6a 00                	push   $0x0
   10545:	6a 70                	push   $0x70
   10547:	e9 f4 fa ff ff       	jmp    10040 <isr_save>

0001054c <__isr_0x71>:
   1054c:	6a 00                	push   $0x0
   1054e:	6a 71                	push   $0x71
   10550:	e9 eb fa ff ff       	jmp    10040 <isr_save>

00010555 <__isr_0x72>:
   10555:	6a 00                	push   $0x0
   10557:	6a 72                	push   $0x72
   10559:	e9 e2 fa ff ff       	jmp    10040 <isr_save>

0001055e <__isr_0x73>:
   1055e:	6a 00                	push   $0x0
   10560:	6a 73                	push   $0x73
   10562:	e9 d9 fa ff ff       	jmp    10040 <isr_save>

00010567 <__isr_0x74>:
   10567:	6a 00                	push   $0x0
   10569:	6a 74                	push   $0x74
   1056b:	e9 d0 fa ff ff       	jmp    10040 <isr_save>

00010570 <__isr_0x75>:
   10570:	6a 00                	push   $0x0
   10572:	6a 75                	push   $0x75
   10574:	e9 c7 fa ff ff       	jmp    10040 <isr_save>

00010579 <__isr_0x76>:
   10579:	6a 00                	push   $0x0
   1057b:	6a 76                	push   $0x76
   1057d:	e9 be fa ff ff       	jmp    10040 <isr_save>

00010582 <__isr_0x77>:
   10582:	6a 00                	push   $0x0
   10584:	6a 77                	push   $0x77
   10586:	e9 b5 fa ff ff       	jmp    10040 <isr_save>

0001058b <__isr_0x78>:
   1058b:	6a 00                	push   $0x0
   1058d:	6a 78                	push   $0x78
   1058f:	e9 ac fa ff ff       	jmp    10040 <isr_save>

00010594 <__isr_0x79>:
   10594:	6a 00                	push   $0x0
   10596:	6a 79                	push   $0x79
   10598:	e9 a3 fa ff ff       	jmp    10040 <isr_save>

0001059d <__isr_0x7a>:
   1059d:	6a 00                	push   $0x0
   1059f:	6a 7a                	push   $0x7a
   105a1:	e9 9a fa ff ff       	jmp    10040 <isr_save>

000105a6 <__isr_0x7b>:
   105a6:	6a 00                	push   $0x0
   105a8:	6a 7b                	push   $0x7b
   105aa:	e9 91 fa ff ff       	jmp    10040 <isr_save>

000105af <__isr_0x7c>:
   105af:	6a 00                	push   $0x0
   105b1:	6a 7c                	push   $0x7c
   105b3:	e9 88 fa ff ff       	jmp    10040 <isr_save>

000105b8 <__isr_0x7d>:
   105b8:	6a 00                	push   $0x0
   105ba:	6a 7d                	push   $0x7d
   105bc:	e9 7f fa ff ff       	jmp    10040 <isr_save>

000105c1 <__isr_0x7e>:
   105c1:	6a 00                	push   $0x0
   105c3:	6a 7e                	push   $0x7e
   105c5:	e9 76 fa ff ff       	jmp    10040 <isr_save>

000105ca <__isr_0x7f>:
   105ca:	6a 00                	push   $0x0
   105cc:	6a 7f                	push   $0x7f
   105ce:	e9 6d fa ff ff       	jmp    10040 <isr_save>

000105d3 <__isr_0x80>:
   105d3:	6a 00                	push   $0x0
   105d5:	68 80 00 00 00       	push   $0x80
   105da:	e9 61 fa ff ff       	jmp    10040 <isr_save>

000105df <__isr_0x81>:
   105df:	6a 00                	push   $0x0
   105e1:	68 81 00 00 00       	push   $0x81
   105e6:	e9 55 fa ff ff       	jmp    10040 <isr_save>

000105eb <__isr_0x82>:
   105eb:	6a 00                	push   $0x0
   105ed:	68 82 00 00 00       	push   $0x82
   105f2:	e9 49 fa ff ff       	jmp    10040 <isr_save>

000105f7 <__isr_0x83>:
   105f7:	6a 00                	push   $0x0
   105f9:	68 83 00 00 00       	push   $0x83
   105fe:	e9 3d fa ff ff       	jmp    10040 <isr_save>

00010603 <__isr_0x84>:
   10603:	6a 00                	push   $0x0
   10605:	68 84 00 00 00       	push   $0x84
   1060a:	e9 31 fa ff ff       	jmp    10040 <isr_save>

0001060f <__isr_0x85>:
   1060f:	6a 00                	push   $0x0
   10611:	68 85 00 00 00       	push   $0x85
   10616:	e9 25 fa ff ff       	jmp    10040 <isr_save>

0001061b <__isr_0x86>:
   1061b:	6a 00                	push   $0x0
   1061d:	68 86 00 00 00       	push   $0x86
   10622:	e9 19 fa ff ff       	jmp    10040 <isr_save>

00010627 <__isr_0x87>:
   10627:	6a 00                	push   $0x0
   10629:	68 87 00 00 00       	push   $0x87
   1062e:	e9 0d fa ff ff       	jmp    10040 <isr_save>

00010633 <__isr_0x88>:
   10633:	6a 00                	push   $0x0
   10635:	68 88 00 00 00       	push   $0x88
   1063a:	e9 01 fa ff ff       	jmp    10040 <isr_save>

0001063f <__isr_0x89>:
   1063f:	6a 00                	push   $0x0
   10641:	68 89 00 00 00       	push   $0x89
   10646:	e9 f5 f9 ff ff       	jmp    10040 <isr_save>

0001064b <__isr_0x8a>:
   1064b:	6a 00                	push   $0x0
   1064d:	68 8a 00 00 00       	push   $0x8a
   10652:	e9 e9 f9 ff ff       	jmp    10040 <isr_save>

00010657 <__isr_0x8b>:
   10657:	6a 00                	push   $0x0
   10659:	68 8b 00 00 00       	push   $0x8b
   1065e:	e9 dd f9 ff ff       	jmp    10040 <isr_save>

00010663 <__isr_0x8c>:
   10663:	6a 00                	push   $0x0
   10665:	68 8c 00 00 00       	push   $0x8c
   1066a:	e9 d1 f9 ff ff       	jmp    10040 <isr_save>

0001066f <__isr_0x8d>:
   1066f:	6a 00                	push   $0x0
   10671:	68 8d 00 00 00       	push   $0x8d
   10676:	e9 c5 f9 ff ff       	jmp    10040 <isr_save>

0001067b <__isr_0x8e>:
   1067b:	6a 00                	push   $0x0
   1067d:	68 8e 00 00 00       	push   $0x8e
   10682:	e9 b9 f9 ff ff       	jmp    10040 <isr_save>

00010687 <__isr_0x8f>:
   10687:	6a 00                	push   $0x0
   10689:	68 8f 00 00 00       	push   $0x8f
   1068e:	e9 ad f9 ff ff       	jmp    10040 <isr_save>

00010693 <__isr_0x90>:
   10693:	6a 00                	push   $0x0
   10695:	68 90 00 00 00       	push   $0x90
   1069a:	e9 a1 f9 ff ff       	jmp    10040 <isr_save>

0001069f <__isr_0x91>:
   1069f:	6a 00                	push   $0x0
   106a1:	68 91 00 00 00       	push   $0x91
   106a6:	e9 95 f9 ff ff       	jmp    10040 <isr_save>

000106ab <__isr_0x92>:
   106ab:	6a 00                	push   $0x0
   106ad:	68 92 00 00 00       	push   $0x92
   106b2:	e9 89 f9 ff ff       	jmp    10040 <isr_save>

000106b7 <__isr_0x93>:
   106b7:	6a 00                	push   $0x0
   106b9:	68 93 00 00 00       	push   $0x93
   106be:	e9 7d f9 ff ff       	jmp    10040 <isr_save>

000106c3 <__isr_0x94>:
   106c3:	6a 00                	push   $0x0
   106c5:	68 94 00 00 00       	push   $0x94
   106ca:	e9 71 f9 ff ff       	jmp    10040 <isr_save>

000106cf <__isr_0x95>:
   106cf:	6a 00                	push   $0x0
   106d1:	68 95 00 00 00       	push   $0x95
   106d6:	e9 65 f9 ff ff       	jmp    10040 <isr_save>

000106db <__isr_0x96>:
   106db:	6a 00                	push   $0x0
   106dd:	68 96 00 00 00       	push   $0x96
   106e2:	e9 59 f9 ff ff       	jmp    10040 <isr_save>

000106e7 <__isr_0x97>:
   106e7:	6a 00                	push   $0x0
   106e9:	68 97 00 00 00       	push   $0x97
   106ee:	e9 4d f9 ff ff       	jmp    10040 <isr_save>

000106f3 <__isr_0x98>:
   106f3:	6a 00                	push   $0x0
   106f5:	68 98 00 00 00       	push   $0x98
   106fa:	e9 41 f9 ff ff       	jmp    10040 <isr_save>

000106ff <__isr_0x99>:
   106ff:	6a 00                	push   $0x0
   10701:	68 99 00 00 00       	push   $0x99
   10706:	e9 35 f9 ff ff       	jmp    10040 <isr_save>

0001070b <__isr_0x9a>:
   1070b:	6a 00                	push   $0x0
   1070d:	68 9a 00 00 00       	push   $0x9a
   10712:	e9 29 f9 ff ff       	jmp    10040 <isr_save>

00010717 <__isr_0x9b>:
   10717:	6a 00                	push   $0x0
   10719:	68 9b 00 00 00       	push   $0x9b
   1071e:	e9 1d f9 ff ff       	jmp    10040 <isr_save>

00010723 <__isr_0x9c>:
   10723:	6a 00                	push   $0x0
   10725:	68 9c 00 00 00       	push   $0x9c
   1072a:	e9 11 f9 ff ff       	jmp    10040 <isr_save>

0001072f <__isr_0x9d>:
   1072f:	6a 00                	push   $0x0
   10731:	68 9d 00 00 00       	push   $0x9d
   10736:	e9 05 f9 ff ff       	jmp    10040 <isr_save>

0001073b <__isr_0x9e>:
   1073b:	6a 00                	push   $0x0
   1073d:	68 9e 00 00 00       	push   $0x9e
   10742:	e9 f9 f8 ff ff       	jmp    10040 <isr_save>

00010747 <__isr_0x9f>:
   10747:	6a 00                	push   $0x0
   10749:	68 9f 00 00 00       	push   $0x9f
   1074e:	e9 ed f8 ff ff       	jmp    10040 <isr_save>

00010753 <__isr_0xa0>:
   10753:	6a 00                	push   $0x0
   10755:	68 a0 00 00 00       	push   $0xa0
   1075a:	e9 e1 f8 ff ff       	jmp    10040 <isr_save>

0001075f <__isr_0xa1>:
   1075f:	6a 00                	push   $0x0
   10761:	68 a1 00 00 00       	push   $0xa1
   10766:	e9 d5 f8 ff ff       	jmp    10040 <isr_save>

0001076b <__isr_0xa2>:
   1076b:	6a 00                	push   $0x0
   1076d:	68 a2 00 00 00       	push   $0xa2
   10772:	e9 c9 f8 ff ff       	jmp    10040 <isr_save>

00010777 <__isr_0xa3>:
   10777:	6a 00                	push   $0x0
   10779:	68 a3 00 00 00       	push   $0xa3
   1077e:	e9 bd f8 ff ff       	jmp    10040 <isr_save>

00010783 <__isr_0xa4>:
   10783:	6a 00                	push   $0x0
   10785:	68 a4 00 00 00       	push   $0xa4
   1078a:	e9 b1 f8 ff ff       	jmp    10040 <isr_save>

0001078f <__isr_0xa5>:
   1078f:	6a 00                	push   $0x0
   10791:	68 a5 00 00 00       	push   $0xa5
   10796:	e9 a5 f8 ff ff       	jmp    10040 <isr_save>

0001079b <__isr_0xa6>:
   1079b:	6a 00                	push   $0x0
   1079d:	68 a6 00 00 00       	push   $0xa6
   107a2:	e9 99 f8 ff ff       	jmp    10040 <isr_save>

000107a7 <__isr_0xa7>:
   107a7:	6a 00                	push   $0x0
   107a9:	68 a7 00 00 00       	push   $0xa7
   107ae:	e9 8d f8 ff ff       	jmp    10040 <isr_save>

000107b3 <__isr_0xa8>:
   107b3:	6a 00                	push   $0x0
   107b5:	68 a8 00 00 00       	push   $0xa8
   107ba:	e9 81 f8 ff ff       	jmp    10040 <isr_save>

000107bf <__isr_0xa9>:
   107bf:	6a 00                	push   $0x0
   107c1:	68 a9 00 00 00       	push   $0xa9
   107c6:	e9 75 f8 ff ff       	jmp    10040 <isr_save>

000107cb <__isr_0xaa>:
   107cb:	6a 00                	push   $0x0
   107cd:	68 aa 00 00 00       	push   $0xaa
   107d2:	e9 69 f8 ff ff       	jmp    10040 <isr_save>

000107d7 <__isr_0xab>:
   107d7:	6a 00                	push   $0x0
   107d9:	68 ab 00 00 00       	push   $0xab
   107de:	e9 5d f8 ff ff       	jmp    10040 <isr_save>

000107e3 <__isr_0xac>:
   107e3:	6a 00                	push   $0x0
   107e5:	68 ac 00 00 00       	push   $0xac
   107ea:	e9 51 f8 ff ff       	jmp    10040 <isr_save>

000107ef <__isr_0xad>:
   107ef:	6a 00                	push   $0x0
   107f1:	68 ad 00 00 00       	push   $0xad
   107f6:	e9 45 f8 ff ff       	jmp    10040 <isr_save>

000107fb <__isr_0xae>:
   107fb:	6a 00                	push   $0x0
   107fd:	68 ae 00 00 00       	push   $0xae
   10802:	e9 39 f8 ff ff       	jmp    10040 <isr_save>

00010807 <__isr_0xaf>:
   10807:	6a 00                	push   $0x0
   10809:	68 af 00 00 00       	push   $0xaf
   1080e:	e9 2d f8 ff ff       	jmp    10040 <isr_save>

00010813 <__isr_0xb0>:
   10813:	6a 00                	push   $0x0
   10815:	68 b0 00 00 00       	push   $0xb0
   1081a:	e9 21 f8 ff ff       	jmp    10040 <isr_save>

0001081f <__isr_0xb1>:
   1081f:	6a 00                	push   $0x0
   10821:	68 b1 00 00 00       	push   $0xb1
   10826:	e9 15 f8 ff ff       	jmp    10040 <isr_save>

0001082b <__isr_0xb2>:
   1082b:	6a 00                	push   $0x0
   1082d:	68 b2 00 00 00       	push   $0xb2
   10832:	e9 09 f8 ff ff       	jmp    10040 <isr_save>

00010837 <__isr_0xb3>:
   10837:	6a 00                	push   $0x0
   10839:	68 b3 00 00 00       	push   $0xb3
   1083e:	e9 fd f7 ff ff       	jmp    10040 <isr_save>

00010843 <__isr_0xb4>:
   10843:	6a 00                	push   $0x0
   10845:	68 b4 00 00 00       	push   $0xb4
   1084a:	e9 f1 f7 ff ff       	jmp    10040 <isr_save>

0001084f <__isr_0xb5>:
   1084f:	6a 00                	push   $0x0
   10851:	68 b5 00 00 00       	push   $0xb5
   10856:	e9 e5 f7 ff ff       	jmp    10040 <isr_save>

0001085b <__isr_0xb6>:
   1085b:	6a 00                	push   $0x0
   1085d:	68 b6 00 00 00       	push   $0xb6
   10862:	e9 d9 f7 ff ff       	jmp    10040 <isr_save>

00010867 <__isr_0xb7>:
   10867:	6a 00                	push   $0x0
   10869:	68 b7 00 00 00       	push   $0xb7
   1086e:	e9 cd f7 ff ff       	jmp    10040 <isr_save>

00010873 <__isr_0xb8>:
   10873:	6a 00                	push   $0x0
   10875:	68 b8 00 00 00       	push   $0xb8
   1087a:	e9 c1 f7 ff ff       	jmp    10040 <isr_save>

0001087f <__isr_0xb9>:
   1087f:	6a 00                	push   $0x0
   10881:	68 b9 00 00 00       	push   $0xb9
   10886:	e9 b5 f7 ff ff       	jmp    10040 <isr_save>

0001088b <__isr_0xba>:
   1088b:	6a 00                	push   $0x0
   1088d:	68 ba 00 00 00       	push   $0xba
   10892:	e9 a9 f7 ff ff       	jmp    10040 <isr_save>

00010897 <__isr_0xbb>:
   10897:	6a 00                	push   $0x0
   10899:	68 bb 00 00 00       	push   $0xbb
   1089e:	e9 9d f7 ff ff       	jmp    10040 <isr_save>

000108a3 <__isr_0xbc>:
   108a3:	6a 00                	push   $0x0
   108a5:	68 bc 00 00 00       	push   $0xbc
   108aa:	e9 91 f7 ff ff       	jmp    10040 <isr_save>

000108af <__isr_0xbd>:
   108af:	6a 00                	push   $0x0
   108b1:	68 bd 00 00 00       	push   $0xbd
   108b6:	e9 85 f7 ff ff       	jmp    10040 <isr_save>

000108bb <__isr_0xbe>:
   108bb:	6a 00                	push   $0x0
   108bd:	68 be 00 00 00       	push   $0xbe
   108c2:	e9 79 f7 ff ff       	jmp    10040 <isr_save>

000108c7 <__isr_0xbf>:
   108c7:	6a 00                	push   $0x0
   108c9:	68 bf 00 00 00       	push   $0xbf
   108ce:	e9 6d f7 ff ff       	jmp    10040 <isr_save>

000108d3 <__isr_0xc0>:
   108d3:	6a 00                	push   $0x0
   108d5:	68 c0 00 00 00       	push   $0xc0
   108da:	e9 61 f7 ff ff       	jmp    10040 <isr_save>

000108df <__isr_0xc1>:
   108df:	6a 00                	push   $0x0
   108e1:	68 c1 00 00 00       	push   $0xc1
   108e6:	e9 55 f7 ff ff       	jmp    10040 <isr_save>

000108eb <__isr_0xc2>:
   108eb:	6a 00                	push   $0x0
   108ed:	68 c2 00 00 00       	push   $0xc2
   108f2:	e9 49 f7 ff ff       	jmp    10040 <isr_save>

000108f7 <__isr_0xc3>:
   108f7:	6a 00                	push   $0x0
   108f9:	68 c3 00 00 00       	push   $0xc3
   108fe:	e9 3d f7 ff ff       	jmp    10040 <isr_save>

00010903 <__isr_0xc4>:
   10903:	6a 00                	push   $0x0
   10905:	68 c4 00 00 00       	push   $0xc4
   1090a:	e9 31 f7 ff ff       	jmp    10040 <isr_save>

0001090f <__isr_0xc5>:
   1090f:	6a 00                	push   $0x0
   10911:	68 c5 00 00 00       	push   $0xc5
   10916:	e9 25 f7 ff ff       	jmp    10040 <isr_save>

0001091b <__isr_0xc6>:
   1091b:	6a 00                	push   $0x0
   1091d:	68 c6 00 00 00       	push   $0xc6
   10922:	e9 19 f7 ff ff       	jmp    10040 <isr_save>

00010927 <__isr_0xc7>:
   10927:	6a 00                	push   $0x0
   10929:	68 c7 00 00 00       	push   $0xc7
   1092e:	e9 0d f7 ff ff       	jmp    10040 <isr_save>

00010933 <__isr_0xc8>:
   10933:	6a 00                	push   $0x0
   10935:	68 c8 00 00 00       	push   $0xc8
   1093a:	e9 01 f7 ff ff       	jmp    10040 <isr_save>

0001093f <__isr_0xc9>:
   1093f:	6a 00                	push   $0x0
   10941:	68 c9 00 00 00       	push   $0xc9
   10946:	e9 f5 f6 ff ff       	jmp    10040 <isr_save>

0001094b <__isr_0xca>:
   1094b:	6a 00                	push   $0x0
   1094d:	68 ca 00 00 00       	push   $0xca
   10952:	e9 e9 f6 ff ff       	jmp    10040 <isr_save>

00010957 <__isr_0xcb>:
   10957:	6a 00                	push   $0x0
   10959:	68 cb 00 00 00       	push   $0xcb
   1095e:	e9 dd f6 ff ff       	jmp    10040 <isr_save>

00010963 <__isr_0xcc>:
   10963:	6a 00                	push   $0x0
   10965:	68 cc 00 00 00       	push   $0xcc
   1096a:	e9 d1 f6 ff ff       	jmp    10040 <isr_save>

0001096f <__isr_0xcd>:
   1096f:	6a 00                	push   $0x0
   10971:	68 cd 00 00 00       	push   $0xcd
   10976:	e9 c5 f6 ff ff       	jmp    10040 <isr_save>

0001097b <__isr_0xce>:
   1097b:	6a 00                	push   $0x0
   1097d:	68 ce 00 00 00       	push   $0xce
   10982:	e9 b9 f6 ff ff       	jmp    10040 <isr_save>

00010987 <__isr_0xcf>:
   10987:	6a 00                	push   $0x0
   10989:	68 cf 00 00 00       	push   $0xcf
   1098e:	e9 ad f6 ff ff       	jmp    10040 <isr_save>

00010993 <__isr_0xd0>:
   10993:	6a 00                	push   $0x0
   10995:	68 d0 00 00 00       	push   $0xd0
   1099a:	e9 a1 f6 ff ff       	jmp    10040 <isr_save>

0001099f <__isr_0xd1>:
   1099f:	6a 00                	push   $0x0
   109a1:	68 d1 00 00 00       	push   $0xd1
   109a6:	e9 95 f6 ff ff       	jmp    10040 <isr_save>

000109ab <__isr_0xd2>:
   109ab:	6a 00                	push   $0x0
   109ad:	68 d2 00 00 00       	push   $0xd2
   109b2:	e9 89 f6 ff ff       	jmp    10040 <isr_save>

000109b7 <__isr_0xd3>:
   109b7:	6a 00                	push   $0x0
   109b9:	68 d3 00 00 00       	push   $0xd3
   109be:	e9 7d f6 ff ff       	jmp    10040 <isr_save>

000109c3 <__isr_0xd4>:
   109c3:	6a 00                	push   $0x0
   109c5:	68 d4 00 00 00       	push   $0xd4
   109ca:	e9 71 f6 ff ff       	jmp    10040 <isr_save>

000109cf <__isr_0xd5>:
   109cf:	6a 00                	push   $0x0
   109d1:	68 d5 00 00 00       	push   $0xd5
   109d6:	e9 65 f6 ff ff       	jmp    10040 <isr_save>

000109db <__isr_0xd6>:
   109db:	6a 00                	push   $0x0
   109dd:	68 d6 00 00 00       	push   $0xd6
   109e2:	e9 59 f6 ff ff       	jmp    10040 <isr_save>

000109e7 <__isr_0xd7>:
   109e7:	6a 00                	push   $0x0
   109e9:	68 d7 00 00 00       	push   $0xd7
   109ee:	e9 4d f6 ff ff       	jmp    10040 <isr_save>

000109f3 <__isr_0xd8>:
   109f3:	6a 00                	push   $0x0
   109f5:	68 d8 00 00 00       	push   $0xd8
   109fa:	e9 41 f6 ff ff       	jmp    10040 <isr_save>

000109ff <__isr_0xd9>:
   109ff:	6a 00                	push   $0x0
   10a01:	68 d9 00 00 00       	push   $0xd9
   10a06:	e9 35 f6 ff ff       	jmp    10040 <isr_save>

00010a0b <__isr_0xda>:
   10a0b:	6a 00                	push   $0x0
   10a0d:	68 da 00 00 00       	push   $0xda
   10a12:	e9 29 f6 ff ff       	jmp    10040 <isr_save>

00010a17 <__isr_0xdb>:
   10a17:	6a 00                	push   $0x0
   10a19:	68 db 00 00 00       	push   $0xdb
   10a1e:	e9 1d f6 ff ff       	jmp    10040 <isr_save>

00010a23 <__isr_0xdc>:
   10a23:	6a 00                	push   $0x0
   10a25:	68 dc 00 00 00       	push   $0xdc
   10a2a:	e9 11 f6 ff ff       	jmp    10040 <isr_save>

00010a2f <__isr_0xdd>:
   10a2f:	6a 00                	push   $0x0
   10a31:	68 dd 00 00 00       	push   $0xdd
   10a36:	e9 05 f6 ff ff       	jmp    10040 <isr_save>

00010a3b <__isr_0xde>:
   10a3b:	6a 00                	push   $0x0
   10a3d:	68 de 00 00 00       	push   $0xde
   10a42:	e9 f9 f5 ff ff       	jmp    10040 <isr_save>

00010a47 <__isr_0xdf>:
   10a47:	6a 00                	push   $0x0
   10a49:	68 df 00 00 00       	push   $0xdf
   10a4e:	e9 ed f5 ff ff       	jmp    10040 <isr_save>

00010a53 <__isr_0xe0>:
   10a53:	6a 00                	push   $0x0
   10a55:	68 e0 00 00 00       	push   $0xe0
   10a5a:	e9 e1 f5 ff ff       	jmp    10040 <isr_save>

00010a5f <__isr_0xe1>:
   10a5f:	6a 00                	push   $0x0
   10a61:	68 e1 00 00 00       	push   $0xe1
   10a66:	e9 d5 f5 ff ff       	jmp    10040 <isr_save>

00010a6b <__isr_0xe2>:
   10a6b:	6a 00                	push   $0x0
   10a6d:	68 e2 00 00 00       	push   $0xe2
   10a72:	e9 c9 f5 ff ff       	jmp    10040 <isr_save>

00010a77 <__isr_0xe3>:
   10a77:	6a 00                	push   $0x0
   10a79:	68 e3 00 00 00       	push   $0xe3
   10a7e:	e9 bd f5 ff ff       	jmp    10040 <isr_save>

00010a83 <__isr_0xe4>:
   10a83:	6a 00                	push   $0x0
   10a85:	68 e4 00 00 00       	push   $0xe4
   10a8a:	e9 b1 f5 ff ff       	jmp    10040 <isr_save>

00010a8f <__isr_0xe5>:
   10a8f:	6a 00                	push   $0x0
   10a91:	68 e5 00 00 00       	push   $0xe5
   10a96:	e9 a5 f5 ff ff       	jmp    10040 <isr_save>

00010a9b <__isr_0xe6>:
   10a9b:	6a 00                	push   $0x0
   10a9d:	68 e6 00 00 00       	push   $0xe6
   10aa2:	e9 99 f5 ff ff       	jmp    10040 <isr_save>

00010aa7 <__isr_0xe7>:
   10aa7:	6a 00                	push   $0x0
   10aa9:	68 e7 00 00 00       	push   $0xe7
   10aae:	e9 8d f5 ff ff       	jmp    10040 <isr_save>

00010ab3 <__isr_0xe8>:
   10ab3:	6a 00                	push   $0x0
   10ab5:	68 e8 00 00 00       	push   $0xe8
   10aba:	e9 81 f5 ff ff       	jmp    10040 <isr_save>

00010abf <__isr_0xe9>:
   10abf:	6a 00                	push   $0x0
   10ac1:	68 e9 00 00 00       	push   $0xe9
   10ac6:	e9 75 f5 ff ff       	jmp    10040 <isr_save>

00010acb <__isr_0xea>:
   10acb:	6a 00                	push   $0x0
   10acd:	68 ea 00 00 00       	push   $0xea
   10ad2:	e9 69 f5 ff ff       	jmp    10040 <isr_save>

00010ad7 <__isr_0xeb>:
   10ad7:	6a 00                	push   $0x0
   10ad9:	68 eb 00 00 00       	push   $0xeb
   10ade:	e9 5d f5 ff ff       	jmp    10040 <isr_save>

00010ae3 <__isr_0xec>:
   10ae3:	6a 00                	push   $0x0
   10ae5:	68 ec 00 00 00       	push   $0xec
   10aea:	e9 51 f5 ff ff       	jmp    10040 <isr_save>

00010aef <__isr_0xed>:
   10aef:	6a 00                	push   $0x0
   10af1:	68 ed 00 00 00       	push   $0xed
   10af6:	e9 45 f5 ff ff       	jmp    10040 <isr_save>

00010afb <__isr_0xee>:
   10afb:	6a 00                	push   $0x0
   10afd:	68 ee 00 00 00       	push   $0xee
   10b02:	e9 39 f5 ff ff       	jmp    10040 <isr_save>

00010b07 <__isr_0xef>:
   10b07:	6a 00                	push   $0x0
   10b09:	68 ef 00 00 00       	push   $0xef
   10b0e:	e9 2d f5 ff ff       	jmp    10040 <isr_save>

00010b13 <__isr_0xf0>:
   10b13:	6a 00                	push   $0x0
   10b15:	68 f0 00 00 00       	push   $0xf0
   10b1a:	e9 21 f5 ff ff       	jmp    10040 <isr_save>

00010b1f <__isr_0xf1>:
   10b1f:	6a 00                	push   $0x0
   10b21:	68 f1 00 00 00       	push   $0xf1
   10b26:	e9 15 f5 ff ff       	jmp    10040 <isr_save>

00010b2b <__isr_0xf2>:
   10b2b:	6a 00                	push   $0x0
   10b2d:	68 f2 00 00 00       	push   $0xf2
   10b32:	e9 09 f5 ff ff       	jmp    10040 <isr_save>

00010b37 <__isr_0xf3>:
   10b37:	6a 00                	push   $0x0
   10b39:	68 f3 00 00 00       	push   $0xf3
   10b3e:	e9 fd f4 ff ff       	jmp    10040 <isr_save>

00010b43 <__isr_0xf4>:
   10b43:	6a 00                	push   $0x0
   10b45:	68 f4 00 00 00       	push   $0xf4
   10b4a:	e9 f1 f4 ff ff       	jmp    10040 <isr_save>

00010b4f <__isr_0xf5>:
   10b4f:	6a 00                	push   $0x0
   10b51:	68 f5 00 00 00       	push   $0xf5
   10b56:	e9 e5 f4 ff ff       	jmp    10040 <isr_save>

00010b5b <__isr_0xf6>:
   10b5b:	6a 00                	push   $0x0
   10b5d:	68 f6 00 00 00       	push   $0xf6
   10b62:	e9 d9 f4 ff ff       	jmp    10040 <isr_save>

00010b67 <__isr_0xf7>:
   10b67:	6a 00                	push   $0x0
   10b69:	68 f7 00 00 00       	push   $0xf7
   10b6e:	e9 cd f4 ff ff       	jmp    10040 <isr_save>

00010b73 <__isr_0xf8>:
   10b73:	6a 00                	push   $0x0
   10b75:	68 f8 00 00 00       	push   $0xf8
   10b7a:	e9 c1 f4 ff ff       	jmp    10040 <isr_save>

00010b7f <__isr_0xf9>:
   10b7f:	6a 00                	push   $0x0
   10b81:	68 f9 00 00 00       	push   $0xf9
   10b86:	e9 b5 f4 ff ff       	jmp    10040 <isr_save>

00010b8b <__isr_0xfa>:
   10b8b:	6a 00                	push   $0x0
   10b8d:	68 fa 00 00 00       	push   $0xfa
   10b92:	e9 a9 f4 ff ff       	jmp    10040 <isr_save>

00010b97 <__isr_0xfb>:
   10b97:	6a 00                	push   $0x0
   10b99:	68 fb 00 00 00       	push   $0xfb
   10b9e:	e9 9d f4 ff ff       	jmp    10040 <isr_save>

00010ba3 <__isr_0xfc>:
   10ba3:	6a 00                	push   $0x0
   10ba5:	68 fc 00 00 00       	push   $0xfc
   10baa:	e9 91 f4 ff ff       	jmp    10040 <isr_save>

00010baf <__isr_0xfd>:
   10baf:	6a 00                	push   $0x0
   10bb1:	68 fd 00 00 00       	push   $0xfd
   10bb6:	e9 85 f4 ff ff       	jmp    10040 <isr_save>

00010bbb <__isr_0xfe>:
   10bbb:	6a 00                	push   $0x0
   10bbd:	68 fe 00 00 00       	push   $0xfe
   10bc2:	e9 79 f4 ff ff       	jmp    10040 <isr_save>

00010bc7 <__isr_0xff>:
   10bc7:	6a 00                	push   $0x0
   10bc9:	68 ff 00 00 00       	push   $0xff
   10bce:	e9 6d f4 ff ff       	jmp    10040 <isr_save>

00010bd3 <__inb>:
   10bd3:	c8 00 00 00          	enter  $0x0,$0x0
   10bd7:	31 c0                	xor    %eax,%eax
   10bd9:	8b 55 08             	mov    0x8(%ebp),%edx
   10bdc:	ec                   	in     (%dx),%al
   10bdd:	c9                   	leave  
   10bde:	c3                   	ret    

00010bdf <__inw>:
   10bdf:	c8 00 00 00          	enter  $0x0,$0x0
   10be3:	31 c0                	xor    %eax,%eax
   10be5:	8b 55 08             	mov    0x8(%ebp),%edx
   10be8:	66 ed                	in     (%dx),%ax
   10bea:	c9                   	leave  
   10beb:	c3                   	ret    

00010bec <__inl>:
   10bec:	c8 00 00 00          	enter  $0x0,$0x0
   10bf0:	31 c0                	xor    %eax,%eax
   10bf2:	8b 55 08             	mov    0x8(%ebp),%edx
   10bf5:	ed                   	in     (%dx),%eax
   10bf6:	c9                   	leave  
   10bf7:	c3                   	ret    

00010bf8 <__outb>:
   10bf8:	c8 00 00 00          	enter  $0x0,$0x0
   10bfc:	8b 55 08             	mov    0x8(%ebp),%edx
   10bff:	8b 45 0c             	mov    0xc(%ebp),%eax
   10c02:	ee                   	out    %al,(%dx)
   10c03:	c9                   	leave  
   10c04:	c3                   	ret    

00010c05 <__outw>:
   10c05:	c8 00 00 00          	enter  $0x0,$0x0
   10c09:	8b 55 08             	mov    0x8(%ebp),%edx
   10c0c:	8b 45 0c             	mov    0xc(%ebp),%eax
   10c0f:	66 ef                	out    %ax,(%dx)
   10c11:	c9                   	leave  
   10c12:	c3                   	ret    

00010c13 <__outl>:
   10c13:	c8 00 00 00          	enter  $0x0,$0x0
   10c17:	8b 55 08             	mov    0x8(%ebp),%edx
   10c1a:	8b 45 0c             	mov    0xc(%ebp),%eax
   10c1d:	ef                   	out    %eax,(%dx)
   10c1e:	c9                   	leave  
   10c1f:	c3                   	ret    

00010c20 <__get_flags>:
   10c20:	9c                   	pushf  
   10c21:	58                   	pop    %eax
   10c22:	c3                   	ret    

00010c23 <__pause>:
   10c23:	c8 00 00 00          	enter  $0x0,$0x0
   10c27:	fb                   	sti    
   10c28:	f4                   	hlt    
   10c29:	c9                   	leave  
   10c2a:	c3                   	ret    

00010c2b <__get_ra>:
   10c2b:	8b 45 04             	mov    0x4(%ebp),%eax
   10c2e:	c3                   	ret    

00010c2f <__c_setcursor>:
   10c2f:	55                   	push   %ebp
   10c30:	89 e5                	mov    %esp,%ebp
   10c32:	83 ec 18             	sub    $0x18,%esp
   10c35:	a1 d4 d5 01 00       	mov    0x1d5d4,%eax
   10c3a:	89 45 f4             	mov    %eax,-0xc(%ebp)
   10c3d:	a1 cc d5 01 00       	mov    0x1d5cc,%eax
   10c42:	39 45 f4             	cmp    %eax,-0xc(%ebp)
   10c45:	76 08                	jbe    10c4f <__c_setcursor+0x20>
   10c47:	a1 cc d5 01 00       	mov    0x1d5cc,%eax
   10c4c:	89 45 f4             	mov    %eax,-0xc(%ebp)
   10c4f:	8b 55 f4             	mov    -0xc(%ebp),%edx
   10c52:	89 d0                	mov    %edx,%eax
   10c54:	c1 e0 02             	shl    $0x2,%eax
   10c57:	01 d0                	add    %edx,%eax
   10c59:	c1 e0 04             	shl    $0x4,%eax
   10c5c:	89 c2                	mov    %eax,%edx
   10c5e:	a1 d0 d5 01 00       	mov    0x1d5d0,%eax
   10c63:	01 d0                	add    %edx,%eax
   10c65:	89 45 f0             	mov    %eax,-0x10(%ebp)
   10c68:	83 ec 08             	sub    $0x8,%esp
   10c6b:	6a 0e                	push   $0xe
   10c6d:	68 d4 03 00 00       	push   $0x3d4
   10c72:	e8 81 ff ff ff       	call   10bf8 <__outb>
   10c77:	83 c4 10             	add    $0x10,%esp
   10c7a:	8b 45 f0             	mov    -0x10(%ebp),%eax
   10c7d:	c1 e8 08             	shr    $0x8,%eax
   10c80:	0f b6 c0             	movzbl %al,%eax
   10c83:	83 ec 08             	sub    $0x8,%esp
   10c86:	50                   	push   %eax
   10c87:	68 d5 03 00 00       	push   $0x3d5
   10c8c:	e8 67 ff ff ff       	call   10bf8 <__outb>
   10c91:	83 c4 10             	add    $0x10,%esp
   10c94:	83 ec 08             	sub    $0x8,%esp
   10c97:	6a 0f                	push   $0xf
   10c99:	68 d4 03 00 00       	push   $0x3d4
   10c9e:	e8 55 ff ff ff       	call   10bf8 <__outb>
   10ca3:	83 c4 10             	add    $0x10,%esp
   10ca6:	8b 45 f0             	mov    -0x10(%ebp),%eax
   10ca9:	0f b6 c0             	movzbl %al,%eax
   10cac:	83 ec 08             	sub    $0x8,%esp
   10caf:	50                   	push   %eax
   10cb0:	68 d5 03 00 00       	push   $0x3d5
   10cb5:	e8 3e ff ff ff       	call   10bf8 <__outb>
   10cba:	83 c4 10             	add    $0x10,%esp
   10cbd:	90                   	nop
   10cbe:	c9                   	leave  
   10cbf:	c3                   	ret    

00010cc0 <__c_putchar_at>:
   10cc0:	55                   	push   %ebp
   10cc1:	89 e5                	mov    %esp,%ebp
   10cc3:	83 ec 10             	sub    $0x10,%esp
   10cc6:	a1 e0 d5 01 00       	mov    0x1d5e0,%eax
   10ccb:	39 45 08             	cmp    %eax,0x8(%ebp)
   10cce:	77 4c                	ja     10d1c <__c_putchar_at+0x5c>
   10cd0:	a1 e4 d5 01 00       	mov    0x1d5e4,%eax
   10cd5:	39 45 0c             	cmp    %eax,0xc(%ebp)
   10cd8:	77 42                	ja     10d1c <__c_putchar_at+0x5c>
   10cda:	8b 55 0c             	mov    0xc(%ebp),%edx
   10cdd:	89 d0                	mov    %edx,%eax
   10cdf:	c1 e0 02             	shl    $0x2,%eax
   10ce2:	01 d0                	add    %edx,%eax
   10ce4:	c1 e0 04             	shl    $0x4,%eax
   10ce7:	89 c2                	mov    %eax,%edx
   10ce9:	8b 45 08             	mov    0x8(%ebp),%eax
   10cec:	01 d0                	add    %edx,%eax
   10cee:	05 00 c0 05 00       	add    $0x5c000,%eax
   10cf3:	01 c0                	add    %eax,%eax
   10cf5:	89 45 fc             	mov    %eax,-0x4(%ebp)
   10cf8:	81 7d 10 ff 00 00 00 	cmpl   $0xff,0x10(%ebp)
   10cff:	76 0d                	jbe    10d0e <__c_putchar_at+0x4e>
   10d01:	8b 45 10             	mov    0x10(%ebp),%eax
   10d04:	89 c2                	mov    %eax,%edx
   10d06:	8b 45 fc             	mov    -0x4(%ebp),%eax
   10d09:	66 89 10             	mov    %dx,(%eax)
   10d0c:	eb 0e                	jmp    10d1c <__c_putchar_at+0x5c>
   10d0e:	8b 45 10             	mov    0x10(%ebp),%eax
   10d11:	80 cc 07             	or     $0x7,%ah
   10d14:	89 c2                	mov    %eax,%edx
   10d16:	8b 45 fc             	mov    -0x4(%ebp),%eax
   10d19:	66 89 10             	mov    %dx,(%eax)
   10d1c:	90                   	nop
   10d1d:	c9                   	leave  
   10d1e:	c3                   	ret    

00010d1f <__cio_setscroll>:
   10d1f:	55                   	push   %ebp
   10d20:	89 e5                	mov    %esp,%ebp
   10d22:	83 ec 08             	sub    $0x8,%esp
   10d25:	8b 15 e0 d5 01 00    	mov    0x1d5e0,%edx
   10d2b:	a1 d8 d5 01 00       	mov    0x1d5d8,%eax
   10d30:	83 ec 04             	sub    $0x4,%esp
   10d33:	52                   	push   %edx
   10d34:	ff 75 08             	pushl  0x8(%ebp)
   10d37:	50                   	push   %eax
   10d38:	e8 6e 0c 00 00       	call   119ab <__bound>
   10d3d:	83 c4 10             	add    $0x10,%esp
   10d40:	a3 c0 d5 01 00       	mov    %eax,0x1d5c0
   10d45:	8b 15 e4 d5 01 00    	mov    0x1d5e4,%edx
   10d4b:	a1 dc d5 01 00       	mov    0x1d5dc,%eax
   10d50:	83 ec 04             	sub    $0x4,%esp
   10d53:	52                   	push   %edx
   10d54:	ff 75 0c             	pushl  0xc(%ebp)
   10d57:	50                   	push   %eax
   10d58:	e8 4e 0c 00 00       	call   119ab <__bound>
   10d5d:	83 c4 10             	add    $0x10,%esp
   10d60:	a3 c4 d5 01 00       	mov    %eax,0x1d5c4
   10d65:	8b 15 e0 d5 01 00    	mov    0x1d5e0,%edx
   10d6b:	a1 c0 d5 01 00       	mov    0x1d5c0,%eax
   10d70:	83 ec 04             	sub    $0x4,%esp
   10d73:	52                   	push   %edx
   10d74:	ff 75 10             	pushl  0x10(%ebp)
   10d77:	50                   	push   %eax
   10d78:	e8 2e 0c 00 00       	call   119ab <__bound>
   10d7d:	83 c4 10             	add    $0x10,%esp
   10d80:	a3 c8 d5 01 00       	mov    %eax,0x1d5c8
   10d85:	8b 15 e4 d5 01 00    	mov    0x1d5e4,%edx
   10d8b:	a1 c4 d5 01 00       	mov    0x1d5c4,%eax
   10d90:	83 ec 04             	sub    $0x4,%esp
   10d93:	52                   	push   %edx
   10d94:	ff 75 14             	pushl  0x14(%ebp)
   10d97:	50                   	push   %eax
   10d98:	e8 0e 0c 00 00       	call   119ab <__bound>
   10d9d:	83 c4 10             	add    $0x10,%esp
   10da0:	a3 cc d5 01 00       	mov    %eax,0x1d5cc
   10da5:	a1 c0 d5 01 00       	mov    0x1d5c0,%eax
   10daa:	a3 d0 d5 01 00       	mov    %eax,0x1d5d0
   10daf:	a1 c4 d5 01 00       	mov    0x1d5c4,%eax
   10db4:	a3 d4 d5 01 00       	mov    %eax,0x1d5d4
   10db9:	e8 71 fe ff ff       	call   10c2f <__c_setcursor>
   10dbe:	90                   	nop
   10dbf:	c9                   	leave  
   10dc0:	c3                   	ret    

00010dc1 <__cio_moveto>:
   10dc1:	55                   	push   %ebp
   10dc2:	89 e5                	mov    %esp,%ebp
   10dc4:	83 ec 08             	sub    $0x8,%esp
   10dc7:	8b 15 c8 d5 01 00    	mov    0x1d5c8,%edx
   10dcd:	8b 0d c0 d5 01 00    	mov    0x1d5c0,%ecx
   10dd3:	8b 45 08             	mov    0x8(%ebp),%eax
   10dd6:	01 c1                	add    %eax,%ecx
   10dd8:	a1 c0 d5 01 00       	mov    0x1d5c0,%eax
   10ddd:	83 ec 04             	sub    $0x4,%esp
   10de0:	52                   	push   %edx
   10de1:	51                   	push   %ecx
   10de2:	50                   	push   %eax
   10de3:	e8 c3 0b 00 00       	call   119ab <__bound>
   10de8:	83 c4 10             	add    $0x10,%esp
   10deb:	a3 d0 d5 01 00       	mov    %eax,0x1d5d0
   10df0:	8b 15 cc d5 01 00    	mov    0x1d5cc,%edx
   10df6:	8b 0d c4 d5 01 00    	mov    0x1d5c4,%ecx
   10dfc:	8b 45 0c             	mov    0xc(%ebp),%eax
   10dff:	01 c1                	add    %eax,%ecx
   10e01:	a1 c4 d5 01 00       	mov    0x1d5c4,%eax
   10e06:	83 ec 04             	sub    $0x4,%esp
   10e09:	52                   	push   %edx
   10e0a:	51                   	push   %ecx
   10e0b:	50                   	push   %eax
   10e0c:	e8 9a 0b 00 00       	call   119ab <__bound>
   10e11:	83 c4 10             	add    $0x10,%esp
   10e14:	a3 d4 d5 01 00       	mov    %eax,0x1d5d4
   10e19:	e8 11 fe ff ff       	call   10c2f <__c_setcursor>
   10e1e:	90                   	nop
   10e1f:	c9                   	leave  
   10e20:	c3                   	ret    

00010e21 <__cio_putchar_at>:
   10e21:	55                   	push   %ebp
   10e22:	89 e5                	mov    %esp,%ebp
   10e24:	83 ec 10             	sub    $0x10,%esp
   10e27:	8b 45 10             	mov    0x10(%ebp),%eax
   10e2a:	83 e0 7f             	and    $0x7f,%eax
   10e2d:	83 f8 0a             	cmp    $0xa,%eax
   10e30:	75 53                	jne    10e85 <__cio_putchar_at+0x64>
   10e32:	a1 c8 d5 01 00       	mov    0x1d5c8,%eax
   10e37:	39 45 08             	cmp    %eax,0x8(%ebp)
   10e3a:	76 0a                	jbe    10e46 <__cio_putchar_at+0x25>
   10e3c:	a1 e0 d5 01 00       	mov    0x1d5e0,%eax
   10e41:	89 45 fc             	mov    %eax,-0x4(%ebp)
   10e44:	eb 35                	jmp    10e7b <__cio_putchar_at+0x5a>
   10e46:	a1 c0 d5 01 00       	mov    0x1d5c0,%eax
   10e4b:	39 45 08             	cmp    %eax,0x8(%ebp)
   10e4e:	72 0a                	jb     10e5a <__cio_putchar_at+0x39>
   10e50:	a1 c8 d5 01 00       	mov    0x1d5c8,%eax
   10e55:	89 45 fc             	mov    %eax,-0x4(%ebp)
   10e58:	eb 21                	jmp    10e7b <__cio_putchar_at+0x5a>
   10e5a:	a1 c0 d5 01 00       	mov    0x1d5c0,%eax
   10e5f:	83 e8 01             	sub    $0x1,%eax
   10e62:	89 45 fc             	mov    %eax,-0x4(%ebp)
   10e65:	eb 14                	jmp    10e7b <__cio_putchar_at+0x5a>
   10e67:	6a 20                	push   $0x20
   10e69:	ff 75 0c             	pushl  0xc(%ebp)
   10e6c:	ff 75 08             	pushl  0x8(%ebp)
   10e6f:	e8 4c fe ff ff       	call   10cc0 <__c_putchar_at>
   10e74:	83 c4 0c             	add    $0xc,%esp
   10e77:	83 45 08 01          	addl   $0x1,0x8(%ebp)
   10e7b:	8b 45 08             	mov    0x8(%ebp),%eax
   10e7e:	3b 45 fc             	cmp    -0x4(%ebp),%eax
   10e81:	76 e4                	jbe    10e67 <__cio_putchar_at+0x46>
   10e83:	eb 11                	jmp    10e96 <__cio_putchar_at+0x75>
   10e85:	ff 75 10             	pushl  0x10(%ebp)
   10e88:	ff 75 0c             	pushl  0xc(%ebp)
   10e8b:	ff 75 08             	pushl  0x8(%ebp)
   10e8e:	e8 2d fe ff ff       	call   10cc0 <__c_putchar_at>
   10e93:	83 c4 0c             	add    $0xc,%esp
   10e96:	90                   	nop
   10e97:	c9                   	leave  
   10e98:	c3                   	ret    

00010e99 <__cio_putchar>:
   10e99:	55                   	push   %ebp
   10e9a:	89 e5                	mov    %esp,%ebp
   10e9c:	83 ec 08             	sub    $0x8,%esp
   10e9f:	8b 15 d4 d5 01 00    	mov    0x1d5d4,%edx
   10ea5:	a1 cc d5 01 00       	mov    0x1d5cc,%eax
   10eaa:	39 c2                	cmp    %eax,%edx
   10eac:	76 25                	jbe    10ed3 <__cio_putchar+0x3a>
   10eae:	8b 15 d4 d5 01 00    	mov    0x1d5d4,%edx
   10eb4:	a1 cc d5 01 00       	mov    0x1d5cc,%eax
   10eb9:	29 c2                	sub    %eax,%edx
   10ebb:	89 d0                	mov    %edx,%eax
   10ebd:	83 ec 0c             	sub    $0xc,%esp
   10ec0:	50                   	push   %eax
   10ec1:	e8 65 02 00 00       	call   1112b <__cio_scroll>
   10ec6:	83 c4 10             	add    $0x10,%esp
   10ec9:	a1 cc d5 01 00       	mov    0x1d5cc,%eax
   10ece:	a3 d4 d5 01 00       	mov    %eax,0x1d5d4
   10ed3:	8b 45 08             	mov    0x8(%ebp),%eax
   10ed6:	0f b6 c0             	movzbl %al,%eax
   10ed9:	83 f8 0a             	cmp    $0xa,%eax
   10edc:	74 2e                	je     10f0c <__cio_putchar+0x73>
   10ede:	83 f8 0d             	cmp    $0xd,%eax
   10ee1:	74 51                	je     10f34 <__cio_putchar+0x9b>
   10ee3:	eb 5b                	jmp    10f40 <__cio_putchar+0xa7>
   10ee5:	8b 15 d4 d5 01 00    	mov    0x1d5d4,%edx
   10eeb:	a1 d0 d5 01 00       	mov    0x1d5d0,%eax
   10ef0:	83 ec 04             	sub    $0x4,%esp
   10ef3:	6a 20                	push   $0x20
   10ef5:	52                   	push   %edx
   10ef6:	50                   	push   %eax
   10ef7:	e8 c4 fd ff ff       	call   10cc0 <__c_putchar_at>
   10efc:	83 c4 10             	add    $0x10,%esp
   10eff:	a1 d0 d5 01 00       	mov    0x1d5d0,%eax
   10f04:	83 c0 01             	add    $0x1,%eax
   10f07:	a3 d0 d5 01 00       	mov    %eax,0x1d5d0
   10f0c:	8b 15 d0 d5 01 00    	mov    0x1d5d0,%edx
   10f12:	a1 c8 d5 01 00       	mov    0x1d5c8,%eax
   10f17:	39 c2                	cmp    %eax,%edx
   10f19:	76 ca                	jbe    10ee5 <__cio_putchar+0x4c>
   10f1b:	a1 c0 d5 01 00       	mov    0x1d5c0,%eax
   10f20:	a3 d0 d5 01 00       	mov    %eax,0x1d5d0
   10f25:	a1 d4 d5 01 00       	mov    0x1d5d4,%eax
   10f2a:	83 c0 01             	add    $0x1,%eax
   10f2d:	a3 d4 d5 01 00       	mov    %eax,0x1d5d4
   10f32:	eb 5b                	jmp    10f8f <__cio_putchar+0xf6>
   10f34:	a1 c0 d5 01 00       	mov    0x1d5c0,%eax
   10f39:	a3 d0 d5 01 00       	mov    %eax,0x1d5d0
   10f3e:	eb 4f                	jmp    10f8f <__cio_putchar+0xf6>
   10f40:	8b 15 d4 d5 01 00    	mov    0x1d5d4,%edx
   10f46:	a1 d0 d5 01 00       	mov    0x1d5d0,%eax
   10f4b:	83 ec 04             	sub    $0x4,%esp
   10f4e:	ff 75 08             	pushl  0x8(%ebp)
   10f51:	52                   	push   %edx
   10f52:	50                   	push   %eax
   10f53:	e8 68 fd ff ff       	call   10cc0 <__c_putchar_at>
   10f58:	83 c4 10             	add    $0x10,%esp
   10f5b:	a1 d0 d5 01 00       	mov    0x1d5d0,%eax
   10f60:	83 c0 01             	add    $0x1,%eax
   10f63:	a3 d0 d5 01 00       	mov    %eax,0x1d5d0
   10f68:	8b 15 d0 d5 01 00    	mov    0x1d5d0,%edx
   10f6e:	a1 c8 d5 01 00       	mov    0x1d5c8,%eax
   10f73:	39 c2                	cmp    %eax,%edx
   10f75:	76 17                	jbe    10f8e <__cio_putchar+0xf5>
   10f77:	a1 c0 d5 01 00       	mov    0x1d5c0,%eax
   10f7c:	a3 d0 d5 01 00       	mov    %eax,0x1d5d0
   10f81:	a1 d4 d5 01 00       	mov    0x1d5d4,%eax
   10f86:	83 c0 01             	add    $0x1,%eax
   10f89:	a3 d4 d5 01 00       	mov    %eax,0x1d5d4
   10f8e:	90                   	nop
   10f8f:	e8 9b fc ff ff       	call   10c2f <__c_setcursor>
   10f94:	90                   	nop
   10f95:	c9                   	leave  
   10f96:	c3                   	ret    

00010f97 <__cio_puts_at>:
   10f97:	55                   	push   %ebp
   10f98:	89 e5                	mov    %esp,%ebp
   10f9a:	83 ec 10             	sub    $0x10,%esp
   10f9d:	eb 15                	jmp    10fb4 <__cio_puts_at+0x1d>
   10f9f:	ff 75 fc             	pushl  -0x4(%ebp)
   10fa2:	ff 75 0c             	pushl  0xc(%ebp)
   10fa5:	ff 75 08             	pushl  0x8(%ebp)
   10fa8:	e8 74 fe ff ff       	call   10e21 <__cio_putchar_at>
   10fad:	83 c4 0c             	add    $0xc,%esp
   10fb0:	83 45 08 01          	addl   $0x1,0x8(%ebp)
   10fb4:	8b 45 10             	mov    0x10(%ebp),%eax
   10fb7:	8d 50 01             	lea    0x1(%eax),%edx
   10fba:	89 55 10             	mov    %edx,0x10(%ebp)
   10fbd:	0f b6 00             	movzbl (%eax),%eax
   10fc0:	0f be c0             	movsbl %al,%eax
   10fc3:	89 45 fc             	mov    %eax,-0x4(%ebp)
   10fc6:	83 7d fc 00          	cmpl   $0x0,-0x4(%ebp)
   10fca:	74 0a                	je     10fd6 <__cio_puts_at+0x3f>
   10fcc:	a1 e0 d5 01 00       	mov    0x1d5e0,%eax
   10fd1:	39 45 08             	cmp    %eax,0x8(%ebp)
   10fd4:	76 c9                	jbe    10f9f <__cio_puts_at+0x8>
   10fd6:	90                   	nop
   10fd7:	c9                   	leave  
   10fd8:	c3                   	ret    

00010fd9 <__cio_puts>:
   10fd9:	55                   	push   %ebp
   10fda:	89 e5                	mov    %esp,%ebp
   10fdc:	83 ec 18             	sub    $0x18,%esp
   10fdf:	eb 0e                	jmp    10fef <__cio_puts+0x16>
   10fe1:	83 ec 0c             	sub    $0xc,%esp
   10fe4:	ff 75 f4             	pushl  -0xc(%ebp)
   10fe7:	e8 ad fe ff ff       	call   10e99 <__cio_putchar>
   10fec:	83 c4 10             	add    $0x10,%esp
   10fef:	8b 45 08             	mov    0x8(%ebp),%eax
   10ff2:	8d 50 01             	lea    0x1(%eax),%edx
   10ff5:	89 55 08             	mov    %edx,0x8(%ebp)
   10ff8:	0f b6 00             	movzbl (%eax),%eax
   10ffb:	0f be c0             	movsbl %al,%eax
   10ffe:	89 45 f4             	mov    %eax,-0xc(%ebp)
   11001:	83 7d f4 00          	cmpl   $0x0,-0xc(%ebp)
   11005:	75 da                	jne    10fe1 <__cio_puts+0x8>
   11007:	90                   	nop
   11008:	c9                   	leave  
   11009:	c3                   	ret    

0001100a <__cio_write>:
   1100a:	55                   	push   %ebp
   1100b:	89 e5                	mov    %esp,%ebp
   1100d:	83 ec 18             	sub    $0x18,%esp
   11010:	c7 45 f4 00 00 00 00 	movl   $0x0,-0xc(%ebp)
   11017:	eb 1e                	jmp    11037 <__cio_write+0x2d>
   11019:	8b 55 f4             	mov    -0xc(%ebp),%edx
   1101c:	8b 45 08             	mov    0x8(%ebp),%eax
   1101f:	01 d0                	add    %edx,%eax
   11021:	0f b6 00             	movzbl (%eax),%eax
   11024:	0f be c0             	movsbl %al,%eax
   11027:	83 ec 0c             	sub    $0xc,%esp
   1102a:	50                   	push   %eax
   1102b:	e8 69 fe ff ff       	call   10e99 <__cio_putchar>
   11030:	83 c4 10             	add    $0x10,%esp
   11033:	83 45 f4 01          	addl   $0x1,-0xc(%ebp)
   11037:	8b 45 f4             	mov    -0xc(%ebp),%eax
   1103a:	3b 45 0c             	cmp    0xc(%ebp),%eax
   1103d:	7c da                	jl     11019 <__cio_write+0xf>
   1103f:	90                   	nop
   11040:	c9                   	leave  
   11041:	c3                   	ret    

00011042 <__cio_clearscroll>:
   11042:	55                   	push   %ebp
   11043:	89 e5                	mov    %esp,%ebp
   11045:	83 ec 10             	sub    $0x10,%esp
   11048:	8b 15 c8 d5 01 00    	mov    0x1d5c8,%edx
   1104e:	a1 c0 d5 01 00       	mov    0x1d5c0,%eax
   11053:	29 c2                	sub    %eax,%edx
   11055:	89 d0                	mov    %edx,%eax
   11057:	83 c0 01             	add    $0x1,%eax
   1105a:	89 45 f0             	mov    %eax,-0x10(%ebp)
   1105d:	a1 c4 d5 01 00       	mov    0x1d5c4,%eax
   11062:	89 45 fc             	mov    %eax,-0x4(%ebp)
   11065:	eb 47                	jmp    110ae <__cio_clearscroll+0x6c>
   11067:	8b 55 fc             	mov    -0x4(%ebp),%edx
   1106a:	89 d0                	mov    %edx,%eax
   1106c:	c1 e0 02             	shl    $0x2,%eax
   1106f:	01 d0                	add    %edx,%eax
   11071:	c1 e0 04             	shl    $0x4,%eax
   11074:	89 c2                	mov    %eax,%edx
   11076:	a1 c0 d5 01 00       	mov    0x1d5c0,%eax
   1107b:	01 d0                	add    %edx,%eax
   1107d:	05 00 c0 05 00       	add    $0x5c000,%eax
   11082:	01 c0                	add    %eax,%eax
   11084:	89 45 f4             	mov    %eax,-0xc(%ebp)
   11087:	c7 45 f8 00 00 00 00 	movl   $0x0,-0x8(%ebp)
   1108e:	eb 12                	jmp    110a2 <__cio_clearscroll+0x60>
   11090:	8b 45 f4             	mov    -0xc(%ebp),%eax
   11093:	8d 50 02             	lea    0x2(%eax),%edx
   11096:	89 55 f4             	mov    %edx,-0xc(%ebp)
   11099:	66 c7 00 20 07       	movw   $0x720,(%eax)
   1109e:	83 45 f8 01          	addl   $0x1,-0x8(%ebp)
   110a2:	8b 45 f8             	mov    -0x8(%ebp),%eax
   110a5:	3b 45 f0             	cmp    -0x10(%ebp),%eax
   110a8:	72 e6                	jb     11090 <__cio_clearscroll+0x4e>
   110aa:	83 45 fc 01          	addl   $0x1,-0x4(%ebp)
   110ae:	a1 cc d5 01 00       	mov    0x1d5cc,%eax
   110b3:	39 45 fc             	cmp    %eax,-0x4(%ebp)
   110b6:	76 af                	jbe    11067 <__cio_clearscroll+0x25>
   110b8:	90                   	nop
   110b9:	c9                   	leave  
   110ba:	c3                   	ret    

000110bb <__cio_clearscreen>:
   110bb:	55                   	push   %ebp
   110bc:	89 e5                	mov    %esp,%ebp
   110be:	83 ec 10             	sub    $0x10,%esp
   110c1:	8b 15 dc d5 01 00    	mov    0x1d5dc,%edx
   110c7:	89 d0                	mov    %edx,%eax
   110c9:	c1 e0 02             	shl    $0x2,%eax
   110cc:	01 d0                	add    %edx,%eax
   110ce:	c1 e0 04             	shl    $0x4,%eax
   110d1:	89 c2                	mov    %eax,%edx
   110d3:	a1 d8 d5 01 00       	mov    0x1d5d8,%eax
   110d8:	01 d0                	add    %edx,%eax
   110da:	05 00 c0 05 00       	add    $0x5c000,%eax
   110df:	01 c0                	add    %eax,%eax
   110e1:	89 45 fc             	mov    %eax,-0x4(%ebp)
   110e4:	8b 15 e4 d5 01 00    	mov    0x1d5e4,%edx
   110ea:	a1 dc d5 01 00       	mov    0x1d5dc,%eax
   110ef:	29 c2                	sub    %eax,%edx
   110f1:	89 d0                	mov    %edx,%eax
   110f3:	8d 48 01             	lea    0x1(%eax),%ecx
   110f6:	8b 15 e0 d5 01 00    	mov    0x1d5e0,%edx
   110fc:	a1 d8 d5 01 00       	mov    0x1d5d8,%eax
   11101:	29 c2                	sub    %eax,%edx
   11103:	89 d0                	mov    %edx,%eax
   11105:	83 c0 01             	add    $0x1,%eax
   11108:	0f af c1             	imul   %ecx,%eax
   1110b:	89 45 f8             	mov    %eax,-0x8(%ebp)
   1110e:	eb 12                	jmp    11122 <__cio_clearscreen+0x67>
   11110:	8b 45 fc             	mov    -0x4(%ebp),%eax
   11113:	8d 50 02             	lea    0x2(%eax),%edx
   11116:	89 55 fc             	mov    %edx,-0x4(%ebp)
   11119:	66 c7 00 20 07       	movw   $0x720,(%eax)
   1111e:	83 6d f8 01          	subl   $0x1,-0x8(%ebp)
   11122:	83 7d f8 00          	cmpl   $0x0,-0x8(%ebp)
   11126:	75 e8                	jne    11110 <__cio_clearscreen+0x55>
   11128:	90                   	nop
   11129:	c9                   	leave  
   1112a:	c3                   	ret    

0001112b <__cio_scroll>:
   1112b:	55                   	push   %ebp
   1112c:	89 e5                	mov    %esp,%ebp
   1112e:	83 ec 28             	sub    $0x28,%esp
   11131:	8b 15 c8 d5 01 00    	mov    0x1d5c8,%edx
   11137:	a1 c0 d5 01 00       	mov    0x1d5c0,%eax
   1113c:	29 c2                	sub    %eax,%edx
   1113e:	89 d0                	mov    %edx,%eax
   11140:	83 c0 01             	add    $0x1,%eax
   11143:	89 45 e4             	mov    %eax,-0x1c(%ebp)
   11146:	8b 15 cc d5 01 00    	mov    0x1d5cc,%edx
   1114c:	a1 c4 d5 01 00       	mov    0x1d5c4,%eax
   11151:	29 c2                	sub    %eax,%edx
   11153:	89 d0                	mov    %edx,%eax
   11155:	39 45 08             	cmp    %eax,0x8(%ebp)
   11158:	76 23                	jbe    1117d <__cio_scroll+0x52>
   1115a:	e8 e3 fe ff ff       	call   11042 <__cio_clearscroll>
   1115f:	a1 c0 d5 01 00       	mov    0x1d5c0,%eax
   11164:	a3 d0 d5 01 00       	mov    %eax,0x1d5d0
   11169:	a1 c4 d5 01 00       	mov    0x1d5c4,%eax
   1116e:	a3 d4 d5 01 00       	mov    %eax,0x1d5d4
   11173:	e8 b7 fa ff ff       	call   10c2f <__c_setcursor>
   11178:	e9 ea 00 00 00       	jmp    11267 <__cio_scroll+0x13c>
   1117d:	a1 c4 d5 01 00       	mov    0x1d5c4,%eax
   11182:	89 45 ec             	mov    %eax,-0x14(%ebp)
   11185:	eb 76                	jmp    111fd <__cio_scroll+0xd2>
   11187:	8b 55 ec             	mov    -0x14(%ebp),%edx
   1118a:	8b 45 08             	mov    0x8(%ebp),%eax
   1118d:	01 c2                	add    %eax,%edx
   1118f:	89 d0                	mov    %edx,%eax
   11191:	c1 e0 02             	shl    $0x2,%eax
   11194:	01 d0                	add    %edx,%eax
   11196:	c1 e0 04             	shl    $0x4,%eax
   11199:	89 c2                	mov    %eax,%edx
   1119b:	a1 c0 d5 01 00       	mov    0x1d5c0,%eax
   111a0:	01 d0                	add    %edx,%eax
   111a2:	05 00 c0 05 00       	add    $0x5c000,%eax
   111a7:	01 c0                	add    %eax,%eax
   111a9:	89 45 f4             	mov    %eax,-0xc(%ebp)
   111ac:	8b 55 ec             	mov    -0x14(%ebp),%edx
   111af:	89 d0                	mov    %edx,%eax
   111b1:	c1 e0 02             	shl    $0x2,%eax
   111b4:	01 d0                	add    %edx,%eax
   111b6:	c1 e0 04             	shl    $0x4,%eax
   111b9:	89 c2                	mov    %eax,%edx
   111bb:	a1 c0 d5 01 00       	mov    0x1d5c0,%eax
   111c0:	01 d0                	add    %edx,%eax
   111c2:	05 00 c0 05 00       	add    $0x5c000,%eax
   111c7:	01 c0                	add    %eax,%eax
   111c9:	89 45 f0             	mov    %eax,-0x10(%ebp)
   111cc:	c7 45 e8 00 00 00 00 	movl   $0x0,-0x18(%ebp)
   111d3:	eb 1c                	jmp    111f1 <__cio_scroll+0xc6>
   111d5:	8b 55 f4             	mov    -0xc(%ebp),%edx
   111d8:	8d 42 02             	lea    0x2(%edx),%eax
   111db:	89 45 f4             	mov    %eax,-0xc(%ebp)
   111de:	8b 45 f0             	mov    -0x10(%ebp),%eax
   111e1:	8d 48 02             	lea    0x2(%eax),%ecx
   111e4:	89 4d f0             	mov    %ecx,-0x10(%ebp)
   111e7:	0f b7 12             	movzwl (%edx),%edx
   111ea:	66 89 10             	mov    %dx,(%eax)
   111ed:	83 45 e8 01          	addl   $0x1,-0x18(%ebp)
   111f1:	8b 45 e8             	mov    -0x18(%ebp),%eax
   111f4:	3b 45 e4             	cmp    -0x1c(%ebp),%eax
   111f7:	7c dc                	jl     111d5 <__cio_scroll+0xaa>
   111f9:	83 45 ec 01          	addl   $0x1,-0x14(%ebp)
   111fd:	a1 cc d5 01 00       	mov    0x1d5cc,%eax
   11202:	2b 45 08             	sub    0x8(%ebp),%eax
   11205:	89 c2                	mov    %eax,%edx
   11207:	8b 45 ec             	mov    -0x14(%ebp),%eax
   1120a:	39 c2                	cmp    %eax,%edx
   1120c:	0f 83 75 ff ff ff    	jae    11187 <__cio_scroll+0x5c>
   11212:	eb 47                	jmp    1125b <__cio_scroll+0x130>
   11214:	8b 55 ec             	mov    -0x14(%ebp),%edx
   11217:	89 d0                	mov    %edx,%eax
   11219:	c1 e0 02             	shl    $0x2,%eax
   1121c:	01 d0                	add    %edx,%eax
   1121e:	c1 e0 04             	shl    $0x4,%eax
   11221:	89 c2                	mov    %eax,%edx
   11223:	a1 c0 d5 01 00       	mov    0x1d5c0,%eax
   11228:	01 d0                	add    %edx,%eax
   1122a:	05 00 c0 05 00       	add    $0x5c000,%eax
   1122f:	01 c0                	add    %eax,%eax
   11231:	89 45 f0             	mov    %eax,-0x10(%ebp)
   11234:	c7 45 e8 00 00 00 00 	movl   $0x0,-0x18(%ebp)
   1123b:	eb 12                	jmp    1124f <__cio_scroll+0x124>
   1123d:	8b 45 f0             	mov    -0x10(%ebp),%eax
   11240:	8d 50 02             	lea    0x2(%eax),%edx
   11243:	89 55 f0             	mov    %edx,-0x10(%ebp)
   11246:	66 c7 00 20 07       	movw   $0x720,(%eax)
   1124b:	83 45 e8 01          	addl   $0x1,-0x18(%ebp)
   1124f:	8b 45 e8             	mov    -0x18(%ebp),%eax
   11252:	3b 45 e4             	cmp    -0x1c(%ebp),%eax
   11255:	7c e6                	jl     1123d <__cio_scroll+0x112>
   11257:	83 45 ec 01          	addl   $0x1,-0x14(%ebp)
   1125b:	8b 55 ec             	mov    -0x14(%ebp),%edx
   1125e:	a1 cc d5 01 00       	mov    0x1d5cc,%eax
   11263:	39 c2                	cmp    %eax,%edx
   11265:	76 ad                	jbe    11214 <__cio_scroll+0xe9>
   11267:	c9                   	leave  
   11268:	c3                   	ret    

00011269 <pad>:
   11269:	55                   	push   %ebp
   1126a:	89 e5                	mov    %esp,%ebp
   1126c:	83 ec 08             	sub    $0x8,%esp
   1126f:	eb 39                	jmp    112aa <pad+0x41>
   11271:	83 7d 08 ff          	cmpl   $0xffffffff,0x8(%ebp)
   11275:	75 06                	jne    1127d <pad+0x14>
   11277:	83 7d 0c ff          	cmpl   $0xffffffff,0xc(%ebp)
   1127b:	74 1a                	je     11297 <pad+0x2e>
   1127d:	8b 4d 14             	mov    0x14(%ebp),%ecx
   11280:	8b 55 0c             	mov    0xc(%ebp),%edx
   11283:	8b 45 08             	mov    0x8(%ebp),%eax
   11286:	51                   	push   %ecx
   11287:	52                   	push   %edx
   11288:	50                   	push   %eax
   11289:	e8 93 fb ff ff       	call   10e21 <__cio_putchar_at>
   1128e:	83 c4 0c             	add    $0xc,%esp
   11291:	83 45 08 01          	addl   $0x1,0x8(%ebp)
   11295:	eb 0f                	jmp    112a6 <pad+0x3d>
   11297:	8b 45 14             	mov    0x14(%ebp),%eax
   1129a:	83 ec 0c             	sub    $0xc,%esp
   1129d:	50                   	push   %eax
   1129e:	e8 f6 fb ff ff       	call   10e99 <__cio_putchar>
   112a3:	83 c4 10             	add    $0x10,%esp
   112a6:	83 6d 10 01          	subl   $0x1,0x10(%ebp)
   112aa:	83 7d 10 00          	cmpl   $0x0,0x10(%ebp)
   112ae:	7f c1                	jg     11271 <pad+0x8>
   112b0:	8b 45 08             	mov    0x8(%ebp),%eax
   112b3:	c9                   	leave  
   112b4:	c3                   	ret    

000112b5 <padstr>:
   112b5:	55                   	push   %ebp
   112b6:	89 e5                	mov    %esp,%ebp
   112b8:	83 ec 18             	sub    $0x18,%esp
   112bb:	83 7d 14 00          	cmpl   $0x0,0x14(%ebp)
   112bf:	79 11                	jns    112d2 <padstr+0x1d>
   112c1:	83 ec 0c             	sub    $0xc,%esp
   112c4:	ff 75 10             	pushl  0x10(%ebp)
   112c7:	e8 75 07 00 00       	call   11a41 <__strlen>
   112cc:	83 c4 10             	add    $0x10,%esp
   112cf:	89 45 14             	mov    %eax,0x14(%ebp)
   112d2:	8b 45 18             	mov    0x18(%ebp),%eax
   112d5:	2b 45 14             	sub    0x14(%ebp),%eax
   112d8:	89 45 f4             	mov    %eax,-0xc(%ebp)
   112db:	83 7d f4 00          	cmpl   $0x0,-0xc(%ebp)
   112df:	7e 1d                	jle    112fe <padstr+0x49>
   112e1:	83 7d 1c 00          	cmpl   $0x0,0x1c(%ebp)
   112e5:	75 17                	jne    112fe <padstr+0x49>
   112e7:	ff 75 20             	pushl  0x20(%ebp)
   112ea:	ff 75 f4             	pushl  -0xc(%ebp)
   112ed:	ff 75 0c             	pushl  0xc(%ebp)
   112f0:	ff 75 08             	pushl  0x8(%ebp)
   112f3:	e8 71 ff ff ff       	call   11269 <pad>
   112f8:	83 c4 10             	add    $0x10,%esp
   112fb:	89 45 08             	mov    %eax,0x8(%ebp)
   112fe:	83 7d 08 ff          	cmpl   $0xffffffff,0x8(%ebp)
   11302:	75 06                	jne    1130a <padstr+0x55>
   11304:	83 7d 0c ff          	cmpl   $0xffffffff,0xc(%ebp)
   11308:	74 1e                	je     11328 <padstr+0x73>
   1130a:	8b 55 0c             	mov    0xc(%ebp),%edx
   1130d:	8b 45 08             	mov    0x8(%ebp),%eax
   11310:	83 ec 04             	sub    $0x4,%esp
   11313:	ff 75 10             	pushl  0x10(%ebp)
   11316:	52                   	push   %edx
   11317:	50                   	push   %eax
   11318:	e8 7a fc ff ff       	call   10f97 <__cio_puts_at>
   1131d:	83 c4 10             	add    $0x10,%esp
   11320:	8b 45 14             	mov    0x14(%ebp),%eax
   11323:	01 45 08             	add    %eax,0x8(%ebp)
   11326:	eb 0e                	jmp    11336 <padstr+0x81>
   11328:	83 ec 0c             	sub    $0xc,%esp
   1132b:	ff 75 10             	pushl  0x10(%ebp)
   1132e:	e8 a6 fc ff ff       	call   10fd9 <__cio_puts>
   11333:	83 c4 10             	add    $0x10,%esp
   11336:	83 7d f4 00          	cmpl   $0x0,-0xc(%ebp)
   1133a:	7e 1d                	jle    11359 <padstr+0xa4>
   1133c:	83 7d 1c 00          	cmpl   $0x0,0x1c(%ebp)
   11340:	74 17                	je     11359 <padstr+0xa4>
   11342:	ff 75 20             	pushl  0x20(%ebp)
   11345:	ff 75 f4             	pushl  -0xc(%ebp)
   11348:	ff 75 0c             	pushl  0xc(%ebp)
   1134b:	ff 75 08             	pushl  0x8(%ebp)
   1134e:	e8 16 ff ff ff       	call   11269 <pad>
   11353:	83 c4 10             	add    $0x10,%esp
   11356:	89 45 08             	mov    %eax,0x8(%ebp)
   11359:	8b 45 08             	mov    0x8(%ebp),%eax
   1135c:	c9                   	leave  
   1135d:	c3                   	ret    

0001135e <__c_do_printf>:
   1135e:	55                   	push   %ebp
   1135f:	89 e5                	mov    %esp,%ebp
   11361:	83 ec 38             	sub    $0x38,%esp
   11364:	8b 45 10             	mov    0x10(%ebp),%eax
   11367:	8b 00                	mov    (%eax),%eax
   11369:	89 45 f4             	mov    %eax,-0xc(%ebp)
   1136c:	8b 45 10             	mov    0x10(%ebp),%eax
   1136f:	83 c0 04             	add    $0x4,%eax
   11372:	89 45 f0             	mov    %eax,-0x10(%ebp)
   11375:	e9 9d 02 00 00       	jmp    11617 <__c_do_printf+0x2b9>
   1137a:	80 7d ef 25          	cmpb   $0x25,-0x11(%ebp)
   1137e:	0f 85 3b 02 00 00    	jne    115bf <__c_do_printf+0x261>
   11384:	c7 45 e8 00 00 00 00 	movl   $0x0,-0x18(%ebp)
   1138b:	c7 45 e0 20 00 00 00 	movl   $0x20,-0x20(%ebp)
   11392:	c7 45 e4 00 00 00 00 	movl   $0x0,-0x1c(%ebp)
   11399:	8b 45 f4             	mov    -0xc(%ebp),%eax
   1139c:	8d 50 01             	lea    0x1(%eax),%edx
   1139f:	89 55 f4             	mov    %edx,-0xc(%ebp)
   113a2:	0f b6 00             	movzbl (%eax),%eax
   113a5:	88 45 ef             	mov    %al,-0x11(%ebp)
   113a8:	80 7d ef 2d          	cmpb   $0x2d,-0x11(%ebp)
   113ac:	75 16                	jne    113c4 <__c_do_printf+0x66>
   113ae:	c7 45 e8 01 00 00 00 	movl   $0x1,-0x18(%ebp)
   113b5:	8b 45 f4             	mov    -0xc(%ebp),%eax
   113b8:	8d 50 01             	lea    0x1(%eax),%edx
   113bb:	89 55 f4             	mov    %edx,-0xc(%ebp)
   113be:	0f b6 00             	movzbl (%eax),%eax
   113c1:	88 45 ef             	mov    %al,-0x11(%ebp)
   113c4:	80 7d ef 30          	cmpb   $0x30,-0x11(%ebp)
   113c8:	75 40                	jne    1140a <__c_do_printf+0xac>
   113ca:	c7 45 e0 30 00 00 00 	movl   $0x30,-0x20(%ebp)
   113d1:	8b 45 f4             	mov    -0xc(%ebp),%eax
   113d4:	8d 50 01             	lea    0x1(%eax),%edx
   113d7:	89 55 f4             	mov    %edx,-0xc(%ebp)
   113da:	0f b6 00             	movzbl (%eax),%eax
   113dd:	88 45 ef             	mov    %al,-0x11(%ebp)
   113e0:	eb 28                	jmp    1140a <__c_do_printf+0xac>
   113e2:	8b 55 e4             	mov    -0x1c(%ebp),%edx
   113e5:	89 d0                	mov    %edx,%eax
   113e7:	c1 e0 02             	shl    $0x2,%eax
   113ea:	01 d0                	add    %edx,%eax
   113ec:	01 c0                	add    %eax,%eax
   113ee:	89 45 e4             	mov    %eax,-0x1c(%ebp)
   113f1:	0f be 45 ef          	movsbl -0x11(%ebp),%eax
   113f5:	83 e8 30             	sub    $0x30,%eax
   113f8:	01 45 e4             	add    %eax,-0x1c(%ebp)
   113fb:	8b 45 f4             	mov    -0xc(%ebp),%eax
   113fe:	8d 50 01             	lea    0x1(%eax),%edx
   11401:	89 55 f4             	mov    %edx,-0xc(%ebp)
   11404:	0f b6 00             	movzbl (%eax),%eax
   11407:	88 45 ef             	mov    %al,-0x11(%ebp)
   1140a:	80 7d ef 2f          	cmpb   $0x2f,-0x11(%ebp)
   1140e:	7e 06                	jle    11416 <__c_do_printf+0xb8>
   11410:	80 7d ef 39          	cmpb   $0x39,-0x11(%ebp)
   11414:	7e cc                	jle    113e2 <__c_do_printf+0x84>
   11416:	0f be 45 ef          	movsbl -0x11(%ebp),%eax
   1141a:	83 e8 63             	sub    $0x63,%eax
   1141d:	83 f8 15             	cmp    $0x15,%eax
   11420:	0f 87 f1 01 00 00    	ja     11617 <__c_do_printf+0x2b9>
   11426:	8b 04 85 04 84 01 00 	mov    0x18404(,%eax,4),%eax
   1142d:	ff e0                	jmp    *%eax
   1142f:	8b 45 f0             	mov    -0x10(%ebp),%eax
   11432:	8d 50 04             	lea    0x4(%eax),%edx
   11435:	89 55 f0             	mov    %edx,-0x10(%ebp)
   11438:	8b 00                	mov    (%eax),%eax
   1143a:	88 45 ef             	mov    %al,-0x11(%ebp)
   1143d:	0f b6 45 ef          	movzbl -0x11(%ebp),%eax
   11441:	88 45 cc             	mov    %al,-0x34(%ebp)
   11444:	c6 45 cd 00          	movb   $0x0,-0x33(%ebp)
   11448:	83 ec 04             	sub    $0x4,%esp
   1144b:	ff 75 e0             	pushl  -0x20(%ebp)
   1144e:	ff 75 e8             	pushl  -0x18(%ebp)
   11451:	ff 75 e4             	pushl  -0x1c(%ebp)
   11454:	6a 01                	push   $0x1
   11456:	8d 45 cc             	lea    -0x34(%ebp),%eax
   11459:	50                   	push   %eax
   1145a:	ff 75 0c             	pushl  0xc(%ebp)
   1145d:	ff 75 08             	pushl  0x8(%ebp)
   11460:	e8 50 fe ff ff       	call   112b5 <padstr>
   11465:	83 c4 20             	add    $0x20,%esp
   11468:	89 45 08             	mov    %eax,0x8(%ebp)
   1146b:	e9 a7 01 00 00       	jmp    11617 <__c_do_printf+0x2b9>
   11470:	8b 45 f0             	mov    -0x10(%ebp),%eax
   11473:	8d 50 04             	lea    0x4(%eax),%edx
   11476:	89 55 f0             	mov    %edx,-0x10(%ebp)
   11479:	8b 00                	mov    (%eax),%eax
   1147b:	83 ec 08             	sub    $0x8,%esp
   1147e:	50                   	push   %eax
   1147f:	8d 45 cc             	lea    -0x34(%ebp),%eax
   11482:	50                   	push   %eax
   11483:	e8 8e 0a 00 00       	call   11f16 <__cvtdec>
   11488:	83 c4 10             	add    $0x10,%esp
   1148b:	89 45 dc             	mov    %eax,-0x24(%ebp)
   1148e:	83 ec 04             	sub    $0x4,%esp
   11491:	ff 75 e0             	pushl  -0x20(%ebp)
   11494:	ff 75 e8             	pushl  -0x18(%ebp)
   11497:	ff 75 e4             	pushl  -0x1c(%ebp)
   1149a:	ff 75 dc             	pushl  -0x24(%ebp)
   1149d:	8d 45 cc             	lea    -0x34(%ebp),%eax
   114a0:	50                   	push   %eax
   114a1:	ff 75 0c             	pushl  0xc(%ebp)
   114a4:	ff 75 08             	pushl  0x8(%ebp)
   114a7:	e8 09 fe ff ff       	call   112b5 <padstr>
   114ac:	83 c4 20             	add    $0x20,%esp
   114af:	89 45 08             	mov    %eax,0x8(%ebp)
   114b2:	e9 60 01 00 00       	jmp    11617 <__c_do_printf+0x2b9>
   114b7:	8b 45 f0             	mov    -0x10(%ebp),%eax
   114ba:	8d 50 04             	lea    0x4(%eax),%edx
   114bd:	89 55 f0             	mov    %edx,-0x10(%ebp)
   114c0:	8b 00                	mov    (%eax),%eax
   114c2:	89 45 d8             	mov    %eax,-0x28(%ebp)
   114c5:	83 ec 04             	sub    $0x4,%esp
   114c8:	ff 75 e0             	pushl  -0x20(%ebp)
   114cb:	ff 75 e8             	pushl  -0x18(%ebp)
   114ce:	ff 75 e4             	pushl  -0x1c(%ebp)
   114d1:	6a ff                	push   $0xffffffff
   114d3:	ff 75 d8             	pushl  -0x28(%ebp)
   114d6:	ff 75 0c             	pushl  0xc(%ebp)
   114d9:	ff 75 08             	pushl  0x8(%ebp)
   114dc:	e8 d4 fd ff ff       	call   112b5 <padstr>
   114e1:	83 c4 20             	add    $0x20,%esp
   114e4:	89 45 08             	mov    %eax,0x8(%ebp)
   114e7:	e9 2b 01 00 00       	jmp    11617 <__c_do_printf+0x2b9>
   114ec:	8b 45 f0             	mov    -0x10(%ebp),%eax
   114ef:	8d 50 04             	lea    0x4(%eax),%edx
   114f2:	89 55 f0             	mov    %edx,-0x10(%ebp)
   114f5:	8b 00                	mov    (%eax),%eax
   114f7:	83 ec 08             	sub    $0x8,%esp
   114fa:	50                   	push   %eax
   114fb:	8d 45 cc             	lea    -0x34(%ebp),%eax
   114fe:	50                   	push   %eax
   114ff:	e8 8b 0a 00 00       	call   11f8f <__cvthex>
   11504:	83 c4 10             	add    $0x10,%esp
   11507:	89 45 dc             	mov    %eax,-0x24(%ebp)
   1150a:	83 ec 04             	sub    $0x4,%esp
   1150d:	ff 75 e0             	pushl  -0x20(%ebp)
   11510:	ff 75 e8             	pushl  -0x18(%ebp)
   11513:	ff 75 e4             	pushl  -0x1c(%ebp)
   11516:	ff 75 dc             	pushl  -0x24(%ebp)
   11519:	8d 45 cc             	lea    -0x34(%ebp),%eax
   1151c:	50                   	push   %eax
   1151d:	ff 75 0c             	pushl  0xc(%ebp)
   11520:	ff 75 08             	pushl  0x8(%ebp)
   11523:	e8 8d fd ff ff       	call   112b5 <padstr>
   11528:	83 c4 20             	add    $0x20,%esp
   1152b:	89 45 08             	mov    %eax,0x8(%ebp)
   1152e:	e9 e4 00 00 00       	jmp    11617 <__c_do_printf+0x2b9>
   11533:	8b 45 f0             	mov    -0x10(%ebp),%eax
   11536:	8d 50 04             	lea    0x4(%eax),%edx
   11539:	89 55 f0             	mov    %edx,-0x10(%ebp)
   1153c:	8b 00                	mov    (%eax),%eax
   1153e:	83 ec 08             	sub    $0x8,%esp
   11541:	50                   	push   %eax
   11542:	8d 45 cc             	lea    -0x34(%ebp),%eax
   11545:	50                   	push   %eax
   11546:	e8 c3 0a 00 00       	call   1200e <__cvtoct>
   1154b:	83 c4 10             	add    $0x10,%esp
   1154e:	89 45 dc             	mov    %eax,-0x24(%ebp)
   11551:	83 ec 04             	sub    $0x4,%esp
   11554:	ff 75 e0             	pushl  -0x20(%ebp)
   11557:	ff 75 e8             	pushl  -0x18(%ebp)
   1155a:	ff 75 e4             	pushl  -0x1c(%ebp)
   1155d:	ff 75 dc             	pushl  -0x24(%ebp)
   11560:	8d 45 cc             	lea    -0x34(%ebp),%eax
   11563:	50                   	push   %eax
   11564:	ff 75 0c             	pushl  0xc(%ebp)
   11567:	ff 75 08             	pushl  0x8(%ebp)
   1156a:	e8 46 fd ff ff       	call   112b5 <padstr>
   1156f:	83 c4 20             	add    $0x20,%esp
   11572:	89 45 08             	mov    %eax,0x8(%ebp)
   11575:	e9 9d 00 00 00       	jmp    11617 <__c_do_printf+0x2b9>
   1157a:	8b 45 f0             	mov    -0x10(%ebp),%eax
   1157d:	8d 50 04             	lea    0x4(%eax),%edx
   11580:	89 55 f0             	mov    %edx,-0x10(%ebp)
   11583:	8b 00                	mov    (%eax),%eax
   11585:	83 ec 08             	sub    $0x8,%esp
   11588:	50                   	push   %eax
   11589:	8d 45 cc             	lea    -0x34(%ebp),%eax
   1158c:	50                   	push   %eax
   1158d:	e8 cb 09 00 00       	call   11f5d <__cvtuns>
   11592:	83 c4 10             	add    $0x10,%esp
   11595:	89 45 dc             	mov    %eax,-0x24(%ebp)
   11598:	83 ec 04             	sub    $0x4,%esp
   1159b:	ff 75 e0             	pushl  -0x20(%ebp)
   1159e:	ff 75 e8             	pushl  -0x18(%ebp)
   115a1:	ff 75 e4             	pushl  -0x1c(%ebp)
   115a4:	ff 75 dc             	pushl  -0x24(%ebp)
   115a7:	8d 45 cc             	lea    -0x34(%ebp),%eax
   115aa:	50                   	push   %eax
   115ab:	ff 75 0c             	pushl  0xc(%ebp)
   115ae:	ff 75 08             	pushl  0x8(%ebp)
   115b1:	e8 ff fc ff ff       	call   112b5 <padstr>
   115b6:	83 c4 20             	add    $0x20,%esp
   115b9:	89 45 08             	mov    %eax,0x8(%ebp)
   115bc:	90                   	nop
   115bd:	eb 58                	jmp    11617 <__c_do_printf+0x2b9>
   115bf:	83 7d 08 ff          	cmpl   $0xffffffff,0x8(%ebp)
   115c3:	75 06                	jne    115cb <__c_do_printf+0x26d>
   115c5:	83 7d 0c ff          	cmpl   $0xffffffff,0xc(%ebp)
   115c9:	74 3c                	je     11607 <__c_do_printf+0x2a9>
   115cb:	0f be 4d ef          	movsbl -0x11(%ebp),%ecx
   115cf:	8b 55 0c             	mov    0xc(%ebp),%edx
   115d2:	8b 45 08             	mov    0x8(%ebp),%eax
   115d5:	83 ec 04             	sub    $0x4,%esp
   115d8:	51                   	push   %ecx
   115d9:	52                   	push   %edx
   115da:	50                   	push   %eax
   115db:	e8 41 f8 ff ff       	call   10e21 <__cio_putchar_at>
   115e0:	83 c4 10             	add    $0x10,%esp
   115e3:	0f be 45 ef          	movsbl -0x11(%ebp),%eax
   115e7:	83 f8 0a             	cmp    $0xa,%eax
   115ea:	74 07                	je     115f3 <__c_do_printf+0x295>
   115ec:	83 f8 0d             	cmp    $0xd,%eax
   115ef:	74 06                	je     115f7 <__c_do_printf+0x299>
   115f1:	eb 0e                	jmp    11601 <__c_do_printf+0x2a3>
   115f3:	83 45 0c 01          	addl   $0x1,0xc(%ebp)
   115f7:	a1 c0 d5 01 00       	mov    0x1d5c0,%eax
   115fc:	89 45 08             	mov    %eax,0x8(%ebp)
   115ff:	eb 04                	jmp    11605 <__c_do_printf+0x2a7>
   11601:	83 45 08 01          	addl   $0x1,0x8(%ebp)
   11605:	eb 10                	jmp    11617 <__c_do_printf+0x2b9>
   11607:	0f be 45 ef          	movsbl -0x11(%ebp),%eax
   1160b:	83 ec 0c             	sub    $0xc,%esp
   1160e:	50                   	push   %eax
   1160f:	e8 85 f8 ff ff       	call   10e99 <__cio_putchar>
   11614:	83 c4 10             	add    $0x10,%esp
   11617:	8b 45 f4             	mov    -0xc(%ebp),%eax
   1161a:	8d 50 01             	lea    0x1(%eax),%edx
   1161d:	89 55 f4             	mov    %edx,-0xc(%ebp)
   11620:	0f b6 00             	movzbl (%eax),%eax
   11623:	88 45 ef             	mov    %al,-0x11(%ebp)
   11626:	80 7d ef 00          	cmpb   $0x0,-0x11(%ebp)
   1162a:	0f 85 4a fd ff ff    	jne    1137a <__c_do_printf+0x1c>
   11630:	90                   	nop
   11631:	c9                   	leave  
   11632:	c3                   	ret    

00011633 <__cio_printf_at>:
   11633:	55                   	push   %ebp
   11634:	89 e5                	mov    %esp,%ebp
   11636:	83 ec 08             	sub    $0x8,%esp
   11639:	8b 55 0c             	mov    0xc(%ebp),%edx
   1163c:	8b 45 08             	mov    0x8(%ebp),%eax
   1163f:	83 ec 04             	sub    $0x4,%esp
   11642:	8d 4d 10             	lea    0x10(%ebp),%ecx
   11645:	51                   	push   %ecx
   11646:	52                   	push   %edx
   11647:	50                   	push   %eax
   11648:	e8 11 fd ff ff       	call   1135e <__c_do_printf>
   1164d:	83 c4 10             	add    $0x10,%esp
   11650:	90                   	nop
   11651:	c9                   	leave  
   11652:	c3                   	ret    

00011653 <__cio_printf>:
   11653:	55                   	push   %ebp
   11654:	89 e5                	mov    %esp,%ebp
   11656:	83 ec 08             	sub    $0x8,%esp
   11659:	83 ec 04             	sub    $0x4,%esp
   1165c:	8d 45 08             	lea    0x8(%ebp),%eax
   1165f:	50                   	push   %eax
   11660:	6a ff                	push   $0xffffffff
   11662:	6a ff                	push   $0xffffffff
   11664:	e8 f5 fc ff ff       	call   1135e <__c_do_printf>
   11669:	83 c4 10             	add    $0x10,%esp
   1166c:	90                   	nop
   1166d:	c9                   	leave  
   1166e:	c3                   	ret    

0001166f <__c_increment>:
   1166f:	55                   	push   %ebp
   11670:	89 e5                	mov    %esp,%ebp
   11672:	83 45 08 01          	addl   $0x1,0x8(%ebp)
   11676:	b8 c8 d6 01 00       	mov    $0x1d6c8,%eax
   1167b:	39 45 08             	cmp    %eax,0x8(%ebp)
   1167e:	72 07                	jb     11687 <__c_increment+0x18>
   11680:	c7 45 08 00 d6 01 00 	movl   $0x1d600,0x8(%ebp)
   11687:	8b 45 08             	mov    0x8(%ebp),%eax
   1168a:	5d                   	pop    %ebp
   1168b:	c3                   	ret    

0001168c <__c_input_scan_code>:
   1168c:	55                   	push   %ebp
   1168d:	89 e5                	mov    %esp,%ebp
   1168f:	83 ec 10             	sub    $0x10,%esp
   11692:	c7 45 fc ff ff ff ff 	movl   $0xffffffff,-0x4(%ebp)
   11699:	81 65 08 ff 00 00 00 	andl   $0xff,0x8(%ebp)
   116a0:	8b 45 08             	mov    0x8(%ebp),%eax
   116a3:	83 f8 36             	cmp    $0x36,%eax
   116a6:	74 28                	je     116d0 <__c_input_scan_code+0x44>
   116a8:	83 f8 36             	cmp    $0x36,%eax
   116ab:	7f 0c                	jg     116b9 <__c_input_scan_code+0x2d>
   116ad:	83 f8 1d             	cmp    $0x1d,%eax
   116b0:	74 3c                	je     116ee <__c_input_scan_code+0x62>
   116b2:	83 f8 2a             	cmp    $0x2a,%eax
   116b5:	74 19                	je     116d0 <__c_input_scan_code+0x44>
   116b7:	eb 4d                	jmp    11706 <__c_input_scan_code+0x7a>
   116b9:	3d aa 00 00 00       	cmp    $0xaa,%eax
   116be:	74 1f                	je     116df <__c_input_scan_code+0x53>
   116c0:	3d b6 00 00 00       	cmp    $0xb6,%eax
   116c5:	74 18                	je     116df <__c_input_scan_code+0x53>
   116c7:	3d 9d 00 00 00       	cmp    $0x9d,%eax
   116cc:	74 2c                	je     116fa <__c_input_scan_code+0x6e>
   116ce:	eb 36                	jmp    11706 <__c_input_scan_code+0x7a>
   116d0:	c7 05 c8 d6 01 00 01 	movl   $0x1,0x1d6c8
   116d7:	00 00 00 
   116da:	e9 99 00 00 00       	jmp    11778 <__c_input_scan_code+0xec>
   116df:	c7 05 c8 d6 01 00 00 	movl   $0x0,0x1d6c8
   116e6:	00 00 00 
   116e9:	e9 8a 00 00 00       	jmp    11778 <__c_input_scan_code+0xec>
   116ee:	c7 05 08 d5 01 00 1f 	movl   $0x1f,0x1d508
   116f5:	00 00 00 
   116f8:	eb 7e                	jmp    11778 <__c_input_scan_code+0xec>
   116fa:	c7 05 08 d5 01 00 ff 	movl   $0xff,0x1d508
   11701:	00 00 00 
   11704:	eb 72                	jmp    11778 <__c_input_scan_code+0xec>
   11706:	8b 45 08             	mov    0x8(%ebp),%eax
   11709:	25 80 00 00 00       	and    $0x80,%eax
   1170e:	85 c0                	test   %eax,%eax
   11710:	75 66                	jne    11778 <__c_input_scan_code+0xec>
   11712:	a1 c8 d6 01 00       	mov    0x1d6c8,%eax
   11717:	c1 e0 07             	shl    $0x7,%eax
   1171a:	89 c2                	mov    %eax,%edx
   1171c:	8b 45 08             	mov    0x8(%ebp),%eax
   1171f:	01 d0                	add    %edx,%eax
   11721:	05 00 d4 01 00       	add    $0x1d400,%eax
   11726:	0f b6 00             	movzbl (%eax),%eax
   11729:	0f b6 c0             	movzbl %al,%eax
   1172c:	89 45 08             	mov    %eax,0x8(%ebp)
   1172f:	83 7d 08 ff          	cmpl   $0xffffffff,0x8(%ebp)
   11733:	74 43                	je     11778 <__c_input_scan_code+0xec>
   11735:	a1 04 d5 01 00       	mov    0x1d504,%eax
   1173a:	50                   	push   %eax
   1173b:	e8 2f ff ff ff       	call   1166f <__c_increment>
   11740:	83 c4 04             	add    $0x4,%esp
   11743:	89 45 f8             	mov    %eax,-0x8(%ebp)
   11746:	a1 08 d5 01 00       	mov    0x1d508,%eax
   1174b:	23 45 08             	and    0x8(%ebp),%eax
   1174e:	89 45 fc             	mov    %eax,-0x4(%ebp)
   11751:	a1 00 d5 01 00       	mov    0x1d500,%eax
   11756:	39 45 f8             	cmp    %eax,-0x8(%ebp)
   11759:	74 1d                	je     11778 <__c_input_scan_code+0xec>
   1175b:	8b 45 08             	mov    0x8(%ebp),%eax
   1175e:	89 c1                	mov    %eax,%ecx
   11760:	a1 08 d5 01 00       	mov    0x1d508,%eax
   11765:	89 c2                	mov    %eax,%edx
   11767:	a1 04 d5 01 00       	mov    0x1d504,%eax
   1176c:	21 ca                	and    %ecx,%edx
   1176e:	88 10                	mov    %dl,(%eax)
   11770:	8b 45 f8             	mov    -0x8(%ebp),%eax
   11773:	a3 04 d5 01 00       	mov    %eax,0x1d504
   11778:	8b 45 fc             	mov    -0x4(%ebp),%eax
   1177b:	c9                   	leave  
   1177c:	c3                   	ret    

0001177d <__c_keyboard_isr>:
   1177d:	55                   	push   %ebp
   1177e:	89 e5                	mov    %esp,%ebp
   11780:	83 ec 18             	sub    $0x18,%esp
   11783:	83 ec 0c             	sub    $0xc,%esp
   11786:	6a 60                	push   $0x60
   11788:	e8 46 f4 ff ff       	call   10bd3 <__inb>
   1178d:	83 c4 10             	add    $0x10,%esp
   11790:	89 45 f4             	mov    %eax,-0xc(%ebp)
   11793:	83 ec 0c             	sub    $0xc,%esp
   11796:	ff 75 f4             	pushl  -0xc(%ebp)
   11799:	e8 ee fe ff ff       	call   1168c <__c_input_scan_code>
   1179e:	83 c4 10             	add    $0x10,%esp
   117a1:	89 45 f0             	mov    %eax,-0x10(%ebp)
   117a4:	83 7d f0 ff          	cmpl   $0xffffffff,-0x10(%ebp)
   117a8:	74 19                	je     117c3 <__c_keyboard_isr+0x46>
   117aa:	a1 e8 d5 01 00       	mov    0x1d5e8,%eax
   117af:	85 c0                	test   %eax,%eax
   117b1:	74 10                	je     117c3 <__c_keyboard_isr+0x46>
   117b3:	a1 e8 d5 01 00       	mov    0x1d5e8,%eax
   117b8:	83 ec 0c             	sub    $0xc,%esp
   117bb:	ff 75 f0             	pushl  -0x10(%ebp)
   117be:	ff d0                	call   *%eax
   117c0:	83 c4 10             	add    $0x10,%esp
   117c3:	83 ec 08             	sub    $0x8,%esp
   117c6:	6a 20                	push   $0x20
   117c8:	6a 20                	push   $0x20
   117ca:	e8 29 f4 ff ff       	call   10bf8 <__outb>
   117cf:	83 c4 10             	add    $0x10,%esp
   117d2:	90                   	nop
   117d3:	c9                   	leave  
   117d4:	c3                   	ret    

000117d5 <__cio_getchar>:
   117d5:	55                   	push   %ebp
   117d6:	89 e5                	mov    %esp,%ebp
   117d8:	83 ec 18             	sub    $0x18,%esp
   117db:	e8 40 f4 ff ff       	call   10c20 <__get_flags>
   117e0:	25 00 02 00 00       	and    $0x200,%eax
   117e5:	89 45 f4             	mov    %eax,-0xc(%ebp)
   117e8:	eb 34                	jmp    1181e <__cio_getchar+0x49>
   117ea:	83 7d f4 00          	cmpl   $0x0,-0xc(%ebp)
   117ee:	75 2e                	jne    1181e <__cio_getchar+0x49>
   117f0:	90                   	nop
   117f1:	83 ec 0c             	sub    $0xc,%esp
   117f4:	6a 64                	push   $0x64
   117f6:	e8 d8 f3 ff ff       	call   10bd3 <__inb>
   117fb:	83 c4 10             	add    $0x10,%esp
   117fe:	83 e0 01             	and    $0x1,%eax
   11801:	85 c0                	test   %eax,%eax
   11803:	74 ec                	je     117f1 <__cio_getchar+0x1c>
   11805:	83 ec 0c             	sub    $0xc,%esp
   11808:	6a 60                	push   $0x60
   1180a:	e8 c4 f3 ff ff       	call   10bd3 <__inb>
   1180f:	83 c4 10             	add    $0x10,%esp
   11812:	83 ec 0c             	sub    $0xc,%esp
   11815:	50                   	push   %eax
   11816:	e8 71 fe ff ff       	call   1168c <__c_input_scan_code>
   1181b:	83 c4 10             	add    $0x10,%esp
   1181e:	8b 15 00 d5 01 00    	mov    0x1d500,%edx
   11824:	a1 04 d5 01 00       	mov    0x1d504,%eax
   11829:	39 c2                	cmp    %eax,%edx
   1182b:	74 bd                	je     117ea <__cio_getchar+0x15>
   1182d:	a1 00 d5 01 00       	mov    0x1d500,%eax
   11832:	0f b6 00             	movzbl (%eax),%eax
   11835:	88 45 f3             	mov    %al,-0xd(%ebp)
   11838:	a1 00 d5 01 00       	mov    0x1d500,%eax
   1183d:	83 ec 0c             	sub    $0xc,%esp
   11840:	50                   	push   %eax
   11841:	e8 29 fe ff ff       	call   1166f <__c_increment>
   11846:	83 c4 10             	add    $0x10,%esp
   11849:	a3 00 d5 01 00       	mov    %eax,0x1d500
   1184e:	80 7d f3 04          	cmpb   $0x4,-0xd(%ebp)
   11852:	74 10                	je     11864 <__cio_getchar+0x8f>
   11854:	0f be 45 f3          	movsbl -0xd(%ebp),%eax
   11858:	83 ec 0c             	sub    $0xc,%esp
   1185b:	50                   	push   %eax
   1185c:	e8 38 f6 ff ff       	call   10e99 <__cio_putchar>
   11861:	83 c4 10             	add    $0x10,%esp
   11864:	0f be 45 f3          	movsbl -0xd(%ebp),%eax
   11868:	c9                   	leave  
   11869:	c3                   	ret    

0001186a <__cio_gets>:
   1186a:	55                   	push   %ebp
   1186b:	89 e5                	mov    %esp,%ebp
   1186d:	83 ec 18             	sub    $0x18,%esp
   11870:	c7 45 f4 00 00 00 00 	movl   $0x0,-0xc(%ebp)
   11877:	eb 2b                	jmp    118a4 <__cio_gets+0x3a>
   11879:	e8 57 ff ff ff       	call   117d5 <__cio_getchar>
   1187e:	88 45 f3             	mov    %al,-0xd(%ebp)
   11881:	80 7d f3 04          	cmpb   $0x4,-0xd(%ebp)
   11885:	74 25                	je     118ac <__cio_gets+0x42>
   11887:	8b 45 08             	mov    0x8(%ebp),%eax
   1188a:	8d 50 01             	lea    0x1(%eax),%edx
   1188d:	89 55 08             	mov    %edx,0x8(%ebp)
   11890:	0f b6 55 f3          	movzbl -0xd(%ebp),%edx
   11894:	88 10                	mov    %dl,(%eax)
   11896:	83 45 f4 01          	addl   $0x1,-0xc(%ebp)
   1189a:	83 6d 0c 01          	subl   $0x1,0xc(%ebp)
   1189e:	80 7d f3 0a          	cmpb   $0xa,-0xd(%ebp)
   118a2:	74 0b                	je     118af <__cio_gets+0x45>
   118a4:	83 7d 0c 01          	cmpl   $0x1,0xc(%ebp)
   118a8:	77 cf                	ja     11879 <__cio_gets+0xf>
   118aa:	eb 04                	jmp    118b0 <__cio_gets+0x46>
   118ac:	90                   	nop
   118ad:	eb 01                	jmp    118b0 <__cio_gets+0x46>
   118af:	90                   	nop
   118b0:	8b 45 08             	mov    0x8(%ebp),%eax
   118b3:	c6 00 00             	movb   $0x0,(%eax)
   118b6:	8b 45 f4             	mov    -0xc(%ebp),%eax
   118b9:	c9                   	leave  
   118ba:	c3                   	ret    

000118bb <__cio_input_queue>:
   118bb:	55                   	push   %ebp
   118bc:	89 e5                	mov    %esp,%ebp
   118be:	83 ec 10             	sub    $0x10,%esp
   118c1:	a1 04 d5 01 00       	mov    0x1d504,%eax
   118c6:	89 c2                	mov    %eax,%edx
   118c8:	a1 00 d5 01 00       	mov    0x1d500,%eax
   118cd:	29 c2                	sub    %eax,%edx
   118cf:	89 d0                	mov    %edx,%eax
   118d1:	89 45 fc             	mov    %eax,-0x4(%ebp)
   118d4:	83 7d fc 00          	cmpl   $0x0,-0x4(%ebp)
   118d8:	79 07                	jns    118e1 <__cio_input_queue+0x26>
   118da:	81 45 fc c8 00 00 00 	addl   $0xc8,-0x4(%ebp)
   118e1:	8b 45 fc             	mov    -0x4(%ebp),%eax
   118e4:	c9                   	leave  
   118e5:	c3                   	ret    

000118e6 <__cio_init>:
   118e6:	55                   	push   %ebp
   118e7:	89 e5                	mov    %esp,%ebp
   118e9:	83 ec 08             	sub    $0x8,%esp
   118ec:	c7 05 d8 d5 01 00 00 	movl   $0x0,0x1d5d8
   118f3:	00 00 00 
   118f6:	c7 05 dc d5 01 00 00 	movl   $0x0,0x1d5dc
   118fd:	00 00 00 
   11900:	c7 05 e0 d5 01 00 4f 	movl   $0x4f,0x1d5e0
   11907:	00 00 00 
   1190a:	c7 05 e4 d5 01 00 18 	movl   $0x18,0x1d5e4
   11911:	00 00 00 
   11914:	c7 05 c0 d5 01 00 00 	movl   $0x0,0x1d5c0
   1191b:	00 00 00 
   1191e:	c7 05 c4 d5 01 00 00 	movl   $0x0,0x1d5c4
   11925:	00 00 00 
   11928:	c7 05 c8 d5 01 00 4f 	movl   $0x4f,0x1d5c8
   1192f:	00 00 00 
   11932:	c7 05 cc d5 01 00 18 	movl   $0x18,0x1d5cc
   11939:	00 00 00 
   1193c:	a1 dc d5 01 00       	mov    0x1d5dc,%eax
   11941:	a3 d4 d5 01 00       	mov    %eax,0x1d5d4
   11946:	a1 d8 d5 01 00       	mov    0x1d5d8,%eax
   1194b:	a3 d0 d5 01 00       	mov    %eax,0x1d5d0
   11950:	e8 da f2 ff ff       	call   10c2f <__c_setcursor>
   11955:	8b 45 08             	mov    0x8(%ebp),%eax
   11958:	a3 e8 d5 01 00       	mov    %eax,0x1d5e8
   1195d:	83 ec 08             	sub    $0x8,%esp
   11960:	68 7d 17 01 00       	push   $0x1177d
   11965:	6a 21                	push   $0x21
   11967:	e8 4d 09 00 00       	call   122b9 <__install_isr>
   1196c:	83 c4 10             	add    $0x10,%esp
   1196f:	90                   	nop
   11970:	c9                   	leave  
   11971:	c3                   	ret    

00011972 <__put_char_or_code>:
   11972:	55                   	push   %ebp
   11973:	89 e5                	mov    %esp,%ebp
   11975:	83 ec 08             	sub    $0x8,%esp
   11978:	83 7d 08 1f          	cmpl   $0x1f,0x8(%ebp)
   1197c:	7e 17                	jle    11995 <__put_char_or_code+0x23>
   1197e:	83 7d 08 7e          	cmpl   $0x7e,0x8(%ebp)
   11982:	7f 11                	jg     11995 <__put_char_or_code+0x23>
   11984:	8b 45 08             	mov    0x8(%ebp),%eax
   11987:	83 ec 0c             	sub    $0xc,%esp
   1198a:	50                   	push   %eax
   1198b:	e8 09 f5 ff ff       	call   10e99 <__cio_putchar>
   11990:	83 c4 10             	add    $0x10,%esp
   11993:	eb 13                	jmp    119a8 <__put_char_or_code+0x36>
   11995:	83 ec 08             	sub    $0x8,%esp
   11998:	ff 75 08             	pushl  0x8(%ebp)
   1199b:	68 5c 84 01 00       	push   $0x1845c
   119a0:	e8 ae fc ff ff       	call   11653 <__cio_printf>
   119a5:	83 c4 10             	add    $0x10,%esp
   119a8:	90                   	nop
   119a9:	c9                   	leave  
   119aa:	c3                   	ret    

000119ab <__bound>:
   119ab:	55                   	push   %ebp
   119ac:	89 e5                	mov    %esp,%ebp
   119ae:	8b 45 0c             	mov    0xc(%ebp),%eax
   119b1:	3b 45 08             	cmp    0x8(%ebp),%eax
   119b4:	73 06                	jae    119bc <__bound+0x11>
   119b6:	8b 45 08             	mov    0x8(%ebp),%eax
   119b9:	89 45 0c             	mov    %eax,0xc(%ebp)
   119bc:	8b 45 0c             	mov    0xc(%ebp),%eax
   119bf:	3b 45 10             	cmp    0x10(%ebp),%eax
   119c2:	76 06                	jbe    119ca <__bound+0x1f>
   119c4:	8b 45 10             	mov    0x10(%ebp),%eax
   119c7:	89 45 0c             	mov    %eax,0xc(%ebp)
   119ca:	8b 45 0c             	mov    0xc(%ebp),%eax
   119cd:	5d                   	pop    %ebp
   119ce:	c3                   	ret    

000119cf <__memset>:
   119cf:	55                   	push   %ebp
   119d0:	89 e5                	mov    %esp,%ebp
   119d2:	53                   	push   %ebx
   119d3:	8b 4d 0c             	mov    0xc(%ebp),%ecx
   119d6:	8b 5d 08             	mov    0x8(%ebp),%ebx
   119d9:	eb 0b                	jmp    119e6 <__memset+0x17>
   119db:	89 d8                	mov    %ebx,%eax
   119dd:	8d 58 01             	lea    0x1(%eax),%ebx
   119e0:	0f b6 55 10          	movzbl 0x10(%ebp),%edx
   119e4:	88 10                	mov    %dl,(%eax)
   119e6:	89 c8                	mov    %ecx,%eax
   119e8:	8d 48 ff             	lea    -0x1(%eax),%ecx
   119eb:	85 c0                	test   %eax,%eax
   119ed:	75 ec                	jne    119db <__memset+0xc>
   119ef:	90                   	nop
   119f0:	5b                   	pop    %ebx
   119f1:	5d                   	pop    %ebp
   119f2:	c3                   	ret    

000119f3 <__memclr>:
   119f3:	55                   	push   %ebp
   119f4:	89 e5                	mov    %esp,%ebp
   119f6:	53                   	push   %ebx
   119f7:	8b 55 0c             	mov    0xc(%ebp),%edx
   119fa:	8b 5d 08             	mov    0x8(%ebp),%ebx
   119fd:	eb 08                	jmp    11a07 <__memclr+0x14>
   119ff:	89 d8                	mov    %ebx,%eax
   11a01:	8d 58 01             	lea    0x1(%eax),%ebx
   11a04:	c6 00 00             	movb   $0x0,(%eax)
   11a07:	89 d0                	mov    %edx,%eax
   11a09:	8d 50 ff             	lea    -0x1(%eax),%edx
   11a0c:	85 c0                	test   %eax,%eax
   11a0e:	75 ef                	jne    119ff <__memclr+0xc>
   11a10:	90                   	nop
   11a11:	5b                   	pop    %ebx
   11a12:	5d                   	pop    %ebp
   11a13:	c3                   	ret    

00011a14 <__memcpy>:
   11a14:	55                   	push   %ebp
   11a15:	89 e5                	mov    %esp,%ebp
   11a17:	56                   	push   %esi
   11a18:	53                   	push   %ebx
   11a19:	8b 4d 10             	mov    0x10(%ebp),%ecx
   11a1c:	8b 5d 08             	mov    0x8(%ebp),%ebx
   11a1f:	8b 75 0c             	mov    0xc(%ebp),%esi
   11a22:	eb 0f                	jmp    11a33 <__memcpy+0x1f>
   11a24:	89 f2                	mov    %esi,%edx
   11a26:	8d 72 01             	lea    0x1(%edx),%esi
   11a29:	89 d8                	mov    %ebx,%eax
   11a2b:	8d 58 01             	lea    0x1(%eax),%ebx
   11a2e:	0f b6 12             	movzbl (%edx),%edx
   11a31:	88 10                	mov    %dl,(%eax)
   11a33:	89 c8                	mov    %ecx,%eax
   11a35:	8d 48 ff             	lea    -0x1(%eax),%ecx
   11a38:	85 c0                	test   %eax,%eax
   11a3a:	75 e8                	jne    11a24 <__memcpy+0x10>
   11a3c:	90                   	nop
   11a3d:	5b                   	pop    %ebx
   11a3e:	5e                   	pop    %esi
   11a3f:	5d                   	pop    %ebp
   11a40:	c3                   	ret    

00011a41 <__strlen>:
   11a41:	55                   	push   %ebp
   11a42:	89 e5                	mov    %esp,%ebp
   11a44:	53                   	push   %ebx
   11a45:	8b 55 08             	mov    0x8(%ebp),%edx
   11a48:	bb 00 00 00 00       	mov    $0x0,%ebx
   11a4d:	eb 03                	jmp    11a52 <__strlen+0x11>
   11a4f:	83 c3 01             	add    $0x1,%ebx
   11a52:	89 d0                	mov    %edx,%eax
   11a54:	8d 50 01             	lea    0x1(%eax),%edx
   11a57:	0f b6 00             	movzbl (%eax),%eax
   11a5a:	84 c0                	test   %al,%al
   11a5c:	75 f1                	jne    11a4f <__strlen+0xe>
   11a5e:	89 d8                	mov    %ebx,%eax
   11a60:	5b                   	pop    %ebx
   11a61:	5d                   	pop    %ebp
   11a62:	c3                   	ret    

00011a63 <__strcmp>:
   11a63:	55                   	push   %ebp
   11a64:	89 e5                	mov    %esp,%ebp
   11a66:	53                   	push   %ebx
   11a67:	8b 45 08             	mov    0x8(%ebp),%eax
   11a6a:	8b 55 0c             	mov    0xc(%ebp),%edx
   11a6d:	eb 06                	jmp    11a75 <__strcmp+0x12>
   11a6f:	83 c0 01             	add    $0x1,%eax
   11a72:	83 c2 01             	add    $0x1,%edx
   11a75:	0f b6 08             	movzbl (%eax),%ecx
   11a78:	84 c9                	test   %cl,%cl
   11a7a:	74 0a                	je     11a86 <__strcmp+0x23>
   11a7c:	0f b6 18             	movzbl (%eax),%ebx
   11a7f:	0f b6 0a             	movzbl (%edx),%ecx
   11a82:	38 cb                	cmp    %cl,%bl
   11a84:	74 e9                	je     11a6f <__strcmp+0xc>
   11a86:	0f b6 00             	movzbl (%eax),%eax
   11a89:	0f be c8             	movsbl %al,%ecx
   11a8c:	0f b6 02             	movzbl (%edx),%eax
   11a8f:	0f be c0             	movsbl %al,%eax
   11a92:	29 c1                	sub    %eax,%ecx
   11a94:	89 c8                	mov    %ecx,%eax
   11a96:	5b                   	pop    %ebx
   11a97:	5d                   	pop    %ebp
   11a98:	c3                   	ret    

00011a99 <__strcpy>:
   11a99:	55                   	push   %ebp
   11a9a:	89 e5                	mov    %esp,%ebp
   11a9c:	53                   	push   %ebx
   11a9d:	83 ec 10             	sub    $0x10,%esp
   11aa0:	8b 55 08             	mov    0x8(%ebp),%edx
   11aa3:	8b 5d 0c             	mov    0xc(%ebp),%ebx
   11aa6:	89 55 f8             	mov    %edx,-0x8(%ebp)
   11aa9:	90                   	nop
   11aaa:	89 d9                	mov    %ebx,%ecx
   11aac:	8d 59 01             	lea    0x1(%ecx),%ebx
   11aaf:	89 d0                	mov    %edx,%eax
   11ab1:	8d 50 01             	lea    0x1(%eax),%edx
   11ab4:	0f b6 09             	movzbl (%ecx),%ecx
   11ab7:	88 08                	mov    %cl,(%eax)
   11ab9:	0f b6 00             	movzbl (%eax),%eax
   11abc:	84 c0                	test   %al,%al
   11abe:	75 ea                	jne    11aaa <__strcpy+0x11>
   11ac0:	8b 45 f8             	mov    -0x8(%ebp),%eax
   11ac3:	83 c4 10             	add    $0x10,%esp
   11ac6:	5b                   	pop    %ebx
   11ac7:	5d                   	pop    %ebp
   11ac8:	c3                   	ret    

00011ac9 <__strcat>:
   11ac9:	55                   	push   %ebp
   11aca:	89 e5                	mov    %esp,%ebp
   11acc:	56                   	push   %esi
   11acd:	53                   	push   %ebx
   11ace:	8b 45 08             	mov    0x8(%ebp),%eax
   11ad1:	8b 75 0c             	mov    0xc(%ebp),%esi
   11ad4:	89 c3                	mov    %eax,%ebx
   11ad6:	eb 03                	jmp    11adb <__strcat+0x12>
   11ad8:	83 c0 01             	add    $0x1,%eax
   11adb:	0f b6 10             	movzbl (%eax),%edx
   11ade:	84 d2                	test   %dl,%dl
   11ae0:	75 f6                	jne    11ad8 <__strcat+0xf>
   11ae2:	90                   	nop
   11ae3:	89 f1                	mov    %esi,%ecx
   11ae5:	8d 71 01             	lea    0x1(%ecx),%esi
   11ae8:	89 c2                	mov    %eax,%edx
   11aea:	8d 42 01             	lea    0x1(%edx),%eax
   11aed:	0f b6 09             	movzbl (%ecx),%ecx
   11af0:	88 0a                	mov    %cl,(%edx)
   11af2:	0f b6 12             	movzbl (%edx),%edx
   11af5:	84 d2                	test   %dl,%dl
   11af7:	75 ea                	jne    11ae3 <__strcat+0x1a>
   11af9:	89 d8                	mov    %ebx,%eax
   11afb:	5b                   	pop    %ebx
   11afc:	5e                   	pop    %esi
   11afd:	5d                   	pop    %ebp
   11afe:	c3                   	ret    

00011aff <__pad>:
   11aff:	55                   	push   %ebp
   11b00:	89 e5                	mov    %esp,%ebp
   11b02:	eb 12                	jmp    11b16 <__pad+0x17>
   11b04:	8b 45 08             	mov    0x8(%ebp),%eax
   11b07:	8d 50 01             	lea    0x1(%eax),%edx
   11b0a:	89 55 08             	mov    %edx,0x8(%ebp)
   11b0d:	8b 55 10             	mov    0x10(%ebp),%edx
   11b10:	88 10                	mov    %dl,(%eax)
   11b12:	83 6d 0c 01          	subl   $0x1,0xc(%ebp)
   11b16:	83 7d 0c 00          	cmpl   $0x0,0xc(%ebp)
   11b1a:	7f e8                	jg     11b04 <__pad+0x5>
   11b1c:	8b 45 08             	mov    0x8(%ebp),%eax
   11b1f:	5d                   	pop    %ebp
   11b20:	c3                   	ret    

00011b21 <__padstr>:
   11b21:	55                   	push   %ebp
   11b22:	89 e5                	mov    %esp,%ebp
   11b24:	83 ec 10             	sub    $0x10,%esp
   11b27:	83 7d 10 00          	cmpl   $0x0,0x10(%ebp)
   11b2b:	79 0e                	jns    11b3b <__padstr+0x1a>
   11b2d:	ff 75 0c             	pushl  0xc(%ebp)
   11b30:	e8 0c ff ff ff       	call   11a41 <__strlen>
   11b35:	83 c4 04             	add    $0x4,%esp
   11b38:	89 45 10             	mov    %eax,0x10(%ebp)
   11b3b:	8b 45 14             	mov    0x14(%ebp),%eax
   11b3e:	2b 45 10             	sub    0x10(%ebp),%eax
   11b41:	89 45 f8             	mov    %eax,-0x8(%ebp)
   11b44:	83 7d f8 00          	cmpl   $0x0,-0x8(%ebp)
   11b48:	7e 1a                	jle    11b64 <__padstr+0x43>
   11b4a:	83 7d 18 00          	cmpl   $0x0,0x18(%ebp)
   11b4e:	75 14                	jne    11b64 <__padstr+0x43>
   11b50:	ff 75 1c             	pushl  0x1c(%ebp)
   11b53:	ff 75 f8             	pushl  -0x8(%ebp)
   11b56:	ff 75 08             	pushl  0x8(%ebp)
   11b59:	e8 a1 ff ff ff       	call   11aff <__pad>
   11b5e:	83 c4 0c             	add    $0xc,%esp
   11b61:	89 45 08             	mov    %eax,0x8(%ebp)
   11b64:	c7 45 fc 00 00 00 00 	movl   $0x0,-0x4(%ebp)
   11b6b:	eb 1b                	jmp    11b88 <__padstr+0x67>
   11b6d:	8b 55 fc             	mov    -0x4(%ebp),%edx
   11b70:	8b 45 0c             	mov    0xc(%ebp),%eax
   11b73:	8d 0c 02             	lea    (%edx,%eax,1),%ecx
   11b76:	8b 45 08             	mov    0x8(%ebp),%eax
   11b79:	8d 50 01             	lea    0x1(%eax),%edx
   11b7c:	89 55 08             	mov    %edx,0x8(%ebp)
   11b7f:	0f b6 11             	movzbl (%ecx),%edx
   11b82:	88 10                	mov    %dl,(%eax)
   11b84:	83 45 fc 01          	addl   $0x1,-0x4(%ebp)
   11b88:	8b 45 fc             	mov    -0x4(%ebp),%eax
   11b8b:	3b 45 10             	cmp    0x10(%ebp),%eax
   11b8e:	7c dd                	jl     11b6d <__padstr+0x4c>
   11b90:	83 7d f8 00          	cmpl   $0x0,-0x8(%ebp)
   11b94:	7e 1a                	jle    11bb0 <__padstr+0x8f>
   11b96:	83 7d 18 00          	cmpl   $0x0,0x18(%ebp)
   11b9a:	74 14                	je     11bb0 <__padstr+0x8f>
   11b9c:	ff 75 1c             	pushl  0x1c(%ebp)
   11b9f:	ff 75 f8             	pushl  -0x8(%ebp)
   11ba2:	ff 75 08             	pushl  0x8(%ebp)
   11ba5:	e8 55 ff ff ff       	call   11aff <__pad>
   11baa:	83 c4 0c             	add    $0xc,%esp
   11bad:	89 45 08             	mov    %eax,0x8(%ebp)
   11bb0:	8b 45 08             	mov    0x8(%ebp),%eax
   11bb3:	c9                   	leave  
   11bb4:	c3                   	ret    

00011bb5 <__sprint>:
   11bb5:	55                   	push   %ebp
   11bb6:	89 e5                	mov    %esp,%ebp
   11bb8:	83 ec 38             	sub    $0x38,%esp
   11bbb:	8d 45 0c             	lea    0xc(%ebp),%eax
   11bbe:	83 c0 04             	add    $0x4,%eax
   11bc1:	89 45 f4             	mov    %eax,-0xc(%ebp)
   11bc4:	e9 3c 02 00 00       	jmp    11e05 <__sprint+0x250>
   11bc9:	80 7d f3 25          	cmpb   $0x25,-0xd(%ebp)
   11bcd:	0f 85 23 02 00 00    	jne    11df6 <__sprint+0x241>
   11bd3:	c7 45 ec 00 00 00 00 	movl   $0x0,-0x14(%ebp)
   11bda:	c7 45 e4 20 00 00 00 	movl   $0x20,-0x1c(%ebp)
   11be1:	c7 45 e8 00 00 00 00 	movl   $0x0,-0x18(%ebp)
   11be8:	8b 45 0c             	mov    0xc(%ebp),%eax
   11beb:	8d 50 01             	lea    0x1(%eax),%edx
   11bee:	89 55 0c             	mov    %edx,0xc(%ebp)
   11bf1:	0f b6 00             	movzbl (%eax),%eax
   11bf4:	88 45 f3             	mov    %al,-0xd(%ebp)
   11bf7:	80 7d f3 2d          	cmpb   $0x2d,-0xd(%ebp)
   11bfb:	75 16                	jne    11c13 <__sprint+0x5e>
   11bfd:	c7 45 ec 01 00 00 00 	movl   $0x1,-0x14(%ebp)
   11c04:	8b 45 0c             	mov    0xc(%ebp),%eax
   11c07:	8d 50 01             	lea    0x1(%eax),%edx
   11c0a:	89 55 0c             	mov    %edx,0xc(%ebp)
   11c0d:	0f b6 00             	movzbl (%eax),%eax
   11c10:	88 45 f3             	mov    %al,-0xd(%ebp)
   11c13:	80 7d f3 30          	cmpb   $0x30,-0xd(%ebp)
   11c17:	75 40                	jne    11c59 <__sprint+0xa4>
   11c19:	c7 45 e4 30 00 00 00 	movl   $0x30,-0x1c(%ebp)
   11c20:	8b 45 0c             	mov    0xc(%ebp),%eax
   11c23:	8d 50 01             	lea    0x1(%eax),%edx
   11c26:	89 55 0c             	mov    %edx,0xc(%ebp)
   11c29:	0f b6 00             	movzbl (%eax),%eax
   11c2c:	88 45 f3             	mov    %al,-0xd(%ebp)
   11c2f:	eb 28                	jmp    11c59 <__sprint+0xa4>
   11c31:	8b 55 e8             	mov    -0x18(%ebp),%edx
   11c34:	89 d0                	mov    %edx,%eax
   11c36:	c1 e0 02             	shl    $0x2,%eax
   11c39:	01 d0                	add    %edx,%eax
   11c3b:	01 c0                	add    %eax,%eax
   11c3d:	89 45 e8             	mov    %eax,-0x18(%ebp)
   11c40:	0f be 45 f3          	movsbl -0xd(%ebp),%eax
   11c44:	83 e8 30             	sub    $0x30,%eax
   11c47:	01 45 e8             	add    %eax,-0x18(%ebp)
   11c4a:	8b 45 0c             	mov    0xc(%ebp),%eax
   11c4d:	8d 50 01             	lea    0x1(%eax),%edx
   11c50:	89 55 0c             	mov    %edx,0xc(%ebp)
   11c53:	0f b6 00             	movzbl (%eax),%eax
   11c56:	88 45 f3             	mov    %al,-0xd(%ebp)
   11c59:	80 7d f3 2f          	cmpb   $0x2f,-0xd(%ebp)
   11c5d:	7e 06                	jle    11c65 <__sprint+0xb0>
   11c5f:	80 7d f3 39          	cmpb   $0x39,-0xd(%ebp)
   11c63:	7e cc                	jle    11c31 <__sprint+0x7c>
   11c65:	0f be 45 f3          	movsbl -0xd(%ebp),%eax
   11c69:	83 e8 63             	sub    $0x63,%eax
   11c6c:	83 f8 15             	cmp    $0x15,%eax
   11c6f:	0f 87 90 01 00 00    	ja     11e05 <__sprint+0x250>
   11c75:	8b 04 85 64 84 01 00 	mov    0x18464(,%eax,4),%eax
   11c7c:	ff e0                	jmp    *%eax
   11c7e:	8b 45 f4             	mov    -0xc(%ebp),%eax
   11c81:	8d 50 04             	lea    0x4(%eax),%edx
   11c84:	89 55 f4             	mov    %edx,-0xc(%ebp)
   11c87:	8b 00                	mov    (%eax),%eax
   11c89:	88 45 f3             	mov    %al,-0xd(%ebp)
   11c8c:	0f b6 45 f3          	movzbl -0xd(%ebp),%eax
   11c90:	88 45 d0             	mov    %al,-0x30(%ebp)
   11c93:	c6 45 d1 00          	movb   $0x0,-0x2f(%ebp)
   11c97:	ff 75 e4             	pushl  -0x1c(%ebp)
   11c9a:	ff 75 ec             	pushl  -0x14(%ebp)
   11c9d:	ff 75 e8             	pushl  -0x18(%ebp)
   11ca0:	6a 01                	push   $0x1
   11ca2:	8d 45 d0             	lea    -0x30(%ebp),%eax
   11ca5:	50                   	push   %eax
   11ca6:	ff 75 08             	pushl  0x8(%ebp)
   11ca9:	e8 73 fe ff ff       	call   11b21 <__padstr>
   11cae:	83 c4 18             	add    $0x18,%esp
   11cb1:	89 45 08             	mov    %eax,0x8(%ebp)
   11cb4:	e9 4c 01 00 00       	jmp    11e05 <__sprint+0x250>
   11cb9:	8b 45 f4             	mov    -0xc(%ebp),%eax
   11cbc:	8d 50 04             	lea    0x4(%eax),%edx
   11cbf:	89 55 f4             	mov    %edx,-0xc(%ebp)
   11cc2:	8b 00                	mov    (%eax),%eax
   11cc4:	83 ec 08             	sub    $0x8,%esp
   11cc7:	50                   	push   %eax
   11cc8:	8d 45 d0             	lea    -0x30(%ebp),%eax
   11ccb:	50                   	push   %eax
   11ccc:	e8 45 02 00 00       	call   11f16 <__cvtdec>
   11cd1:	83 c4 10             	add    $0x10,%esp
   11cd4:	89 45 e0             	mov    %eax,-0x20(%ebp)
   11cd7:	83 ec 08             	sub    $0x8,%esp
   11cda:	ff 75 e4             	pushl  -0x1c(%ebp)
   11cdd:	ff 75 ec             	pushl  -0x14(%ebp)
   11ce0:	ff 75 e8             	pushl  -0x18(%ebp)
   11ce3:	ff 75 e0             	pushl  -0x20(%ebp)
   11ce6:	8d 45 d0             	lea    -0x30(%ebp),%eax
   11ce9:	50                   	push   %eax
   11cea:	ff 75 08             	pushl  0x8(%ebp)
   11ced:	e8 2f fe ff ff       	call   11b21 <__padstr>
   11cf2:	83 c4 20             	add    $0x20,%esp
   11cf5:	89 45 08             	mov    %eax,0x8(%ebp)
   11cf8:	e9 08 01 00 00       	jmp    11e05 <__sprint+0x250>
   11cfd:	8b 45 f4             	mov    -0xc(%ebp),%eax
   11d00:	8d 50 04             	lea    0x4(%eax),%edx
   11d03:	89 55 f4             	mov    %edx,-0xc(%ebp)
   11d06:	8b 00                	mov    (%eax),%eax
   11d08:	89 45 dc             	mov    %eax,-0x24(%ebp)
   11d0b:	83 ec 08             	sub    $0x8,%esp
   11d0e:	ff 75 e4             	pushl  -0x1c(%ebp)
   11d11:	ff 75 ec             	pushl  -0x14(%ebp)
   11d14:	ff 75 e8             	pushl  -0x18(%ebp)
   11d17:	6a ff                	push   $0xffffffff
   11d19:	ff 75 dc             	pushl  -0x24(%ebp)
   11d1c:	ff 75 08             	pushl  0x8(%ebp)
   11d1f:	e8 fd fd ff ff       	call   11b21 <__padstr>
   11d24:	83 c4 20             	add    $0x20,%esp
   11d27:	89 45 08             	mov    %eax,0x8(%ebp)
   11d2a:	e9 d6 00 00 00       	jmp    11e05 <__sprint+0x250>
   11d2f:	8b 45 f4             	mov    -0xc(%ebp),%eax
   11d32:	8d 50 04             	lea    0x4(%eax),%edx
   11d35:	89 55 f4             	mov    %edx,-0xc(%ebp)
   11d38:	8b 00                	mov    (%eax),%eax
   11d3a:	83 ec 08             	sub    $0x8,%esp
   11d3d:	50                   	push   %eax
   11d3e:	8d 45 d0             	lea    -0x30(%ebp),%eax
   11d41:	50                   	push   %eax
   11d42:	e8 48 02 00 00       	call   11f8f <__cvthex>
   11d47:	83 c4 10             	add    $0x10,%esp
   11d4a:	89 45 e0             	mov    %eax,-0x20(%ebp)
   11d4d:	83 ec 08             	sub    $0x8,%esp
   11d50:	ff 75 e4             	pushl  -0x1c(%ebp)
   11d53:	ff 75 ec             	pushl  -0x14(%ebp)
   11d56:	ff 75 e8             	pushl  -0x18(%ebp)
   11d59:	ff 75 e0             	pushl  -0x20(%ebp)
   11d5c:	8d 45 d0             	lea    -0x30(%ebp),%eax
   11d5f:	50                   	push   %eax
   11d60:	ff 75 08             	pushl  0x8(%ebp)
   11d63:	e8 b9 fd ff ff       	call   11b21 <__padstr>
   11d68:	83 c4 20             	add    $0x20,%esp
   11d6b:	89 45 08             	mov    %eax,0x8(%ebp)
   11d6e:	e9 92 00 00 00       	jmp    11e05 <__sprint+0x250>
   11d73:	8b 45 f4             	mov    -0xc(%ebp),%eax
   11d76:	8d 50 04             	lea    0x4(%eax),%edx
   11d79:	89 55 f4             	mov    %edx,-0xc(%ebp)
   11d7c:	8b 00                	mov    (%eax),%eax
   11d7e:	83 ec 08             	sub    $0x8,%esp
   11d81:	50                   	push   %eax
   11d82:	8d 45 d0             	lea    -0x30(%ebp),%eax
   11d85:	50                   	push   %eax
   11d86:	e8 83 02 00 00       	call   1200e <__cvtoct>
   11d8b:	83 c4 10             	add    $0x10,%esp
   11d8e:	89 45 e0             	mov    %eax,-0x20(%ebp)
   11d91:	83 ec 08             	sub    $0x8,%esp
   11d94:	ff 75 e4             	pushl  -0x1c(%ebp)
   11d97:	ff 75 ec             	pushl  -0x14(%ebp)
   11d9a:	ff 75 e8             	pushl  -0x18(%ebp)
   11d9d:	ff 75 e0             	pushl  -0x20(%ebp)
   11da0:	8d 45 d0             	lea    -0x30(%ebp),%eax
   11da3:	50                   	push   %eax
   11da4:	ff 75 08             	pushl  0x8(%ebp)
   11da7:	e8 75 fd ff ff       	call   11b21 <__padstr>
   11dac:	83 c4 20             	add    $0x20,%esp
   11daf:	89 45 08             	mov    %eax,0x8(%ebp)
   11db2:	eb 51                	jmp    11e05 <__sprint+0x250>
   11db4:	8b 45 f4             	mov    -0xc(%ebp),%eax
   11db7:	8d 50 04             	lea    0x4(%eax),%edx
   11dba:	89 55 f4             	mov    %edx,-0xc(%ebp)
   11dbd:	8b 00                	mov    (%eax),%eax
   11dbf:	83 ec 08             	sub    $0x8,%esp
   11dc2:	50                   	push   %eax
   11dc3:	8d 45 d0             	lea    -0x30(%ebp),%eax
   11dc6:	50                   	push   %eax
   11dc7:	e8 91 01 00 00       	call   11f5d <__cvtuns>
   11dcc:	83 c4 10             	add    $0x10,%esp
   11dcf:	89 45 e0             	mov    %eax,-0x20(%ebp)
   11dd2:	83 ec 08             	sub    $0x8,%esp
   11dd5:	ff 75 e4             	pushl  -0x1c(%ebp)
   11dd8:	ff 75 ec             	pushl  -0x14(%ebp)
   11ddb:	ff 75 e8             	pushl  -0x18(%ebp)
   11dde:	ff 75 e0             	pushl  -0x20(%ebp)
   11de1:	8d 45 d0             	lea    -0x30(%ebp),%eax
   11de4:	50                   	push   %eax
   11de5:	ff 75 08             	pushl  0x8(%ebp)
   11de8:	e8 34 fd ff ff       	call   11b21 <__padstr>
   11ded:	83 c4 20             	add    $0x20,%esp
   11df0:	89 45 08             	mov    %eax,0x8(%ebp)
   11df3:	90                   	nop
   11df4:	eb 0f                	jmp    11e05 <__sprint+0x250>
   11df6:	8b 45 08             	mov    0x8(%ebp),%eax
   11df9:	8d 50 01             	lea    0x1(%eax),%edx
   11dfc:	89 55 08             	mov    %edx,0x8(%ebp)
   11dff:	0f b6 55 f3          	movzbl -0xd(%ebp),%edx
   11e03:	88 10                	mov    %dl,(%eax)
   11e05:	8b 45 0c             	mov    0xc(%ebp),%eax
   11e08:	8d 50 01             	lea    0x1(%eax),%edx
   11e0b:	89 55 0c             	mov    %edx,0xc(%ebp)
   11e0e:	0f b6 00             	movzbl (%eax),%eax
   11e11:	88 45 f3             	mov    %al,-0xd(%ebp)
   11e14:	80 7d f3 00          	cmpb   $0x0,-0xd(%ebp)
   11e18:	0f 85 ab fd ff ff    	jne    11bc9 <__sprint+0x14>
   11e1e:	8b 45 08             	mov    0x8(%ebp),%eax
   11e21:	c6 00 00             	movb   $0x0,(%eax)
   11e24:	90                   	nop
   11e25:	c9                   	leave  
   11e26:	c3                   	ret    

00011e27 <__cvtdec0>:
   11e27:	55                   	push   %ebp
   11e28:	89 e5                	mov    %esp,%ebp
   11e2a:	83 ec 18             	sub    $0x18,%esp
   11e2d:	8b 4d 0c             	mov    0xc(%ebp),%ecx
   11e30:	ba 67 66 66 66       	mov    $0x66666667,%edx
   11e35:	89 c8                	mov    %ecx,%eax
   11e37:	f7 ea                	imul   %edx
   11e39:	c1 fa 02             	sar    $0x2,%edx
   11e3c:	89 c8                	mov    %ecx,%eax
   11e3e:	c1 f8 1f             	sar    $0x1f,%eax
   11e41:	29 c2                	sub    %eax,%edx
   11e43:	89 d0                	mov    %edx,%eax
   11e45:	89 45 f4             	mov    %eax,-0xc(%ebp)
   11e48:	83 7d f4 00          	cmpl   $0x0,-0xc(%ebp)
   11e4c:	79 0e                	jns    11e5c <__cvtdec0+0x35>
   11e4e:	c7 45 f4 cc cc cc 0c 	movl   $0xccccccc,-0xc(%ebp)
   11e55:	c7 45 0c 08 00 00 00 	movl   $0x8,0xc(%ebp)
   11e5c:	83 7d f4 00          	cmpl   $0x0,-0xc(%ebp)
   11e60:	74 14                	je     11e76 <__cvtdec0+0x4f>
   11e62:	83 ec 08             	sub    $0x8,%esp
   11e65:	ff 75 f4             	pushl  -0xc(%ebp)
   11e68:	ff 75 08             	pushl  0x8(%ebp)
   11e6b:	e8 b7 ff ff ff       	call   11e27 <__cvtdec0>
   11e70:	83 c4 10             	add    $0x10,%esp
   11e73:	89 45 08             	mov    %eax,0x8(%ebp)
   11e76:	8b 4d 0c             	mov    0xc(%ebp),%ecx
   11e79:	ba 67 66 66 66       	mov    $0x66666667,%edx
   11e7e:	89 c8                	mov    %ecx,%eax
   11e80:	f7 ea                	imul   %edx
   11e82:	c1 fa 02             	sar    $0x2,%edx
   11e85:	89 c8                	mov    %ecx,%eax
   11e87:	c1 f8 1f             	sar    $0x1f,%eax
   11e8a:	29 c2                	sub    %eax,%edx
   11e8c:	89 d0                	mov    %edx,%eax
   11e8e:	c1 e0 02             	shl    $0x2,%eax
   11e91:	01 d0                	add    %edx,%eax
   11e93:	01 c0                	add    %eax,%eax
   11e95:	29 c1                	sub    %eax,%ecx
   11e97:	89 ca                	mov    %ecx,%edx
   11e99:	89 d0                	mov    %edx,%eax
   11e9b:	8d 48 30             	lea    0x30(%eax),%ecx
   11e9e:	8b 45 08             	mov    0x8(%ebp),%eax
   11ea1:	8d 50 01             	lea    0x1(%eax),%edx
   11ea4:	89 55 08             	mov    %edx,0x8(%ebp)
   11ea7:	89 ca                	mov    %ecx,%edx
   11ea9:	88 10                	mov    %dl,(%eax)
   11eab:	8b 45 08             	mov    0x8(%ebp),%eax
   11eae:	c9                   	leave  
   11eaf:	c3                   	ret    

00011eb0 <__cvtuns0>:
   11eb0:	55                   	push   %ebp
   11eb1:	89 e5                	mov    %esp,%ebp
   11eb3:	83 ec 18             	sub    $0x18,%esp
   11eb6:	8b 45 0c             	mov    0xc(%ebp),%eax
   11eb9:	ba cd cc cc cc       	mov    $0xcccccccd,%edx
   11ebe:	f7 e2                	mul    %edx
   11ec0:	89 d0                	mov    %edx,%eax
   11ec2:	c1 e8 03             	shr    $0x3,%eax
   11ec5:	89 45 f4             	mov    %eax,-0xc(%ebp)
   11ec8:	83 7d f4 00          	cmpl   $0x0,-0xc(%ebp)
   11ecc:	74 15                	je     11ee3 <__cvtuns0+0x33>
   11ece:	8b 45 f4             	mov    -0xc(%ebp),%eax
   11ed1:	83 ec 08             	sub    $0x8,%esp
   11ed4:	50                   	push   %eax
   11ed5:	ff 75 08             	pushl  0x8(%ebp)
   11ed8:	e8 4a ff ff ff       	call   11e27 <__cvtdec0>
   11edd:	83 c4 10             	add    $0x10,%esp
   11ee0:	89 45 08             	mov    %eax,0x8(%ebp)
   11ee3:	8b 4d 0c             	mov    0xc(%ebp),%ecx
   11ee6:	ba cd cc cc cc       	mov    $0xcccccccd,%edx
   11eeb:	89 c8                	mov    %ecx,%eax
   11eed:	f7 e2                	mul    %edx
   11eef:	c1 ea 03             	shr    $0x3,%edx
   11ef2:	89 d0                	mov    %edx,%eax
   11ef4:	c1 e0 02             	shl    $0x2,%eax
   11ef7:	01 d0                	add    %edx,%eax
   11ef9:	01 c0                	add    %eax,%eax
   11efb:	29 c1                	sub    %eax,%ecx
   11efd:	89 ca                	mov    %ecx,%edx
   11eff:	89 d0                	mov    %edx,%eax
   11f01:	8d 48 30             	lea    0x30(%eax),%ecx
   11f04:	8b 45 08             	mov    0x8(%ebp),%eax
   11f07:	8d 50 01             	lea    0x1(%eax),%edx
   11f0a:	89 55 08             	mov    %edx,0x8(%ebp)
   11f0d:	89 ca                	mov    %ecx,%edx
   11f0f:	88 10                	mov    %dl,(%eax)
   11f11:	8b 45 08             	mov    0x8(%ebp),%eax
   11f14:	c9                   	leave  
   11f15:	c3                   	ret    

00011f16 <__cvtdec>:
   11f16:	55                   	push   %ebp
   11f17:	89 e5                	mov    %esp,%ebp
   11f19:	83 ec 18             	sub    $0x18,%esp
   11f1c:	8b 45 08             	mov    0x8(%ebp),%eax
   11f1f:	89 45 f4             	mov    %eax,-0xc(%ebp)
   11f22:	83 7d 0c 00          	cmpl   $0x0,0xc(%ebp)
   11f26:	79 0f                	jns    11f37 <__cvtdec+0x21>
   11f28:	8b 45 f4             	mov    -0xc(%ebp),%eax
   11f2b:	8d 50 01             	lea    0x1(%eax),%edx
   11f2e:	89 55 f4             	mov    %edx,-0xc(%ebp)
   11f31:	c6 00 2d             	movb   $0x2d,(%eax)
   11f34:	f7 5d 0c             	negl   0xc(%ebp)
   11f37:	83 ec 08             	sub    $0x8,%esp
   11f3a:	ff 75 0c             	pushl  0xc(%ebp)
   11f3d:	ff 75 f4             	pushl  -0xc(%ebp)
   11f40:	e8 e2 fe ff ff       	call   11e27 <__cvtdec0>
   11f45:	83 c4 10             	add    $0x10,%esp
   11f48:	89 45 f4             	mov    %eax,-0xc(%ebp)
   11f4b:	8b 45 f4             	mov    -0xc(%ebp),%eax
   11f4e:	c6 00 00             	movb   $0x0,(%eax)
   11f51:	8b 55 f4             	mov    -0xc(%ebp),%edx
   11f54:	8b 45 08             	mov    0x8(%ebp),%eax
   11f57:	29 c2                	sub    %eax,%edx
   11f59:	89 d0                	mov    %edx,%eax
   11f5b:	c9                   	leave  
   11f5c:	c3                   	ret    

00011f5d <__cvtuns>:
   11f5d:	55                   	push   %ebp
   11f5e:	89 e5                	mov    %esp,%ebp
   11f60:	83 ec 18             	sub    $0x18,%esp
   11f63:	8b 45 08             	mov    0x8(%ebp),%eax
   11f66:	89 45 f4             	mov    %eax,-0xc(%ebp)
   11f69:	83 ec 08             	sub    $0x8,%esp
   11f6c:	ff 75 0c             	pushl  0xc(%ebp)
   11f6f:	ff 75 f4             	pushl  -0xc(%ebp)
   11f72:	e8 39 ff ff ff       	call   11eb0 <__cvtuns0>
   11f77:	83 c4 10             	add    $0x10,%esp
   11f7a:	89 45 f4             	mov    %eax,-0xc(%ebp)
   11f7d:	8b 45 f4             	mov    -0xc(%ebp),%eax
   11f80:	c6 00 00             	movb   $0x0,(%eax)
   11f83:	8b 55 f4             	mov    -0xc(%ebp),%edx
   11f86:	8b 45 08             	mov    0x8(%ebp),%eax
   11f89:	29 c2                	sub    %eax,%edx
   11f8b:	89 d0                	mov    %edx,%eax
   11f8d:	c9                   	leave  
   11f8e:	c3                   	ret    

00011f8f <__cvthex>:
   11f8f:	55                   	push   %ebp
   11f90:	89 e5                	mov    %esp,%ebp
   11f92:	83 ec 10             	sub    $0x10,%esp
   11f95:	c7 45 f8 00 00 00 00 	movl   $0x0,-0x8(%ebp)
   11f9c:	8b 45 08             	mov    0x8(%ebp),%eax
   11f9f:	89 45 f4             	mov    %eax,-0xc(%ebp)
   11fa2:	c7 45 fc 00 00 00 00 	movl   $0x0,-0x4(%ebp)
   11fa9:	eb 4b                	jmp    11ff6 <__cvthex+0x67>
   11fab:	8b 45 0c             	mov    0xc(%ebp),%eax
   11fae:	25 00 00 00 f0       	and    $0xf0000000,%eax
   11fb3:	89 45 f0             	mov    %eax,-0x10(%ebp)
   11fb6:	83 7d fc 07          	cmpl   $0x7,-0x4(%ebp)
   11fba:	74 0c                	je     11fc8 <__cvthex+0x39>
   11fbc:	83 7d f0 00          	cmpl   $0x0,-0x10(%ebp)
   11fc0:	75 06                	jne    11fc8 <__cvthex+0x39>
   11fc2:	83 7d f8 00          	cmpl   $0x0,-0x8(%ebp)
   11fc6:	74 26                	je     11fee <__cvthex+0x5f>
   11fc8:	c7 45 f8 01 00 00 00 	movl   $0x1,-0x8(%ebp)
   11fcf:	c1 7d f0 1c          	sarl   $0x1c,-0x10(%ebp)
   11fd3:	83 65 f0 0f          	andl   $0xf,-0x10(%ebp)
   11fd7:	8b 45 f4             	mov    -0xc(%ebp),%eax
   11fda:	8d 50 01             	lea    0x1(%eax),%edx
   11fdd:	89 55 f4             	mov    %edx,-0xc(%ebp)
   11fe0:	8b 55 f0             	mov    -0x10(%ebp),%edx
   11fe3:	81 c2 0c d5 01 00    	add    $0x1d50c,%edx
   11fe9:	0f b6 12             	movzbl (%edx),%edx
   11fec:	88 10                	mov    %dl,(%eax)
   11fee:	c1 65 0c 04          	shll   $0x4,0xc(%ebp)
   11ff2:	83 45 fc 01          	addl   $0x1,-0x4(%ebp)
   11ff6:	83 7d fc 07          	cmpl   $0x7,-0x4(%ebp)
   11ffa:	7e af                	jle    11fab <__cvthex+0x1c>
   11ffc:	8b 45 f4             	mov    -0xc(%ebp),%eax
   11fff:	c6 00 00             	movb   $0x0,(%eax)
   12002:	8b 55 f4             	mov    -0xc(%ebp),%edx
   12005:	8b 45 08             	mov    0x8(%ebp),%eax
   12008:	29 c2                	sub    %eax,%edx
   1200a:	89 d0                	mov    %edx,%eax
   1200c:	c9                   	leave  
   1200d:	c3                   	ret    

0001200e <__cvtoct>:
   1200e:	55                   	push   %ebp
   1200f:	89 e5                	mov    %esp,%ebp
   12011:	83 ec 10             	sub    $0x10,%esp
   12014:	c7 45 f8 00 00 00 00 	movl   $0x0,-0x8(%ebp)
   1201b:	8b 45 08             	mov    0x8(%ebp),%eax
   1201e:	89 45 f4             	mov    %eax,-0xc(%ebp)
   12021:	8b 45 0c             	mov    0xc(%ebp),%eax
   12024:	25 00 00 00 c0       	and    $0xc0000000,%eax
   12029:	89 45 f0             	mov    %eax,-0x10(%ebp)
   1202c:	c1 7d f0 1e          	sarl   $0x1e,-0x10(%ebp)
   12030:	c7 45 fc 00 00 00 00 	movl   $0x0,-0x4(%ebp)
   12037:	eb 4b                	jmp    12084 <__cvtoct+0x76>
   12039:	83 7d fc 0a          	cmpl   $0xa,-0x4(%ebp)
   1203d:	74 0c                	je     1204b <__cvtoct+0x3d>
   1203f:	83 7d f0 00          	cmpl   $0x0,-0x10(%ebp)
   12043:	75 06                	jne    1204b <__cvtoct+0x3d>
   12045:	83 7d f8 00          	cmpl   $0x0,-0x8(%ebp)
   12049:	74 22                	je     1206d <__cvtoct+0x5f>
   1204b:	c7 45 f8 01 00 00 00 	movl   $0x1,-0x8(%ebp)
   12052:	83 65 f0 07          	andl   $0x7,-0x10(%ebp)
   12056:	8b 45 f4             	mov    -0xc(%ebp),%eax
   12059:	8d 50 01             	lea    0x1(%eax),%edx
   1205c:	89 55 f4             	mov    %edx,-0xc(%ebp)
   1205f:	8b 55 f0             	mov    -0x10(%ebp),%edx
   12062:	81 c2 0c d5 01 00    	add    $0x1d50c,%edx
   12068:	0f b6 12             	movzbl (%edx),%edx
   1206b:	88 10                	mov    %dl,(%eax)
   1206d:	c1 65 0c 03          	shll   $0x3,0xc(%ebp)
   12071:	8b 45 0c             	mov    0xc(%ebp),%eax
   12074:	25 00 00 00 e0       	and    $0xe0000000,%eax
   12079:	89 45 f0             	mov    %eax,-0x10(%ebp)
   1207c:	c1 7d f0 1d          	sarl   $0x1d,-0x10(%ebp)
   12080:	83 45 fc 01          	addl   $0x1,-0x4(%ebp)
   12084:	83 7d fc 0a          	cmpl   $0xa,-0x4(%ebp)
   12088:	7e af                	jle    12039 <__cvtoct+0x2b>
   1208a:	8b 45 f4             	mov    -0xc(%ebp),%eax
   1208d:	c6 00 00             	movb   $0x0,(%eax)
   12090:	8b 55 f4             	mov    -0xc(%ebp),%edx
   12093:	8b 45 08             	mov    0x8(%ebp),%eax
   12096:	29 c2                	sub    %eax,%edx
   12098:	89 d0                	mov    %edx,%eax
   1209a:	c9                   	leave  
   1209b:	c3                   	ret    

0001209c <__default_unexpected_handler>:
   1209c:	55                   	push   %ebp
   1209d:	89 e5                	mov    %esp,%ebp
   1209f:	83 ec 08             	sub    $0x8,%esp
   120a2:	83 ec 0c             	sub    $0xc,%esp
   120a5:	68 bc 84 01 00       	push   $0x184bc
   120aa:	e8 db 01 00 00       	call   1228a <__panic>
   120af:	83 c4 10             	add    $0x10,%esp
   120b2:	90                   	nop
   120b3:	c9                   	leave  
   120b4:	c3                   	ret    

000120b5 <__default_expected_handler>:
   120b5:	55                   	push   %ebp
   120b6:	89 e5                	mov    %esp,%ebp
   120b8:	83 ec 08             	sub    $0x8,%esp
   120bb:	83 7d 08 1f          	cmpl   $0x1f,0x8(%ebp)
   120bf:	7e 2f                	jle    120f0 <__default_expected_handler+0x3b>
   120c1:	83 7d 08 2f          	cmpl   $0x2f,0x8(%ebp)
   120c5:	7f 29                	jg     120f0 <__default_expected_handler+0x3b>
   120c7:	83 ec 08             	sub    $0x8,%esp
   120ca:	6a 20                	push   $0x20
   120cc:	6a 20                	push   $0x20
   120ce:	e8 25 eb ff ff       	call   10bf8 <__outb>
   120d3:	83 c4 10             	add    $0x10,%esp
   120d6:	83 7d 08 27          	cmpl   $0x27,0x8(%ebp)
   120da:	7e 24                	jle    12100 <__default_expected_handler+0x4b>
   120dc:	83 ec 08             	sub    $0x8,%esp
   120df:	6a 20                	push   $0x20
   120e1:	68 a0 00 00 00       	push   $0xa0
   120e6:	e8 0d eb ff ff       	call   10bf8 <__outb>
   120eb:	83 c4 10             	add    $0x10,%esp
   120ee:	eb 10                	jmp    12100 <__default_expected_handler+0x4b>
   120f0:	83 ec 0c             	sub    $0xc,%esp
   120f3:	68 d4 84 01 00       	push   $0x184d4
   120f8:	e8 8d 01 00 00       	call   1228a <__panic>
   120fd:	83 c4 10             	add    $0x10,%esp
   12100:	90                   	nop
   12101:	c9                   	leave  
   12102:	c3                   	ret    

00012103 <__default_mystery_handler>:
   12103:	55                   	push   %ebp
   12104:	89 e5                	mov    %esp,%ebp
   12106:	83 ec 08             	sub    $0x8,%esp
   12109:	83 ec 08             	sub    $0x8,%esp
   1210c:	6a 20                	push   $0x20
   1210e:	6a 20                	push   $0x20
   12110:	e8 e3 ea ff ff       	call   10bf8 <__outb>
   12115:	83 c4 10             	add    $0x10,%esp
   12118:	90                   	nop
   12119:	c9                   	leave  
   1211a:	c3                   	ret    

0001211b <init_pic>:
   1211b:	55                   	push   %ebp
   1211c:	89 e5                	mov    %esp,%ebp
   1211e:	83 ec 08             	sub    $0x8,%esp
   12121:	83 ec 08             	sub    $0x8,%esp
   12124:	6a 11                	push   $0x11
   12126:	6a 20                	push   $0x20
   12128:	e8 cb ea ff ff       	call   10bf8 <__outb>
   1212d:	83 c4 10             	add    $0x10,%esp
   12130:	83 ec 08             	sub    $0x8,%esp
   12133:	6a 11                	push   $0x11
   12135:	68 a0 00 00 00       	push   $0xa0
   1213a:	e8 b9 ea ff ff       	call   10bf8 <__outb>
   1213f:	83 c4 10             	add    $0x10,%esp
   12142:	83 ec 08             	sub    $0x8,%esp
   12145:	6a 20                	push   $0x20
   12147:	6a 21                	push   $0x21
   12149:	e8 aa ea ff ff       	call   10bf8 <__outb>
   1214e:	83 c4 10             	add    $0x10,%esp
   12151:	83 ec 08             	sub    $0x8,%esp
   12154:	6a 28                	push   $0x28
   12156:	68 a1 00 00 00       	push   $0xa1
   1215b:	e8 98 ea ff ff       	call   10bf8 <__outb>
   12160:	83 c4 10             	add    $0x10,%esp
   12163:	83 ec 08             	sub    $0x8,%esp
   12166:	6a 04                	push   $0x4
   12168:	6a 21                	push   $0x21
   1216a:	e8 89 ea ff ff       	call   10bf8 <__outb>
   1216f:	83 c4 10             	add    $0x10,%esp
   12172:	83 ec 08             	sub    $0x8,%esp
   12175:	6a 02                	push   $0x2
   12177:	68 a1 00 00 00       	push   $0xa1
   1217c:	e8 77 ea ff ff       	call   10bf8 <__outb>
   12181:	83 c4 10             	add    $0x10,%esp
   12184:	83 ec 08             	sub    $0x8,%esp
   12187:	6a 01                	push   $0x1
   12189:	6a 21                	push   $0x21
   1218b:	e8 68 ea ff ff       	call   10bf8 <__outb>
   12190:	83 c4 10             	add    $0x10,%esp
   12193:	83 ec 08             	sub    $0x8,%esp
   12196:	6a 01                	push   $0x1
   12198:	68 a1 00 00 00       	push   $0xa1
   1219d:	e8 56 ea ff ff       	call   10bf8 <__outb>
   121a2:	83 c4 10             	add    $0x10,%esp
   121a5:	83 ec 08             	sub    $0x8,%esp
   121a8:	6a 00                	push   $0x0
   121aa:	6a 21                	push   $0x21
   121ac:	e8 47 ea ff ff       	call   10bf8 <__outb>
   121b1:	83 c4 10             	add    $0x10,%esp
   121b4:	83 ec 08             	sub    $0x8,%esp
   121b7:	6a 00                	push   $0x0
   121b9:	68 a1 00 00 00       	push   $0xa1
   121be:	e8 35 ea ff ff       	call   10bf8 <__outb>
   121c3:	83 c4 10             	add    $0x10,%esp
   121c6:	90                   	nop
   121c7:	c9                   	leave  
   121c8:	c3                   	ret    

000121c9 <set_idt_entry>:
   121c9:	55                   	push   %ebp
   121ca:	89 e5                	mov    %esp,%ebp
   121cc:	83 ec 10             	sub    $0x10,%esp
   121cf:	8b 45 08             	mov    0x8(%ebp),%eax
   121d2:	c1 e0 03             	shl    $0x3,%eax
   121d5:	05 00 25 00 00       	add    $0x2500,%eax
   121da:	89 45 fc             	mov    %eax,-0x4(%ebp)
   121dd:	8b 45 0c             	mov    0xc(%ebp),%eax
   121e0:	89 c2                	mov    %eax,%edx
   121e2:	8b 45 fc             	mov    -0x4(%ebp),%eax
   121e5:	66 89 10             	mov    %dx,(%eax)
   121e8:	8b 45 fc             	mov    -0x4(%ebp),%eax
   121eb:	66 c7 40 02 10 00    	movw   $0x10,0x2(%eax)
   121f1:	8b 45 fc             	mov    -0x4(%ebp),%eax
   121f4:	66 c7 40 04 00 8e    	movw   $0x8e00,0x4(%eax)
   121fa:	8b 45 0c             	mov    0xc(%ebp),%eax
   121fd:	c1 e8 10             	shr    $0x10,%eax
   12200:	89 c2                	mov    %eax,%edx
   12202:	8b 45 fc             	mov    -0x4(%ebp),%eax
   12205:	66 89 50 06          	mov    %dx,0x6(%eax)
   12209:	90                   	nop
   1220a:	c9                   	leave  
   1220b:	c3                   	ret    

0001220c <init_idt>:
   1220c:	55                   	push   %ebp
   1220d:	89 e5                	mov    %esp,%ebp
   1220f:	83 ec 18             	sub    $0x18,%esp
   12212:	c7 45 f4 00 00 00 00 	movl   $0x0,-0xc(%ebp)
   12219:	eb 2d                	jmp    12248 <init_idt+0x3c>
   1221b:	8b 45 f4             	mov    -0xc(%ebp),%eax
   1221e:	8b 04 85 00 d0 01 00 	mov    0x1d000(,%eax,4),%eax
   12225:	50                   	push   %eax
   12226:	ff 75 f4             	pushl  -0xc(%ebp)
   12229:	e8 9b ff ff ff       	call   121c9 <set_idt_entry>
   1222e:	83 c4 08             	add    $0x8,%esp
   12231:	83 ec 08             	sub    $0x8,%esp
   12234:	68 9c 20 01 00       	push   $0x1209c
   12239:	ff 75 f4             	pushl  -0xc(%ebp)
   1223c:	e8 78 00 00 00       	call   122b9 <__install_isr>
   12241:	83 c4 10             	add    $0x10,%esp
   12244:	83 45 f4 01          	addl   $0x1,-0xc(%ebp)
   12248:	81 7d f4 ff 00 00 00 	cmpl   $0xff,-0xc(%ebp)
   1224f:	7e ca                	jle    1221b <init_idt+0xf>
   12251:	83 ec 08             	sub    $0x8,%esp
   12254:	68 b5 20 01 00       	push   $0x120b5
   12259:	6a 21                	push   $0x21
   1225b:	e8 59 00 00 00       	call   122b9 <__install_isr>
   12260:	83 c4 10             	add    $0x10,%esp
   12263:	83 ec 08             	sub    $0x8,%esp
   12266:	68 b5 20 01 00       	push   $0x120b5
   1226b:	6a 20                	push   $0x20
   1226d:	e8 47 00 00 00       	call   122b9 <__install_isr>
   12272:	83 c4 10             	add    $0x10,%esp
   12275:	83 ec 08             	sub    $0x8,%esp
   12278:	68 03 21 01 00       	push   $0x12103
   1227d:	6a 27                	push   $0x27
   1227f:	e8 35 00 00 00       	call   122b9 <__install_isr>
   12284:	83 c4 10             	add    $0x10,%esp
   12287:	90                   	nop
   12288:	c9                   	leave  
   12289:	c3                   	ret    

0001228a <__panic>:
   1228a:	55                   	push   %ebp
   1228b:	89 e5                	mov    %esp,%ebp
   1228d:	83 ec 08             	sub    $0x8,%esp
   12290:	fa                   	cli    
   12291:	83 ec 08             	sub    $0x8,%esp
   12294:	ff 75 08             	pushl  0x8(%ebp)
   12297:	68 f5 84 01 00       	push   $0x184f5
   1229c:	e8 b2 f3 ff ff       	call   11653 <__cio_printf>
   122a1:	83 c4 10             	add    $0x10,%esp
   122a4:	eb fe                	jmp    122a4 <__panic+0x1a>

000122a6 <__init_interrupts>:
   122a6:	55                   	push   %ebp
   122a7:	89 e5                	mov    %esp,%ebp
   122a9:	83 ec 08             	sub    $0x8,%esp
   122ac:	e8 5b ff ff ff       	call   1220c <init_idt>
   122b1:	e8 65 fe ff ff       	call   1211b <init_pic>
   122b6:	90                   	nop
   122b7:	c9                   	leave  
   122b8:	c3                   	ret    

000122b9 <__install_isr>:
   122b9:	55                   	push   %ebp
   122ba:	89 e5                	mov    %esp,%ebp
   122bc:	83 ec 10             	sub    $0x10,%esp
   122bf:	8b 45 08             	mov    0x8(%ebp),%eax
   122c2:	8b 04 85 80 f3 01 00 	mov    0x1f380(,%eax,4),%eax
   122c9:	89 45 fc             	mov    %eax,-0x4(%ebp)
   122cc:	8b 45 08             	mov    0x8(%ebp),%eax
   122cf:	8b 55 0c             	mov    0xc(%ebp),%edx
   122d2:	89 14 85 80 f3 01 00 	mov    %edx,0x1f380(,%eax,4)
   122d9:	8b 45 fc             	mov    -0x4(%ebp),%eax
   122dc:	c9                   	leave  
   122dd:	c3                   	ret    

000122de <__delay>:
   122de:	55                   	push   %ebp
   122df:	89 e5                	mov    %esp,%ebp
   122e1:	83 ec 10             	sub    $0x10,%esp
   122e4:	eb 16                	jmp    122fc <__delay+0x1e>
   122e6:	c7 45 fc 00 00 00 00 	movl   $0x0,-0x4(%ebp)
   122ed:	eb 04                	jmp    122f3 <__delay+0x15>
   122ef:	83 45 fc 01          	addl   $0x1,-0x4(%ebp)
   122f3:	81 7d fc 7f 96 98 00 	cmpl   $0x98967f,-0x4(%ebp)
   122fa:	7e f3                	jle    122ef <__delay+0x11>
   122fc:	83 6d 08 01          	subl   $0x1,0x8(%ebp)
   12300:	83 7d 08 00          	cmpl   $0x0,0x8(%ebp)
   12304:	79 e0                	jns    122e6 <__delay+0x8>
   12306:	90                   	nop
   12307:	c9                   	leave  
   12308:	c3                   	ret    

00012309 <_clk_isr>:
   12309:	55                   	push   %ebp
   1230a:	89 e5                	mov    %esp,%ebp
   1230c:	57                   	push   %edi
   1230d:	56                   	push   %esi
   1230e:	53                   	push   %ebx
   1230f:	83 ec 5c             	sub    $0x5c,%esp
   12312:	a1 cc d6 01 00       	mov    0x1d6cc,%eax
   12317:	83 c0 01             	add    $0x1,%eax
   1231a:	a3 cc d6 01 00       	mov    %eax,0x1d6cc
   1231f:	a1 cc d6 01 00       	mov    0x1d6cc,%eax
   12324:	83 f8 64             	cmp    $0x64,%eax
   12327:	75 39                	jne    12362 <_clk_isr+0x59>
   12329:	c7 05 cc d6 01 00 00 	movl   $0x0,0x1d6cc
   12330:	00 00 00 
   12333:	a1 d0 d6 01 00       	mov    0x1d6d0,%eax
   12338:	83 c0 01             	add    $0x1,%eax
   1233b:	a3 d0 d6 01 00       	mov    %eax,0x1d6d0
   12340:	a1 d0 d6 01 00       	mov    0x1d6d0,%eax
   12345:	83 e0 03             	and    $0x3,%eax
   12348:	0f b6 80 99 85 01 00 	movzbl 0x18599(%eax),%eax
   1234f:	0f be c0             	movsbl %al,%eax
   12352:	83 ec 04             	sub    $0x4,%esp
   12355:	50                   	push   %eax
   12356:	6a 00                	push   $0x0
   12358:	6a 00                	push   $0x0
   1235a:	e8 c2 ea ff ff       	call   10e21 <__cio_putchar_at>
   1235f:	83 c4 10             	add    $0x10,%esp
   12362:	8b 0d 80 f7 01 00    	mov    0x1f780,%ecx
   12368:	ba f1 19 76 05       	mov    $0x57619f1,%edx
   1236d:	89 c8                	mov    %ecx,%eax
   1236f:	f7 e2                	mul    %edx
   12371:	89 d0                	mov    %edx,%eax
   12373:	c1 e8 06             	shr    $0x6,%eax
   12376:	69 c0 b8 0b 00 00    	imul   $0xbb8,%eax,%eax
   1237c:	29 c1                	sub    %eax,%ecx
   1237e:	89 c8                	mov    %ecx,%eax
   12380:	85 c0                	test   %eax,%eax
   12382:	0f 85 9e 00 00 00    	jne    12426 <_clk_isr+0x11d>
   12388:	83 ec 0c             	sub    $0xc,%esp
   1238b:	8d 45 c0             	lea    -0x40(%ebp),%eax
   1238e:	50                   	push   %eax
   1238f:	e8 f3 11 00 00       	call   13587 <_pcount>
   12394:	83 c4 10             	add    $0x10,%esp
   12397:	a1 64 ff 01 00       	mov    0x1ff64,%eax
   1239c:	83 ec 0c             	sub    $0xc,%esp
   1239f:	50                   	push   %eax
   123a0:	e8 d4 19 00 00       	call   13d79 <_q_length>
   123a5:	83 c4 10             	add    $0x10,%esp
   123a8:	89 c6                	mov    %eax,%esi
   123aa:	a1 68 ff 01 00       	mov    0x1ff68,%eax
   123af:	83 ec 0c             	sub    $0xc,%esp
   123b2:	50                   	push   %eax
   123b3:	e8 c1 19 00 00       	call   13d79 <_q_length>
   123b8:	83 c4 10             	add    $0x10,%esp
   123bb:	89 45 b4             	mov    %eax,-0x4c(%ebp)
   123be:	8b 1d 50 ff 01 00    	mov    0x1ff50,%ebx
   123c4:	8b 3d 4c ff 01 00    	mov    0x1ff4c,%edi
   123ca:	89 7d b0             	mov    %edi,-0x50(%ebp)
   123cd:	8b 0d 48 ff 01 00    	mov    0x1ff48,%ecx
   123d3:	89 4d ac             	mov    %ecx,-0x54(%ebp)
   123d6:	8b 55 e0             	mov    -0x20(%ebp),%edx
   123d9:	89 55 a8             	mov    %edx,-0x58(%ebp)
   123dc:	8b 45 dc             	mov    -0x24(%ebp),%eax
   123df:	89 45 a4             	mov    %eax,-0x5c(%ebp)
   123e2:	8b 7d d8             	mov    -0x28(%ebp),%edi
   123e5:	89 7d a0             	mov    %edi,-0x60(%ebp)
   123e8:	8b 4d d4             	mov    -0x2c(%ebp),%ecx
   123eb:	89 4d 9c             	mov    %ecx,-0x64(%ebp)
   123ee:	8b 7d d0             	mov    -0x30(%ebp),%edi
   123f1:	8b 4d cc             	mov    -0x34(%ebp),%ecx
   123f4:	8b 55 c8             	mov    -0x38(%ebp),%edx
   123f7:	8b 45 c4             	mov    -0x3c(%ebp),%eax
   123fa:	56                   	push   %esi
   123fb:	ff 75 b4             	pushl  -0x4c(%ebp)
   123fe:	53                   	push   %ebx
   123ff:	ff 75 b0             	pushl  -0x50(%ebp)
   12402:	ff 75 ac             	pushl  -0x54(%ebp)
   12405:	ff 75 a8             	pushl  -0x58(%ebp)
   12408:	ff 75 a4             	pushl  -0x5c(%ebp)
   1240b:	ff 75 a0             	pushl  -0x60(%ebp)
   1240e:	ff 75 9c             	pushl  -0x64(%ebp)
   12411:	57                   	push   %edi
   12412:	51                   	push   %ecx
   12413:	52                   	push   %edx
   12414:	50                   	push   %eax
   12415:	68 0c 85 01 00       	push   $0x1850c
   1241a:	6a 00                	push   $0x0
   1241c:	6a 02                	push   $0x2
   1241e:	e8 10 f2 ff ff       	call   11633 <__cio_printf_at>
   12423:	83 c4 40             	add    $0x40,%esp
   12426:	a1 80 f7 01 00       	mov    0x1f780,%eax
   1242b:	83 c0 01             	add    $0x1,%eax
   1242e:	a3 80 f7 01 00       	mov    %eax,0x1f780
   12433:	a1 68 ff 01 00       	mov    0x1ff68,%eax
   12438:	83 ec 04             	sub    $0x4,%esp
   1243b:	6a 00                	push   $0x0
   1243d:	6a 00                	push   $0x0
   1243f:	50                   	push   %eax
   12440:	e8 f8 1a 00 00       	call   13f3d <_q_find>
   12445:	83 c4 10             	add    $0x10,%esp
   12448:	89 45 e4             	mov    %eax,-0x1c(%ebp)
   1244b:	83 7d e4 00          	cmpl   $0x0,-0x1c(%ebp)
   1244f:	74 7c                	je     124cd <_clk_isr+0x1c4>
   12451:	8b 45 e4             	mov    -0x1c(%ebp),%eax
   12454:	8b 00                	mov    (%eax),%eax
   12456:	85 c0                	test   %eax,%eax
   12458:	74 73                	je     124cd <_clk_isr+0x1c4>
   1245a:	8b 45 e4             	mov    -0x1c(%ebp),%eax
   1245d:	8b 10                	mov    (%eax),%edx
   1245f:	a1 80 f7 01 00       	mov    0x1f780,%eax
   12464:	39 c2                	cmp    %eax,%edx
   12466:	77 65                	ja     124cd <_clk_isr+0x1c4>
   12468:	a1 68 ff 01 00       	mov    0x1ff68,%eax
   1246d:	83 ec 08             	sub    $0x8,%esp
   12470:	8d 55 b8             	lea    -0x48(%ebp),%edx
   12473:	52                   	push   %edx
   12474:	50                   	push   %eax
   12475:	e8 34 1b 00 00       	call   13fae <_q_remove>
   1247a:	83 c4 10             	add    $0x10,%esp
   1247d:	84 c0                	test   %al,%al
   1247f:	75 38                	jne    124b9 <_clk_isr+0x1b0>
   12481:	83 ec 04             	sub    $0x4,%esp
   12484:	68 59 85 01 00       	push   $0x18559
   12489:	6a 01                	push   $0x1
   1248b:	6a 7b                	push   $0x7b
   1248d:	68 74 85 01 00       	push   $0x18574
   12492:	68 a8 85 01 00       	push   $0x185a8
   12497:	68 7c 85 01 00       	push   $0x1857c
   1249c:	68 a0 f7 01 00       	push   $0x1f7a0
   124a1:	e8 0f f7 ff ff       	call   11bb5 <__sprint>
   124a6:	83 c4 20             	add    $0x20,%esp
   124a9:	83 ec 0c             	sub    $0xc,%esp
   124ac:	68 a0 f7 01 00       	push   $0x1f7a0
   124b1:	e8 ef 04 00 00       	call   129a5 <_kpanic>
   124b6:	83 c4 10             	add    $0x10,%esp
   124b9:	8b 45 bc             	mov    -0x44(%ebp),%eax
   124bc:	83 ec 0c             	sub    $0xc,%esp
   124bf:	50                   	push   %eax
   124c0:	e8 9a 1e 00 00       	call   1435f <_schedule>
   124c5:	83 c4 10             	add    $0x10,%esp
   124c8:	e9 66 ff ff ff       	jmp    12433 <_clk_isr+0x12a>
   124cd:	a1 54 ff 01 00       	mov    0x1ff54,%eax
   124d2:	0f b6 50 1a          	movzbl 0x1a(%eax),%edx
   124d6:	a1 54 ff 01 00       	mov    0x1ff54,%eax
   124db:	83 ea 01             	sub    $0x1,%edx
   124de:	88 50 1a             	mov    %dl,0x1a(%eax)
   124e1:	a1 54 ff 01 00       	mov    0x1ff54,%eax
   124e6:	0f b6 40 1a          	movzbl 0x1a(%eax),%eax
   124ea:	84 c0                	test   %al,%al
   124ec:	75 16                	jne    12504 <_clk_isr+0x1fb>
   124ee:	a1 54 ff 01 00       	mov    0x1ff54,%eax
   124f3:	83 ec 0c             	sub    $0xc,%esp
   124f6:	50                   	push   %eax
   124f7:	e8 63 1e 00 00       	call   1435f <_schedule>
   124fc:	83 c4 10             	add    $0x10,%esp
   124ff:	e8 49 1f 00 00       	call   1444d <_dispatch>
   12504:	83 ec 08             	sub    $0x8,%esp
   12507:	6a 20                	push   $0x20
   12509:	6a 20                	push   $0x20
   1250b:	e8 e8 e6 ff ff       	call   10bf8 <__outb>
   12510:	83 c4 10             	add    $0x10,%esp
   12513:	90                   	nop
   12514:	8d 65 f4             	lea    -0xc(%ebp),%esp
   12517:	5b                   	pop    %ebx
   12518:	5e                   	pop    %esi
   12519:	5f                   	pop    %edi
   1251a:	5d                   	pop    %ebp
   1251b:	c3                   	ret    

0001251c <_clk_init>:
   1251c:	55                   	push   %ebp
   1251d:	89 e5                	mov    %esp,%ebp
   1251f:	83 ec 18             	sub    $0x18,%esp
   12522:	83 ec 0c             	sub    $0xc,%esp
   12525:	68 9e 85 01 00       	push   $0x1859e
   1252a:	e8 aa ea ff ff       	call   10fd9 <__cio_puts>
   1252f:	83 c4 10             	add    $0x10,%esp
   12532:	c7 05 cc d6 01 00 63 	movl   $0x63,0x1d6cc
   12539:	00 00 00 
   1253c:	c7 05 d0 d6 01 00 00 	movl   $0x0,0x1d6d0
   12543:	00 00 00 
   12546:	c7 05 80 f7 01 00 00 	movl   $0x0,0x1f780
   1254d:	00 00 00 
   12550:	c7 45 f4 a9 04 00 00 	movl   $0x4a9,-0xc(%ebp)
   12557:	83 ec 08             	sub    $0x8,%esp
   1255a:	6a 36                	push   $0x36
   1255c:	6a 43                	push   $0x43
   1255e:	e8 95 e6 ff ff       	call   10bf8 <__outb>
   12563:	83 c4 10             	add    $0x10,%esp
   12566:	8b 45 f4             	mov    -0xc(%ebp),%eax
   12569:	0f b6 c0             	movzbl %al,%eax
   1256c:	83 ec 08             	sub    $0x8,%esp
   1256f:	50                   	push   %eax
   12570:	6a 40                	push   $0x40
   12572:	e8 81 e6 ff ff       	call   10bf8 <__outb>
   12577:	83 c4 10             	add    $0x10,%esp
   1257a:	8b 45 f4             	mov    -0xc(%ebp),%eax
   1257d:	c1 e8 08             	shr    $0x8,%eax
   12580:	0f b6 c0             	movzbl %al,%eax
   12583:	83 ec 08             	sub    $0x8,%esp
   12586:	50                   	push   %eax
   12587:	6a 40                	push   $0x40
   12589:	e8 6a e6 ff ff       	call   10bf8 <__outb>
   1258e:	83 c4 10             	add    $0x10,%esp
   12591:	83 ec 08             	sub    $0x8,%esp
   12594:	68 09 23 01 00       	push   $0x12309
   12599:	6a 20                	push   $0x20
   1259b:	e8 19 fd ff ff       	call   122b9 <__install_isr>
   125a0:	83 c4 10             	add    $0x10,%esp
   125a3:	90                   	nop
   125a4:	c9                   	leave  
   125a5:	c3                   	ret    

000125a6 <_kreport>:
   125a6:	55                   	push   %ebp
   125a7:	89 e5                	mov    %esp,%ebp
   125a9:	83 ec 18             	sub    $0x18,%esp
   125ac:	8b 45 08             	mov    0x8(%ebp),%eax
   125af:	88 45 f4             	mov    %al,-0xc(%ebp)
   125b2:	83 ec 0c             	sub    $0xc,%esp
   125b5:	68 28 86 01 00       	push   $0x18628
   125ba:	e8 1a ea ff ff       	call   10fd9 <__cio_puts>
   125bf:	83 c4 10             	add    $0x10,%esp
   125c2:	83 ec 08             	sub    $0x8,%esp
   125c5:	6a 19                	push   $0x19
   125c7:	68 4a 86 01 00       	push   $0x1864a
   125cc:	e8 82 f0 ff ff       	call   11653 <__cio_printf>
   125d1:	83 c4 10             	add    $0x10,%esp
   125d4:	83 ec 08             	sub    $0x8,%esp
   125d7:	6a 03                	push   $0x3
   125d9:	68 62 86 01 00       	push   $0x18662
   125de:	e8 70 f0 ff ff       	call   11653 <__cio_printf>
   125e3:	83 c4 10             	add    $0x10,%esp
   125e6:	83 ec 08             	sub    $0x8,%esp
   125e9:	6a 09                	push   $0x9
   125eb:	68 70 86 01 00       	push   $0x18670
   125f0:	e8 5e f0 ff ff       	call   11653 <__cio_printf>
   125f5:	83 c4 10             	add    $0x10,%esp
   125f8:	83 ec 08             	sub    $0x8,%esp
   125fb:	68 e8 03 00 00       	push   $0x3e8
   12600:	68 7f 86 01 00       	push   $0x1867f
   12605:	e8 49 f0 ff ff       	call   11653 <__cio_printf>
   1260a:	83 c4 10             	add    $0x10,%esp
   1260d:	83 ec 0c             	sub    $0xc,%esp
   12610:	68 8e 86 01 00       	push   $0x1868e
   12615:	e8 bf e9 ff ff       	call   10fd9 <__cio_puts>
   1261a:	83 c4 10             	add    $0x10,%esp
   1261d:	83 ec 0c             	sub    $0xc,%esp
   12620:	68 98 86 01 00       	push   $0x18698
   12625:	e8 af e9 ff ff       	call   10fd9 <__cio_puts>
   1262a:	83 c4 10             	add    $0x10,%esp
   1262d:	83 ec 08             	sub    $0x8,%esp
   12630:	68 0f 27 00 00       	push   $0x270f
   12635:	68 9c 86 01 00       	push   $0x1869c
   1263a:	e8 14 f0 ff ff       	call   11653 <__cio_printf>
   1263f:	83 c4 10             	add    $0x10,%esp
   12642:	83 ec 08             	sub    $0x8,%esp
   12645:	6a 03                	push   $0x3
   12647:	68 a9 86 01 00       	push   $0x186a9
   1264c:	e8 02 f0 ff ff       	call   11653 <__cio_printf>
   12651:	83 c4 10             	add    $0x10,%esp
   12654:	83 ec 0c             	sub    $0xc,%esp
   12657:	68 28 86 01 00       	push   $0x18628
   1265c:	e8 78 e9 ff ff       	call   10fd9 <__cio_puts>
   12661:	83 c4 10             	add    $0x10,%esp
   12664:	90                   	nop
   12665:	c9                   	leave  
   12666:	c3                   	ret    

00012667 <_kinit>:
   12667:	55                   	push   %ebp
   12668:	89 e5                	mov    %esp,%ebp
   1266a:	83 ec 18             	sub    $0x18,%esp
   1266d:	e8 34 fc ff ff       	call   122a6 <__init_interrupts>
   12672:	83 ec 0c             	sub    $0xc,%esp
   12675:	6a 00                	push   $0x0
   12677:	e8 6a f2 ff ff       	call   118e6 <__cio_init>
   1267c:	83 c4 10             	add    $0x10,%esp
   1267f:	6a 63                	push   $0x63
   12681:	6a 63                	push   $0x63
   12683:	6a 07                	push   $0x7
   12685:	6a 00                	push   $0x0
   12687:	e8 93 e6 ff ff       	call   10d1f <__cio_setscroll>
   1268c:	83 c4 10             	add    $0x10,%esp
   1268f:	83 ec 04             	sub    $0x4,%esp
   12692:	68 b8 86 01 00       	push   $0x186b8
   12697:	6a 00                	push   $0x0
   12699:	6a 00                	push   $0x0
   1269b:	e8 f7 e8 ff ff       	call   10f97 <__cio_puts_at>
   126a0:	83 c4 10             	add    $0x10,%esp
   126a3:	83 ec 04             	sub    $0x4,%esp
   126a6:	68 0c 87 01 00       	push   $0x1870c
   126ab:	6a 06                	push   $0x6
   126ad:	6a 00                	push   $0x0
   126af:	e8 e3 e8 ff ff       	call   10f97 <__cio_puts_at>
   126b4:	83 c4 10             	add    $0x10,%esp
   126b7:	83 ec 0c             	sub    $0xc,%esp
   126ba:	68 60 87 01 00       	push   $0x18760
   126bf:	e8 15 e9 ff ff       	call   10fd9 <__cio_puts>
   126c4:	83 c4 10             	add    $0x10,%esp
   126c7:	83 ec 0c             	sub    $0xc,%esp
   126ca:	68 84 87 01 00       	push   $0x18784
   126cf:	e8 05 e9 ff ff       	call   10fd9 <__cio_puts>
   126d4:	83 c4 10             	add    $0x10,%esp
   126d7:	83 ec 0c             	sub    $0xc,%esp
   126da:	68 a5 87 01 00       	push   $0x187a5
   126df:	e8 f5 e8 ff ff       	call   10fd9 <__cio_puts>
   126e4:	83 c4 10             	add    $0x10,%esp
   126e7:	e8 1a 04 00 00       	call   12b06 <_km_init>
   126ec:	e8 bd 14 00 00       	call   13bae <_q_init>
   126f1:	e8 26 fe ff ff       	call   1251c <_clk_init>
   126f6:	e8 8d 0a 00 00       	call   13188 <_pcb_init>
   126fb:	e8 bc 1b 00 00       	call   142bc <_sched_init>
   12700:	e8 c4 27 00 00       	call   14ec9 <_stk_init>
   12705:	e8 7d 21 00 00       	call   14887 <_sio_init>
   1270a:	e8 c0 35 00 00       	call   15ccf <_sys_init>
   1270f:	83 ec 0c             	sub    $0xc,%esp
   12712:	68 b0 87 01 00       	push   $0x187b0
   12717:	e8 bd e8 ff ff       	call   10fd9 <__cio_puts>
   1271c:	83 c4 10             	add    $0x10,%esp
   1271f:	83 ec 0c             	sub    $0xc,%esp
   12722:	68 84 87 01 00       	push   $0x18784
   12727:	e8 ad e8 ff ff       	call   10fd9 <__cio_puts>
   1272c:	83 c4 10             	add    $0x10,%esp
   1272f:	83 ec 0c             	sub    $0xc,%esp
   12732:	6a 01                	push   $0x1
   12734:	e8 6d fe ff ff       	call   125a6 <_kreport>
   12739:	83 c4 10             	add    $0x10,%esp
   1273c:	83 ec 0c             	sub    $0xc,%esp
   1273f:	6a 64                	push   $0x64
   12741:	e8 98 fb ff ff       	call   122de <__delay>
   12746:	83 c4 10             	add    $0x10,%esp
   12749:	e8 3e 46 00 00       	call   16d8c <_ahci_init>
   1274e:	83 ec 0c             	sub    $0xc,%esp
   12751:	68 e8 03 00 00       	push   $0x3e8
   12756:	e8 83 fb ff ff       	call   122de <__delay>
   1275b:	83 c4 10             	add    $0x10,%esp
   1275e:	e8 c1 0a 00 00       	call   13224 <_pcb_alloc>
   12763:	89 45 f4             	mov    %eax,-0xc(%ebp)
   12766:	83 7d f4 00          	cmpl   $0x0,-0xc(%ebp)
   1276a:	75 3b                	jne    127a7 <_kinit+0x140>
   1276c:	83 ec 04             	sub    $0x4,%esp
   1276f:	68 d2 87 01 00       	push   $0x187d2
   12774:	6a 00                	push   $0x0
   12776:	68 a2 01 00 00       	push   $0x1a2
   1277b:	68 db 87 01 00       	push   $0x187db
   12780:	68 94 88 01 00       	push   $0x18894
   12785:	68 e4 87 01 00       	push   $0x187e4
   1278a:	68 a0 f7 01 00       	push   $0x1f7a0
   1278f:	e8 21 f4 ff ff       	call   11bb5 <__sprint>
   12794:	83 c4 20             	add    $0x20,%esp
   12797:	83 ec 0c             	sub    $0xc,%esp
   1279a:	68 a0 f7 01 00       	push   $0x1f7a0
   1279f:	e8 01 02 00 00       	call   129a5 <_kpanic>
   127a4:	83 c4 10             	add    $0x10,%esp
   127a7:	e8 a3 27 00 00       	call   14f4f <_stk_alloc>
   127ac:	89 c2                	mov    %eax,%edx
   127ae:	8b 45 f4             	mov    -0xc(%ebp),%eax
   127b1:	89 50 04             	mov    %edx,0x4(%eax)
   127b4:	8b 45 f4             	mov    -0xc(%ebp),%eax
   127b7:	8b 40 04             	mov    0x4(%eax),%eax
   127ba:	85 c0                	test   %eax,%eax
   127bc:	75 3b                	jne    127f9 <_kinit+0x192>
   127be:	83 ec 04             	sub    $0x4,%esp
   127c1:	68 01 88 01 00       	push   $0x18801
   127c6:	6a 00                	push   $0x0
   127c8:	68 a5 01 00 00       	push   $0x1a5
   127cd:	68 db 87 01 00       	push   $0x187db
   127d2:	68 94 88 01 00       	push   $0x18894
   127d7:	68 e4 87 01 00       	push   $0x187e4
   127dc:	68 a0 f7 01 00       	push   $0x1f7a0
   127e1:	e8 cf f3 ff ff       	call   11bb5 <__sprint>
   127e6:	83 c4 20             	add    $0x20,%esp
   127e9:	83 ec 0c             	sub    $0xc,%esp
   127ec:	68 a0 f7 01 00       	push   $0x1f7a0
   127f1:	e8 af 01 00 00       	call   129a5 <_kpanic>
   127f6:	83 c4 10             	add    $0x10,%esp
   127f9:	8b 45 f4             	mov    -0xc(%ebp),%eax
   127fc:	66 c7 40 16 01 00    	movw   $0x1,0x16(%eax)
   12802:	8b 45 f4             	mov    -0xc(%ebp),%eax
   12805:	0f b7 50 16          	movzwl 0x16(%eax),%edx
   12809:	8b 45 f4             	mov    -0xc(%ebp),%eax
   1280c:	66 89 50 14          	mov    %dx,0x14(%eax)
   12810:	8b 45 f4             	mov    -0xc(%ebp),%eax
   12813:	c6 40 18 01          	movb   $0x1,0x18(%eax)
   12817:	8b 45 f4             	mov    -0xc(%ebp),%eax
   1281a:	c6 40 19 00          	movb   $0x0,0x19(%eax)
   1281e:	8b 45 f4             	mov    -0xc(%ebp),%eax
   12821:	8b 40 04             	mov    0x4(%eax),%eax
   12824:	83 ec 04             	sub    $0x4,%esp
   12827:	68 11 88 01 00       	push   $0x18811
   1282c:	6a 07                	push   $0x7
   1282e:	50                   	push   %eax
   1282f:	e8 8d 27 00 00       	call   14fc1 <_stk_setup>
   12834:	83 c4 10             	add    $0x10,%esp
   12837:	89 45 f0             	mov    %eax,-0x10(%ebp)
   1283a:	83 7d f0 00          	cmpl   $0x0,-0x10(%ebp)
   1283e:	75 3b                	jne    1287b <_kinit+0x214>
   12840:	83 ec 04             	sub    $0x4,%esp
   12843:	68 18 88 01 00       	push   $0x18818
   12848:	6a 00                	push   $0x0
   1284a:	68 b2 01 00 00       	push   $0x1b2
   1284f:	68 db 87 01 00       	push   $0x187db
   12854:	68 94 88 01 00       	push   $0x18894
   12859:	68 e4 87 01 00       	push   $0x187e4
   1285e:	68 a0 f7 01 00       	push   $0x1f7a0
   12863:	e8 4d f3 ff ff       	call   11bb5 <__sprint>
   12868:	83 c4 20             	add    $0x20,%esp
   1286b:	83 ec 0c             	sub    $0xc,%esp
   1286e:	68 a0 f7 01 00       	push   $0x1f7a0
   12873:	e8 2d 01 00 00       	call   129a5 <_kpanic>
   12878:	83 c4 10             	add    $0x10,%esp
   1287b:	8b 45 f4             	mov    -0xc(%ebp),%eax
   1287e:	8b 55 f0             	mov    -0x10(%ebp),%edx
   12881:	89 10                	mov    %edx,(%eax)
   12883:	83 ec 08             	sub    $0x8,%esp
   12886:	6a 48                	push   $0x48
   12888:	ff 75 f0             	pushl  -0x10(%ebp)
   1288b:	e8 63 f1 ff ff       	call   119f3 <__memclr>
   12890:	83 c4 10             	add    $0x10,%esp
   12893:	8b 45 f0             	mov    -0x10(%ebp),%eax
   12896:	c7 40 44 02 02 00 00 	movl   $0x202,0x44(%eax)
   1289d:	8b 45 f0             	mov    -0x10(%ebp),%eax
   128a0:	83 c0 48             	add    $0x48,%eax
   128a3:	89 c2                	mov    %eax,%edx
   128a5:	8b 45 f0             	mov    -0x10(%ebp),%eax
   128a8:	89 50 20             	mov    %edx,0x20(%eax)
   128ab:	ba d7 79 01 00       	mov    $0x179d7,%edx
   128b0:	8b 45 f0             	mov    -0x10(%ebp),%eax
   128b3:	89 50 3c             	mov    %edx,0x3c(%eax)
   128b6:	8b 45 f0             	mov    -0x10(%ebp),%eax
   128b9:	c7 40 40 10 00 00 00 	movl   $0x10,0x40(%eax)
   128c0:	8b 45 f0             	mov    -0x10(%ebp),%eax
   128c3:	c7 00 20 00 00 00    	movl   $0x20,(%eax)
   128c9:	8b 45 f0             	mov    -0x10(%ebp),%eax
   128cc:	c7 40 04 18 00 00 00 	movl   $0x18,0x4(%eax)
   128d3:	8b 45 f0             	mov    -0x10(%ebp),%eax
   128d6:	8b 50 04             	mov    0x4(%eax),%edx
   128d9:	8b 45 f0             	mov    -0x10(%ebp),%eax
   128dc:	89 50 08             	mov    %edx,0x8(%eax)
   128df:	8b 45 f0             	mov    -0x10(%ebp),%eax
   128e2:	8b 50 08             	mov    0x8(%eax),%edx
   128e5:	8b 45 f0             	mov    -0x10(%ebp),%eax
   128e8:	89 50 0c             	mov    %edx,0xc(%eax)
   128eb:	8b 45 f0             	mov    -0x10(%ebp),%eax
   128ee:	8b 50 0c             	mov    0xc(%eax),%edx
   128f1:	8b 45 f0             	mov    -0x10(%ebp),%eax
   128f4:	89 50 10             	mov    %edx,0x10(%eax)
   128f7:	8b 45 f4             	mov    -0xc(%ebp),%eax
   128fa:	a3 e0 fe 01 00       	mov    %eax,0x1fee0
   128ff:	c7 05 c0 fe 01 00 01 	movl   $0x1,0x1fec0
   12906:	00 00 00 
   12909:	83 ec 0c             	sub    $0xc,%esp
   1290c:	ff 75 f4             	pushl  -0xc(%ebp)
   1290f:	e8 4b 1a 00 00       	call   1435f <_schedule>
   12914:	83 c4 10             	add    $0x10,%esp
   12917:	e8 31 1b 00 00       	call   1444d <_dispatch>
   1291c:	83 ec 0c             	sub    $0xc,%esp
   1291f:	68 24 88 01 00       	push   $0x18824
   12924:	e8 b0 e6 ff ff       	call   10fd9 <__cio_puts>
   12929:	83 c4 10             	add    $0x10,%esp
   1292c:	83 ec 0c             	sub    $0xc,%esp
   1292f:	68 84 87 01 00       	push   $0x18784
   12934:	e8 a0 e6 ff ff       	call   10fd9 <__cio_puts>
   12939:	83 c4 10             	add    $0x10,%esp
   1293c:	83 ec 0c             	sub    $0xc,%esp
   1293f:	6a 02                	push   $0x2
   12941:	e8 be 20 00 00       	call   14a04 <_sio_enable>
   12946:	83 c4 10             	add    $0x10,%esp
   12949:	90                   	nop
   1294a:	c9                   	leave  
   1294b:	c3                   	ret    

0001294c <_grow_list>:
   1294c:	55                   	push   %ebp
   1294d:	89 e5                	mov    %esp,%ebp
   1294f:	83 ec 18             	sub    $0x18,%esp
   12952:	e8 fd 06 00 00       	call   13054 <_km_slice_alloc>
   12957:	89 45 f4             	mov    %eax,-0xc(%ebp)
   1295a:	83 7d f4 00          	cmpl   $0x0,-0xc(%ebp)
   1295e:	75 07                	jne    12967 <_grow_list+0x1b>
   12960:	b8 00 00 00 00       	mov    $0x0,%eax
   12965:	eb 3c                	jmp    129a3 <_grow_list+0x57>
   12967:	c7 45 f0 00 00 00 00 	movl   $0x0,-0x10(%ebp)
   1296e:	eb 18                	jmp    12988 <_grow_list+0x3c>
   12970:	83 ec 0c             	sub    $0xc,%esp
   12973:	ff 75 f4             	pushl  -0xc(%ebp)
   12976:	8b 45 0c             	mov    0xc(%ebp),%eax
   12979:	ff d0                	call   *%eax
   1297b:	83 c4 10             	add    $0x10,%esp
   1297e:	8b 45 08             	mov    0x8(%ebp),%eax
   12981:	01 45 f4             	add    %eax,-0xc(%ebp)
   12984:	83 45 f0 01          	addl   $0x1,-0x10(%ebp)
   12988:	b8 00 04 00 00       	mov    $0x400,%eax
   1298d:	ba 00 00 00 00       	mov    $0x0,%edx
   12992:	f7 75 08             	divl   0x8(%ebp)
   12995:	89 c2                	mov    %eax,%edx
   12997:	8b 45 f0             	mov    -0x10(%ebp),%eax
   1299a:	39 c2                	cmp    %eax,%edx
   1299c:	77 d2                	ja     12970 <_grow_list+0x24>
   1299e:	b8 01 00 00 00       	mov    $0x1,%eax
   129a3:	c9                   	leave  
   129a4:	c3                   	ret    

000129a5 <_kpanic>:
   129a5:	55                   	push   %ebp
   129a6:	89 e5                	mov    %esp,%ebp
   129a8:	83 ec 08             	sub    $0x8,%esp
   129ab:	83 ec 0c             	sub    $0xc,%esp
   129ae:	68 45 88 01 00       	push   $0x18845
   129b3:	e8 21 e6 ff ff       	call   10fd9 <__cio_puts>
   129b8:	83 c4 10             	add    $0x10,%esp
   129bb:	83 7d 08 00          	cmpl   $0x0,0x8(%ebp)
   129bf:	74 05                	je     129c6 <_kpanic+0x21>
   129c1:	8b 45 08             	mov    0x8(%ebp),%eax
   129c4:	eb 05                	jmp    129cb <_kpanic+0x26>
   129c6:	b8 62 88 01 00       	mov    $0x18862,%eax
   129cb:	83 ec 08             	sub    $0x8,%esp
   129ce:	50                   	push   %eax
   129cf:	68 69 88 01 00       	push   $0x18869
   129d4:	e8 7a ec ff ff       	call   11653 <__cio_printf>
   129d9:	83 c4 10             	add    $0x10,%esp
   129dc:	a1 54 ff 01 00       	mov    0x1ff54,%eax
   129e1:	83 ec 08             	sub    $0x8,%esp
   129e4:	50                   	push   %eax
   129e5:	68 72 88 01 00       	push   $0x18872
   129ea:	e8 0f 0c 00 00       	call   135fe <_pcb_dump>
   129ef:	83 c4 10             	add    $0x10,%esp
   129f2:	83 ec 08             	sub    $0x8,%esp
   129f5:	6a 00                	push   $0x0
   129f7:	68 7a 88 01 00       	push   $0x1887a
   129fc:	e8 9b 0e 00 00       	call   1389c <_ptable_dump>
   12a01:	83 c4 10             	add    $0x10,%esp
   12a04:	83 ec 0c             	sub    $0xc,%esp
   12a07:	68 84 88 01 00       	push   $0x18884
   12a0c:	e8 79 f8 ff ff       	call   1228a <__panic>
   12a11:	83 c4 10             	add    $0x10,%esp
   12a14:	90                   	nop
   12a15:	c9                   	leave  
   12a16:	c3                   	ret    

00012a17 <_add_block>:
   12a17:	55                   	push   %ebp
   12a18:	89 e5                	mov    %esp,%ebp
   12a1a:	83 ec 18             	sub    $0x18,%esp
   12a1d:	81 7d 0c ff 0f 00 00 	cmpl   $0xfff,0xc(%ebp)
   12a24:	0f 86 d9 00 00 00    	jbe    12b03 <_add_block+0xec>
   12a2a:	8b 45 0c             	mov    0xc(%ebp),%eax
   12a2d:	25 ff 0f 00 00       	and    $0xfff,%eax
   12a32:	85 c0                	test   %eax,%eax
   12a34:	74 07                	je     12a3d <_add_block+0x26>
   12a36:	81 65 0c 00 f0 ff ff 	andl   $0xfffff000,0xc(%ebp)
   12a3d:	8b 45 08             	mov    0x8(%ebp),%eax
   12a40:	89 45 ec             	mov    %eax,-0x14(%ebp)
   12a43:	8b 45 0c             	mov    0xc(%ebp),%eax
   12a46:	c1 e8 0c             	shr    $0xc,%eax
   12a49:	89 c2                	mov    %eax,%edx
   12a4b:	8b 45 ec             	mov    -0x14(%ebp),%eax
   12a4e:	89 10                	mov    %edx,(%eax)
   12a50:	8b 45 ec             	mov    -0x14(%ebp),%eax
   12a53:	c7 40 04 00 00 00 00 	movl   $0x0,0x4(%eax)
   12a5a:	a1 d4 d6 01 00       	mov    0x1d6d4,%eax
   12a5f:	85 c0                	test   %eax,%eax
   12a61:	75 0d                	jne    12a70 <_add_block+0x59>
   12a63:	8b 45 ec             	mov    -0x14(%ebp),%eax
   12a66:	a3 d4 d6 01 00       	mov    %eax,0x1d6d4
   12a6b:	e9 94 00 00 00       	jmp    12b04 <_add_block+0xed>
   12a70:	c7 45 f4 00 00 00 00 	movl   $0x0,-0xc(%ebp)
   12a77:	a1 d4 d6 01 00       	mov    0x1d6d4,%eax
   12a7c:	89 45 f0             	mov    %eax,-0x10(%ebp)
   12a7f:	eb 0f                	jmp    12a90 <_add_block+0x79>
   12a81:	8b 45 f0             	mov    -0x10(%ebp),%eax
   12a84:	89 45 f4             	mov    %eax,-0xc(%ebp)
   12a87:	8b 45 f0             	mov    -0x10(%ebp),%eax
   12a8a:	8b 40 04             	mov    0x4(%eax),%eax
   12a8d:	89 45 f0             	mov    %eax,-0x10(%ebp)
   12a90:	83 7d f0 00          	cmpl   $0x0,-0x10(%ebp)
   12a94:	74 08                	je     12a9e <_add_block+0x87>
   12a96:	8b 45 f0             	mov    -0x10(%ebp),%eax
   12a99:	3b 45 ec             	cmp    -0x14(%ebp),%eax
   12a9c:	72 e3                	jb     12a81 <_add_block+0x6a>
   12a9e:	8b 45 ec             	mov    -0x14(%ebp),%eax
   12aa1:	8b 55 f0             	mov    -0x10(%ebp),%edx
   12aa4:	89 50 04             	mov    %edx,0x4(%eax)
   12aa7:	83 7d f4 00          	cmpl   $0x0,-0xc(%ebp)
   12aab:	75 4b                	jne    12af8 <_add_block+0xe1>
   12aad:	83 7d f0 00          	cmpl   $0x0,-0x10(%ebp)
   12ab1:	75 3b                	jne    12aee <_add_block+0xd7>
   12ab3:	83 ec 04             	sub    $0x4,%esp
   12ab6:	68 9c 88 01 00       	push   $0x1889c
   12abb:	6a 00                	push   $0x0
   12abd:	68 f9 00 00 00       	push   $0xf9
   12ac2:	68 a1 88 01 00       	push   $0x188a1
   12ac7:	68 38 89 01 00       	push   $0x18938
   12acc:	68 a8 88 01 00       	push   $0x188a8
   12ad1:	68 a0 f7 01 00       	push   $0x1f7a0
   12ad6:	e8 da f0 ff ff       	call   11bb5 <__sprint>
   12adb:	83 c4 20             	add    $0x20,%esp
   12ade:	83 ec 0c             	sub    $0xc,%esp
   12ae1:	68 a0 f7 01 00       	push   $0x1f7a0
   12ae6:	e8 ba fe ff ff       	call   129a5 <_kpanic>
   12aeb:	83 c4 10             	add    $0x10,%esp
   12aee:	8b 45 ec             	mov    -0x14(%ebp),%eax
   12af1:	a3 d4 d6 01 00       	mov    %eax,0x1d6d4
   12af6:	eb 0c                	jmp    12b04 <_add_block+0xed>
   12af8:	8b 45 f4             	mov    -0xc(%ebp),%eax
   12afb:	8b 55 ec             	mov    -0x14(%ebp),%edx
   12afe:	89 50 04             	mov    %edx,0x4(%eax)
   12b01:	eb 01                	jmp    12b04 <_add_block+0xed>
   12b03:	90                   	nop
   12b04:	c9                   	leave  
   12b05:	c3                   	ret    

00012b06 <_km_init>:
   12b06:	55                   	push   %ebp
   12b07:	89 e5                	mov    %esp,%ebp
   12b09:	56                   	push   %esi
   12b0a:	53                   	push   %ebx
   12b0b:	83 ec 60             	sub    $0x60,%esp
   12b0e:	83 ec 0c             	sub    $0xc,%esp
   12b11:	68 c5 88 01 00       	push   $0x188c5
   12b16:	e8 be e4 ff ff       	call   10fd9 <__cio_puts>
   12b1b:	83 c4 10             	add    $0x10,%esp
   12b1e:	c7 05 d8 d6 01 00 00 	movl   $0x0,0x1d6d8
   12b25:	00 00 00 
   12b28:	c7 05 d4 d6 01 00 00 	movl   $0x0,0x1d6d4
   12b2f:	00 00 00 
   12b32:	b8 70 ff 01 00       	mov    $0x1ff70,%eax
   12b37:	89 45 e8             	mov    %eax,-0x18(%ebp)
   12b3a:	c7 45 ec 00 00 00 00 	movl   $0x0,-0x14(%ebp)
   12b41:	8b 45 e8             	mov    -0x18(%ebp),%eax
   12b44:	25 ff 0f 00 00       	and    $0xfff,%eax
   12b49:	89 45 a0             	mov    %eax,-0x60(%ebp)
   12b4c:	8b 45 ec             	mov    -0x14(%ebp),%eax
   12b4f:	83 e0 00             	and    $0x0,%eax
   12b52:	89 45 a4             	mov    %eax,-0x5c(%ebp)
   12b55:	8b 45 a0             	mov    -0x60(%ebp),%eax
   12b58:	8b 55 a4             	mov    -0x5c(%ebp),%edx
   12b5b:	89 c1                	mov    %eax,%ecx
   12b5d:	80 f5 00             	xor    $0x0,%ch
   12b60:	89 cb                	mov    %ecx,%ebx
   12b62:	89 d0                	mov    %edx,%eax
   12b64:	80 f4 00             	xor    $0x0,%ah
   12b67:	89 c6                	mov    %eax,%esi
   12b69:	89 f0                	mov    %esi,%eax
   12b6b:	09 d8                	or     %ebx,%eax
   12b6d:	85 c0                	test   %eax,%eax
   12b6f:	74 16                	je     12b87 <_km_init+0x81>
   12b71:	81 65 e8 00 f0 ff ff 	andl   $0xfffff000,-0x18(%ebp)
   12b78:	83 65 ec 00          	andl   $0x0,-0x14(%ebp)
   12b7c:	81 45 e8 00 10 00 00 	addl   $0x1000,-0x18(%ebp)
   12b83:	83 55 ec 00          	adcl   $0x0,-0x14(%ebp)
   12b87:	b8 00 2d 00 00       	mov    $0x2d00,%eax
   12b8c:	8b 00                	mov    (%eax),%eax
   12b8e:	89 45 cc             	mov    %eax,-0x34(%ebp)
   12b91:	83 7d cc 00          	cmpl   $0x0,-0x34(%ebp)
   12b95:	0f 8e 9f 01 00 00    	jle    12d3a <_km_init+0x234>
   12b9b:	c7 45 f4 04 2d 00 00 	movl   $0x2d04,-0xc(%ebp)
   12ba2:	c7 45 e4 00 00 00 00 	movl   $0x0,-0x1c(%ebp)
   12ba9:	e9 74 01 00 00       	jmp    12d22 <_km_init+0x21c>
   12bae:	8b 45 f4             	mov    -0xc(%ebp),%eax
   12bb1:	8b 40 14             	mov    0x14(%eax),%eax
   12bb4:	83 e0 01             	and    $0x1,%eax
   12bb7:	85 c0                	test   %eax,%eax
   12bb9:	0f 84 45 01 00 00    	je     12d04 <_km_init+0x1fe>
   12bbf:	8b 45 f4             	mov    -0xc(%ebp),%eax
   12bc2:	8b 40 14             	mov    0x14(%eax),%eax
   12bc5:	83 e0 02             	and    $0x2,%eax
   12bc8:	85 c0                	test   %eax,%eax
   12bca:	0f 85 37 01 00 00    	jne    12d07 <_km_init+0x201>
   12bd0:	8b 45 f4             	mov    -0xc(%ebp),%eax
   12bd3:	8b 40 10             	mov    0x10(%eax),%eax
   12bd6:	83 f8 01             	cmp    $0x1,%eax
   12bd9:	0f 85 2b 01 00 00    	jne    12d0a <_km_init+0x204>
   12bdf:	8b 45 f4             	mov    -0xc(%ebp),%eax
   12be2:	8b 40 04             	mov    0x4(%eax),%eax
   12be5:	85 c0                	test   %eax,%eax
   12be7:	0f 85 20 01 00 00    	jne    12d0d <_km_init+0x207>
   12bed:	8b 45 f4             	mov    -0xc(%ebp),%eax
   12bf0:	8b 40 0c             	mov    0xc(%eax),%eax
   12bf3:	85 c0                	test   %eax,%eax
   12bf5:	0f 85 15 01 00 00    	jne    12d10 <_km_init+0x20a>
   12bfb:	8b 45 f4             	mov    -0xc(%ebp),%eax
   12bfe:	8b 00                	mov    (%eax),%eax
   12c00:	3d 00 00 00 c0       	cmp    $0xc0000000,%eax
   12c05:	0f 87 08 01 00 00    	ja     12d13 <_km_init+0x20d>
   12c0b:	8b 45 f4             	mov    -0xc(%ebp),%eax
   12c0e:	8b 10                	mov    (%eax),%edx
   12c10:	8b 45 f4             	mov    -0xc(%ebp),%eax
   12c13:	8b 40 08             	mov    0x8(%eax),%eax
   12c16:	01 d0                	add    %edx,%eax
   12c18:	89 45 c8             	mov    %eax,-0x38(%ebp)
   12c1b:	81 7d c8 00 00 00 c0 	cmpl   $0xc0000000,-0x38(%ebp)
   12c22:	0f 87 ee 00 00 00    	ja     12d16 <_km_init+0x210>
   12c28:	8b 45 f4             	mov    -0xc(%ebp),%eax
   12c2b:	8b 50 04             	mov    0x4(%eax),%edx
   12c2e:	8b 00                	mov    (%eax),%eax
   12c30:	89 45 d8             	mov    %eax,-0x28(%ebp)
   12c33:	89 55 dc             	mov    %edx,-0x24(%ebp)
   12c36:	8b 45 f4             	mov    -0xc(%ebp),%eax
   12c39:	8b 50 0c             	mov    0xc(%eax),%edx
   12c3c:	8b 40 08             	mov    0x8(%eax),%eax
   12c3f:	89 45 d0             	mov    %eax,-0x30(%ebp)
   12c42:	89 55 d4             	mov    %edx,-0x2c(%ebp)
   12c45:	8b 45 d8             	mov    -0x28(%ebp),%eax
   12c48:	8b 55 dc             	mov    -0x24(%ebp),%edx
   12c4b:	3b 55 ec             	cmp    -0x14(%ebp),%edx
   12c4e:	77 5b                	ja     12cab <_km_init+0x1a5>
   12c50:	3b 55 ec             	cmp    -0x14(%ebp),%edx
   12c53:	72 05                	jb     12c5a <_km_init+0x154>
   12c55:	3b 45 e8             	cmp    -0x18(%ebp),%eax
   12c58:	73 51                	jae    12cab <_km_init+0x1a5>
   12c5a:	8b 4d d8             	mov    -0x28(%ebp),%ecx
   12c5d:	8b 5d dc             	mov    -0x24(%ebp),%ebx
   12c60:	8b 45 d0             	mov    -0x30(%ebp),%eax
   12c63:	8b 55 d4             	mov    -0x2c(%ebp),%edx
   12c66:	01 c8                	add    %ecx,%eax
   12c68:	11 da                	adc    %ebx,%edx
   12c6a:	39 55 ec             	cmp    %edx,-0x14(%ebp)
   12c6d:	72 12                	jb     12c81 <_km_init+0x17b>
   12c6f:	39 55 ec             	cmp    %edx,-0x14(%ebp)
   12c72:	0f 87 a1 00 00 00    	ja     12d19 <_km_init+0x213>
   12c78:	39 45 e8             	cmp    %eax,-0x18(%ebp)
   12c7b:	0f 87 98 00 00 00    	ja     12d19 <_km_init+0x213>
   12c81:	8b 45 e8             	mov    -0x18(%ebp),%eax
   12c84:	8b 55 ec             	mov    -0x14(%ebp),%edx
   12c87:	2b 45 d8             	sub    -0x28(%ebp),%eax
   12c8a:	1b 55 dc             	sbb    -0x24(%ebp),%edx
   12c8d:	89 45 c0             	mov    %eax,-0x40(%ebp)
   12c90:	89 55 c4             	mov    %edx,-0x3c(%ebp)
   12c93:	8b 45 c0             	mov    -0x40(%ebp),%eax
   12c96:	8b 55 c4             	mov    -0x3c(%ebp),%edx
   12c99:	29 45 d0             	sub    %eax,-0x30(%ebp)
   12c9c:	19 55 d4             	sbb    %edx,-0x2c(%ebp)
   12c9f:	8b 45 e8             	mov    -0x18(%ebp),%eax
   12ca2:	8b 55 ec             	mov    -0x14(%ebp),%edx
   12ca5:	89 45 d8             	mov    %eax,-0x28(%ebp)
   12ca8:	89 55 dc             	mov    %edx,-0x24(%ebp)
   12cab:	8b 4d d8             	mov    -0x28(%ebp),%ecx
   12cae:	8b 5d dc             	mov    -0x24(%ebp),%ebx
   12cb1:	8b 45 d0             	mov    -0x30(%ebp),%eax
   12cb4:	8b 55 d4             	mov    -0x2c(%ebp),%edx
   12cb7:	01 c8                	add    %ecx,%eax
   12cb9:	11 da                	adc    %ebx,%edx
   12cbb:	83 fa 00             	cmp    $0x0,%edx
   12cbe:	76 25                	jbe    12ce5 <_km_init+0x1df>
   12cc0:	8b 4d d8             	mov    -0x28(%ebp),%ecx
   12cc3:	8b 5d dc             	mov    -0x24(%ebp),%ebx
   12cc6:	8b 45 d0             	mov    -0x30(%ebp),%eax
   12cc9:	8b 55 d4             	mov    -0x2c(%ebp),%edx
   12ccc:	01 c8                	add    %ecx,%eax
   12cce:	11 da                	adc    %ebx,%edx
   12cd0:	83 ea 01             	sub    $0x1,%edx
   12cd3:	89 45 b8             	mov    %eax,-0x48(%ebp)
   12cd6:	89 55 bc             	mov    %edx,-0x44(%ebp)
   12cd9:	8b 45 b8             	mov    -0x48(%ebp),%eax
   12cdc:	8b 55 bc             	mov    -0x44(%ebp),%edx
   12cdf:	29 45 d0             	sub    %eax,-0x30(%ebp)
   12ce2:	19 55 d4             	sbb    %edx,-0x2c(%ebp)
   12ce5:	8b 45 d8             	mov    -0x28(%ebp),%eax
   12ce8:	89 45 b4             	mov    %eax,-0x4c(%ebp)
   12ceb:	8b 45 d0             	mov    -0x30(%ebp),%eax
   12cee:	89 45 b0             	mov    %eax,-0x50(%ebp)
   12cf1:	83 ec 08             	sub    $0x8,%esp
   12cf4:	ff 75 b0             	pushl  -0x50(%ebp)
   12cf7:	ff 75 b4             	pushl  -0x4c(%ebp)
   12cfa:	e8 18 fd ff ff       	call   12a17 <_add_block>
   12cff:	83 c4 10             	add    $0x10,%esp
   12d02:	eb 16                	jmp    12d1a <_km_init+0x214>
   12d04:	90                   	nop
   12d05:	eb 13                	jmp    12d1a <_km_init+0x214>
   12d07:	90                   	nop
   12d08:	eb 10                	jmp    12d1a <_km_init+0x214>
   12d0a:	90                   	nop
   12d0b:	eb 0d                	jmp    12d1a <_km_init+0x214>
   12d0d:	90                   	nop
   12d0e:	eb 0a                	jmp    12d1a <_km_init+0x214>
   12d10:	90                   	nop
   12d11:	eb 07                	jmp    12d1a <_km_init+0x214>
   12d13:	90                   	nop
   12d14:	eb 04                	jmp    12d1a <_km_init+0x214>
   12d16:	90                   	nop
   12d17:	eb 01                	jmp    12d1a <_km_init+0x214>
   12d19:	90                   	nop
   12d1a:	83 45 e4 01          	addl   $0x1,-0x1c(%ebp)
   12d1e:	83 45 f4 18          	addl   $0x18,-0xc(%ebp)
   12d22:	8b 45 e4             	mov    -0x1c(%ebp),%eax
   12d25:	3b 45 cc             	cmp    -0x34(%ebp),%eax
   12d28:	0f 8c 80 fe ff ff    	jl     12bae <_km_init+0xa8>
   12d2e:	c7 05 dc d6 01 00 01 	movl   $0x1,0x1d6dc
   12d35:	00 00 00 
   12d38:	eb 01                	jmp    12d3b <_km_init+0x235>
   12d3a:	90                   	nop
   12d3b:	8d 65 f8             	lea    -0x8(%ebp),%esp
   12d3e:	5b                   	pop    %ebx
   12d3f:	5e                   	pop    %esi
   12d40:	5d                   	pop    %ebp
   12d41:	c3                   	ret    

00012d42 <_km_dump>:
   12d42:	55                   	push   %ebp
   12d43:	89 e5                	mov    %esp,%ebp
   12d45:	83 ec 18             	sub    $0x18,%esp
   12d48:	83 ec 08             	sub    $0x8,%esp
   12d4b:	68 d4 d6 01 00       	push   $0x1d6d4
   12d50:	68 cb 88 01 00       	push   $0x188cb
   12d55:	e8 f9 e8 ff ff       	call   11653 <__cio_printf>
   12d5a:	83 c4 10             	add    $0x10,%esp
   12d5d:	a1 d4 d6 01 00       	mov    0x1d6d4,%eax
   12d62:	89 45 f4             	mov    %eax,-0xc(%ebp)
   12d65:	eb 39                	jmp    12da0 <_km_dump+0x5e>
   12d67:	8b 45 f4             	mov    -0xc(%ebp),%eax
   12d6a:	8b 50 04             	mov    0x4(%eax),%edx
   12d6d:	8b 45 f4             	mov    -0xc(%ebp),%eax
   12d70:	8b 00                	mov    (%eax),%eax
   12d72:	c1 e0 0c             	shl    $0xc,%eax
   12d75:	89 c1                	mov    %eax,%ecx
   12d77:	8b 45 f4             	mov    -0xc(%ebp),%eax
   12d7a:	01 c1                	add    %eax,%ecx
   12d7c:	8b 45 f4             	mov    -0xc(%ebp),%eax
   12d7f:	8b 00                	mov    (%eax),%eax
   12d81:	83 ec 0c             	sub    $0xc,%esp
   12d84:	52                   	push   %edx
   12d85:	51                   	push   %ecx
   12d86:	50                   	push   %eax
   12d87:	ff 75 f4             	pushl  -0xc(%ebp)
   12d8a:	68 e0 88 01 00       	push   $0x188e0
   12d8f:	e8 bf e8 ff ff       	call   11653 <__cio_printf>
   12d94:	83 c4 20             	add    $0x20,%esp
   12d97:	8b 45 f4             	mov    -0xc(%ebp),%eax
   12d9a:	8b 40 04             	mov    0x4(%eax),%eax
   12d9d:	89 45 f4             	mov    %eax,-0xc(%ebp)
   12da0:	83 7d f4 00          	cmpl   $0x0,-0xc(%ebp)
   12da4:	75 c1                	jne    12d67 <_km_dump+0x25>
   12da6:	90                   	nop
   12da7:	c9                   	leave  
   12da8:	c3                   	ret    

00012da9 <_km_page_alloc>:
   12da9:	55                   	push   %ebp
   12daa:	89 e5                	mov    %esp,%ebp
   12dac:	83 ec 28             	sub    $0x28,%esp
   12daf:	a1 dc d6 01 00       	mov    0x1d6dc,%eax
   12db4:	85 c0                	test   %eax,%eax
   12db6:	75 3b                	jne    12df3 <_km_page_alloc+0x4a>
   12db8:	83 ec 04             	sub    $0x4,%esp
   12dbb:	68 1c 89 01 00       	push   $0x1891c
   12dc0:	6a 00                	push   $0x0
   12dc2:	68 bd 01 00 00       	push   $0x1bd
   12dc7:	68 a1 88 01 00       	push   $0x188a1
   12dcc:	68 44 89 01 00       	push   $0x18944
   12dd1:	68 a8 88 01 00       	push   $0x188a8
   12dd6:	68 a0 f7 01 00       	push   $0x1f7a0
   12ddb:	e8 d5 ed ff ff       	call   11bb5 <__sprint>
   12de0:	83 c4 20             	add    $0x20,%esp
   12de3:	83 ec 0c             	sub    $0xc,%esp
   12de6:	68 a0 f7 01 00       	push   $0x1f7a0
   12deb:	e8 b5 fb ff ff       	call   129a5 <_kpanic>
   12df0:	83 c4 10             	add    $0x10,%esp
   12df3:	83 7d 08 00          	cmpl   $0x0,0x8(%ebp)
   12df7:	75 0a                	jne    12e03 <_km_page_alloc+0x5a>
   12df9:	b8 00 00 00 00       	mov    $0x0,%eax
   12dfe:	e9 9c 00 00 00       	jmp    12e9f <_km_page_alloc+0xf6>
   12e03:	a1 d4 d6 01 00       	mov    0x1d6d4,%eax
   12e08:	89 45 f4             	mov    %eax,-0xc(%ebp)
   12e0b:	c7 45 f0 d4 d6 01 00 	movl   $0x1d6d4,-0x10(%ebp)
   12e12:	eb 11                	jmp    12e25 <_km_page_alloc+0x7c>
   12e14:	8b 45 f4             	mov    -0xc(%ebp),%eax
   12e17:	83 c0 04             	add    $0x4,%eax
   12e1a:	89 45 f0             	mov    %eax,-0x10(%ebp)
   12e1d:	8b 45 f0             	mov    -0x10(%ebp),%eax
   12e20:	8b 00                	mov    (%eax),%eax
   12e22:	89 45 f4             	mov    %eax,-0xc(%ebp)
   12e25:	83 7d f4 00          	cmpl   $0x0,-0xc(%ebp)
   12e29:	74 0a                	je     12e35 <_km_page_alloc+0x8c>
   12e2b:	8b 45 f4             	mov    -0xc(%ebp),%eax
   12e2e:	8b 00                	mov    (%eax),%eax
   12e30:	39 45 08             	cmp    %eax,0x8(%ebp)
   12e33:	77 df                	ja     12e14 <_km_page_alloc+0x6b>
   12e35:	83 7d f4 00          	cmpl   $0x0,-0xc(%ebp)
   12e39:	75 07                	jne    12e42 <_km_page_alloc+0x99>
   12e3b:	b8 00 00 00 00       	mov    $0x0,%eax
   12e40:	eb 5d                	jmp    12e9f <_km_page_alloc+0xf6>
   12e42:	8b 45 f4             	mov    -0xc(%ebp),%eax
   12e45:	8b 00                	mov    (%eax),%eax
   12e47:	39 45 08             	cmp    %eax,0x8(%ebp)
   12e4a:	75 0d                	jne    12e59 <_km_page_alloc+0xb0>
   12e4c:	8b 45 f4             	mov    -0xc(%ebp),%eax
   12e4f:	8b 50 04             	mov    0x4(%eax),%edx
   12e52:	8b 45 f0             	mov    -0x10(%ebp),%eax
   12e55:	89 10                	mov    %edx,(%eax)
   12e57:	eb 43                	jmp    12e9c <_km_page_alloc+0xf3>
   12e59:	8b 45 f4             	mov    -0xc(%ebp),%eax
   12e5c:	89 45 ec             	mov    %eax,-0x14(%ebp)
   12e5f:	8b 45 f4             	mov    -0xc(%ebp),%eax
   12e62:	8b 00                	mov    (%eax),%eax
   12e64:	2b 45 08             	sub    0x8(%ebp),%eax
   12e67:	89 45 e8             	mov    %eax,-0x18(%ebp)
   12e6a:	8b 45 08             	mov    0x8(%ebp),%eax
   12e6d:	c1 e0 0c             	shl    $0xc,%eax
   12e70:	89 c2                	mov    %eax,%edx
   12e72:	8b 45 f4             	mov    -0xc(%ebp),%eax
   12e75:	01 d0                	add    %edx,%eax
   12e77:	89 45 e4             	mov    %eax,-0x1c(%ebp)
   12e7a:	8b 55 e8             	mov    -0x18(%ebp),%edx
   12e7d:	8b 45 e4             	mov    -0x1c(%ebp),%eax
   12e80:	89 10                	mov    %edx,(%eax)
   12e82:	8b 45 f4             	mov    -0xc(%ebp),%eax
   12e85:	8b 50 04             	mov    0x4(%eax),%edx
   12e88:	8b 45 e4             	mov    -0x1c(%ebp),%eax
   12e8b:	89 50 04             	mov    %edx,0x4(%eax)
   12e8e:	8b 45 f0             	mov    -0x10(%ebp),%eax
   12e91:	8b 55 e4             	mov    -0x1c(%ebp),%edx
   12e94:	89 10                	mov    %edx,(%eax)
   12e96:	8b 45 ec             	mov    -0x14(%ebp),%eax
   12e99:	89 45 f4             	mov    %eax,-0xc(%ebp)
   12e9c:	8b 45 f4             	mov    -0xc(%ebp),%eax
   12e9f:	c9                   	leave  
   12ea0:	c3                   	ret    

00012ea1 <_km_page_free>:
   12ea1:	55                   	push   %ebp
   12ea2:	89 e5                	mov    %esp,%ebp
   12ea4:	83 ec 18             	sub    $0x18,%esp
   12ea7:	a1 dc d6 01 00       	mov    0x1d6dc,%eax
   12eac:	85 c0                	test   %eax,%eax
   12eae:	75 3b                	jne    12eeb <_km_page_free+0x4a>
   12eb0:	83 ec 04             	sub    $0x4,%esp
   12eb3:	68 1c 89 01 00       	push   $0x1891c
   12eb8:	6a 00                	push   $0x0
   12eba:	68 0d 02 00 00       	push   $0x20d
   12ebf:	68 a1 88 01 00       	push   $0x188a1
   12ec4:	68 54 89 01 00       	push   $0x18954
   12ec9:	68 a8 88 01 00       	push   $0x188a8
   12ece:	68 a0 f7 01 00       	push   $0x1f7a0
   12ed3:	e8 dd ec ff ff       	call   11bb5 <__sprint>
   12ed8:	83 c4 20             	add    $0x20,%esp
   12edb:	83 ec 0c             	sub    $0xc,%esp
   12ede:	68 a0 f7 01 00       	push   $0x1f7a0
   12ee3:	e8 bd fa ff ff       	call   129a5 <_kpanic>
   12ee8:	83 c4 10             	add    $0x10,%esp
   12eeb:	83 7d 08 00          	cmpl   $0x0,0x8(%ebp)
   12eef:	0f 84 d4 00 00 00    	je     12fc9 <_km_page_free+0x128>
   12ef5:	8b 45 08             	mov    0x8(%ebp),%eax
   12ef8:	89 45 f4             	mov    %eax,-0xc(%ebp)
   12efb:	8b 45 f4             	mov    -0xc(%ebp),%eax
   12efe:	c7 00 01 00 00 00    	movl   $0x1,(%eax)
   12f04:	c7 45 f0 00 00 00 00 	movl   $0x0,-0x10(%ebp)
   12f0b:	a1 d4 d6 01 00       	mov    0x1d6d4,%eax
   12f10:	89 45 ec             	mov    %eax,-0x14(%ebp)
   12f13:	eb 0f                	jmp    12f24 <_km_page_free+0x83>
   12f15:	8b 45 ec             	mov    -0x14(%ebp),%eax
   12f18:	89 45 f0             	mov    %eax,-0x10(%ebp)
   12f1b:	8b 45 ec             	mov    -0x14(%ebp),%eax
   12f1e:	8b 40 04             	mov    0x4(%eax),%eax
   12f21:	89 45 ec             	mov    %eax,-0x14(%ebp)
   12f24:	83 7d ec 00          	cmpl   $0x0,-0x14(%ebp)
   12f28:	74 08                	je     12f32 <_km_page_free+0x91>
   12f2a:	8b 45 ec             	mov    -0x14(%ebp),%eax
   12f2d:	3b 45 f4             	cmp    -0xc(%ebp),%eax
   12f30:	72 e3                	jb     12f15 <_km_page_free+0x74>
   12f32:	83 7d f0 00          	cmpl   $0x0,-0x10(%ebp)
   12f36:	74 44                	je     12f7c <_km_page_free+0xdb>
   12f38:	8b 45 f0             	mov    -0x10(%ebp),%eax
   12f3b:	8b 00                	mov    (%eax),%eax
   12f3d:	c1 e0 0c             	shl    $0xc,%eax
   12f40:	89 c2                	mov    %eax,%edx
   12f42:	8b 45 f0             	mov    -0x10(%ebp),%eax
   12f45:	01 d0                	add    %edx,%eax
   12f47:	39 45 f4             	cmp    %eax,-0xc(%ebp)
   12f4a:	75 19                	jne    12f65 <_km_page_free+0xc4>
   12f4c:	8b 45 f0             	mov    -0x10(%ebp),%eax
   12f4f:	8b 10                	mov    (%eax),%edx
   12f51:	8b 45 f4             	mov    -0xc(%ebp),%eax
   12f54:	8b 00                	mov    (%eax),%eax
   12f56:	01 c2                	add    %eax,%edx
   12f58:	8b 45 f0             	mov    -0x10(%ebp),%eax
   12f5b:	89 10                	mov    %edx,(%eax)
   12f5d:	8b 45 f0             	mov    -0x10(%ebp),%eax
   12f60:	89 45 f4             	mov    %eax,-0xc(%ebp)
   12f63:	eb 2b                	jmp    12f90 <_km_page_free+0xef>
   12f65:	8b 45 f0             	mov    -0x10(%ebp),%eax
   12f68:	8b 50 04             	mov    0x4(%eax),%edx
   12f6b:	8b 45 f4             	mov    -0xc(%ebp),%eax
   12f6e:	89 50 04             	mov    %edx,0x4(%eax)
   12f71:	8b 45 f0             	mov    -0x10(%ebp),%eax
   12f74:	8b 55 f4             	mov    -0xc(%ebp),%edx
   12f77:	89 50 04             	mov    %edx,0x4(%eax)
   12f7a:	eb 14                	jmp    12f90 <_km_page_free+0xef>
   12f7c:	8b 15 d4 d6 01 00    	mov    0x1d6d4,%edx
   12f82:	8b 45 f4             	mov    -0xc(%ebp),%eax
   12f85:	89 50 04             	mov    %edx,0x4(%eax)
   12f88:	8b 45 f4             	mov    -0xc(%ebp),%eax
   12f8b:	a3 d4 d6 01 00       	mov    %eax,0x1d6d4
   12f90:	83 7d ec 00          	cmpl   $0x0,-0x14(%ebp)
   12f94:	74 34                	je     12fca <_km_page_free+0x129>
   12f96:	8b 45 f4             	mov    -0xc(%ebp),%eax
   12f99:	8b 00                	mov    (%eax),%eax
   12f9b:	c1 e0 0c             	shl    $0xc,%eax
   12f9e:	89 c2                	mov    %eax,%edx
   12fa0:	8b 45 f4             	mov    -0xc(%ebp),%eax
   12fa3:	01 d0                	add    %edx,%eax
   12fa5:	39 45 ec             	cmp    %eax,-0x14(%ebp)
   12fa8:	75 20                	jne    12fca <_km_page_free+0x129>
   12faa:	8b 45 ec             	mov    -0x14(%ebp),%eax
   12fad:	8b 50 04             	mov    0x4(%eax),%edx
   12fb0:	8b 45 f4             	mov    -0xc(%ebp),%eax
   12fb3:	89 50 04             	mov    %edx,0x4(%eax)
   12fb6:	8b 45 f4             	mov    -0xc(%ebp),%eax
   12fb9:	8b 10                	mov    (%eax),%edx
   12fbb:	8b 45 ec             	mov    -0x14(%ebp),%eax
   12fbe:	8b 00                	mov    (%eax),%eax
   12fc0:	01 c2                	add    %eax,%edx
   12fc2:	8b 45 f4             	mov    -0xc(%ebp),%eax
   12fc5:	89 10                	mov    %edx,(%eax)
   12fc7:	eb 01                	jmp    12fca <_km_page_free+0x129>
   12fc9:	90                   	nop
   12fca:	c9                   	leave  
   12fcb:	c3                   	ret    

00012fcc <_carve_slices>:
   12fcc:	55                   	push   %ebp
   12fcd:	89 e5                	mov    %esp,%ebp
   12fcf:	83 ec 18             	sub    $0x18,%esp
   12fd2:	83 ec 0c             	sub    $0xc,%esp
   12fd5:	6a 01                	push   $0x1
   12fd7:	e8 cd fd ff ff       	call   12da9 <_km_page_alloc>
   12fdc:	83 c4 10             	add    $0x10,%esp
   12fdf:	89 45 ec             	mov    %eax,-0x14(%ebp)
   12fe2:	83 7d ec 00          	cmpl   $0x0,-0x14(%ebp)
   12fe6:	75 3b                	jne    13023 <_carve_slices+0x57>
   12fe8:	83 ec 04             	sub    $0x4,%esp
   12feb:	68 2c 89 01 00       	push   $0x1892c
   12ff0:	6a 00                	push   $0x0
   12ff2:	68 90 02 00 00       	push   $0x290
   12ff7:	68 a1 88 01 00       	push   $0x188a1
   12ffc:	68 64 89 01 00       	push   $0x18964
   13001:	68 a8 88 01 00       	push   $0x188a8
   13006:	68 a0 f7 01 00       	push   $0x1f7a0
   1300b:	e8 a5 eb ff ff       	call   11bb5 <__sprint>
   13010:	83 c4 20             	add    $0x20,%esp
   13013:	83 ec 0c             	sub    $0xc,%esp
   13016:	68 a0 f7 01 00       	push   $0x1f7a0
   1301b:	e8 85 f9 ff ff       	call   129a5 <_kpanic>
   13020:	83 c4 10             	add    $0x10,%esp
   13023:	8b 45 ec             	mov    -0x14(%ebp),%eax
   13026:	89 45 f4             	mov    %eax,-0xc(%ebp)
   13029:	c7 45 f0 00 00 00 00 	movl   $0x0,-0x10(%ebp)
   13030:	eb 19                	jmp    1304b <_carve_slices+0x7f>
   13032:	83 ec 0c             	sub    $0xc,%esp
   13035:	ff 75 f4             	pushl  -0xc(%ebp)
   13038:	e8 db 00 00 00       	call   13118 <_km_slice_free>
   1303d:	83 c4 10             	add    $0x10,%esp
   13040:	81 45 f4 00 04 00 00 	addl   $0x400,-0xc(%ebp)
   13047:	83 45 f0 01          	addl   $0x1,-0x10(%ebp)
   1304b:	83 7d f0 03          	cmpl   $0x3,-0x10(%ebp)
   1304f:	7e e1                	jle    13032 <_carve_slices+0x66>
   13051:	90                   	nop
   13052:	c9                   	leave  
   13053:	c3                   	ret    

00013054 <_km_slice_alloc>:
   13054:	55                   	push   %ebp
   13055:	89 e5                	mov    %esp,%ebp
   13057:	83 ec 18             	sub    $0x18,%esp
   1305a:	a1 dc d6 01 00       	mov    0x1d6dc,%eax
   1305f:	85 c0                	test   %eax,%eax
   13061:	75 3b                	jne    1309e <_km_slice_alloc+0x4a>
   13063:	83 ec 04             	sub    $0x4,%esp
   13066:	68 1c 89 01 00       	push   $0x1891c
   1306b:	6a 00                	push   $0x0
   1306d:	68 a5 02 00 00       	push   $0x2a5
   13072:	68 a1 88 01 00       	push   $0x188a1
   13077:	68 74 89 01 00       	push   $0x18974
   1307c:	68 a8 88 01 00       	push   $0x188a8
   13081:	68 a0 f7 01 00       	push   $0x1f7a0
   13086:	e8 2a eb ff ff       	call   11bb5 <__sprint>
   1308b:	83 c4 20             	add    $0x20,%esp
   1308e:	83 ec 0c             	sub    $0xc,%esp
   13091:	68 a0 f7 01 00       	push   $0x1f7a0
   13096:	e8 0a f9 ff ff       	call   129a5 <_kpanic>
   1309b:	83 c4 10             	add    $0x10,%esp
   1309e:	a1 d8 d6 01 00       	mov    0x1d6d8,%eax
   130a3:	85 c0                	test   %eax,%eax
   130a5:	75 05                	jne    130ac <_km_slice_alloc+0x58>
   130a7:	e8 20 ff ff ff       	call   12fcc <_carve_slices>
   130ac:	a1 d8 d6 01 00       	mov    0x1d6d8,%eax
   130b1:	89 45 f4             	mov    %eax,-0xc(%ebp)
   130b4:	83 7d f4 00          	cmpl   $0x0,-0xc(%ebp)
   130b8:	75 3b                	jne    130f5 <_km_slice_alloc+0xa1>
   130ba:	83 ec 04             	sub    $0x4,%esp
   130bd:	68 31 89 01 00       	push   $0x18931
   130c2:	6a 00                	push   $0x0
   130c4:	68 ae 02 00 00       	push   $0x2ae
   130c9:	68 a1 88 01 00       	push   $0x188a1
   130ce:	68 74 89 01 00       	push   $0x18974
   130d3:	68 a8 88 01 00       	push   $0x188a8
   130d8:	68 a0 f7 01 00       	push   $0x1f7a0
   130dd:	e8 d3 ea ff ff       	call   11bb5 <__sprint>
   130e2:	83 c4 20             	add    $0x20,%esp
   130e5:	83 ec 0c             	sub    $0xc,%esp
   130e8:	68 a0 f7 01 00       	push   $0x1f7a0
   130ed:	e8 b3 f8 ff ff       	call   129a5 <_kpanic>
   130f2:	83 c4 10             	add    $0x10,%esp
   130f5:	8b 45 f4             	mov    -0xc(%ebp),%eax
   130f8:	8b 40 04             	mov    0x4(%eax),%eax
   130fb:	a3 d8 d6 01 00       	mov    %eax,0x1d6d8
   13100:	83 ec 08             	sub    $0x8,%esp
   13103:	68 00 04 00 00       	push   $0x400
   13108:	ff 75 f4             	pushl  -0xc(%ebp)
   1310b:	e8 e3 e8 ff ff       	call   119f3 <__memclr>
   13110:	83 c4 10             	add    $0x10,%esp
   13113:	8b 45 f4             	mov    -0xc(%ebp),%eax
   13116:	c9                   	leave  
   13117:	c3                   	ret    

00013118 <_km_slice_free>:
   13118:	55                   	push   %ebp
   13119:	89 e5                	mov    %esp,%ebp
   1311b:	83 ec 18             	sub    $0x18,%esp
   1311e:	8b 45 08             	mov    0x8(%ebp),%eax
   13121:	89 45 f4             	mov    %eax,-0xc(%ebp)
   13124:	a1 dc d6 01 00       	mov    0x1d6dc,%eax
   13129:	85 c0                	test   %eax,%eax
   1312b:	75 3b                	jne    13168 <_km_slice_free+0x50>
   1312d:	83 ec 04             	sub    $0x4,%esp
   13130:	68 1c 89 01 00       	push   $0x1891c
   13135:	6a 00                	push   $0x0
   13137:	68 c6 02 00 00       	push   $0x2c6
   1313c:	68 a1 88 01 00       	push   $0x188a1
   13141:	68 84 89 01 00       	push   $0x18984
   13146:	68 a8 88 01 00       	push   $0x188a8
   1314b:	68 a0 f7 01 00       	push   $0x1f7a0
   13150:	e8 60 ea ff ff       	call   11bb5 <__sprint>
   13155:	83 c4 20             	add    $0x20,%esp
   13158:	83 ec 0c             	sub    $0xc,%esp
   1315b:	68 a0 f7 01 00       	push   $0x1f7a0
   13160:	e8 40 f8 ff ff       	call   129a5 <_kpanic>
   13165:	83 c4 10             	add    $0x10,%esp
   13168:	8b 45 f4             	mov    -0xc(%ebp),%eax
   1316b:	c7 00 00 04 00 00    	movl   $0x400,(%eax)
   13171:	8b 15 d8 d6 01 00    	mov    0x1d6d8,%edx
   13177:	8b 45 f4             	mov    -0xc(%ebp),%eax
   1317a:	89 50 04             	mov    %edx,0x4(%eax)
   1317d:	8b 45 f4             	mov    -0xc(%ebp),%eax
   13180:	a3 d8 d6 01 00       	mov    %eax,0x1d6d8
   13185:	90                   	nop
   13186:	c9                   	leave  
   13187:	c3                   	ret    

00013188 <_pcb_init>:
   13188:	55                   	push   %ebp
   13189:	89 e5                	mov    %esp,%ebp
   1318b:	83 ec 08             	sub    $0x8,%esp
   1318e:	83 ec 0c             	sub    $0xc,%esp
   13191:	68 94 89 01 00       	push   $0x18994
   13196:	e8 3e de ff ff       	call   10fd9 <__cio_puts>
   1319b:	83 c4 10             	add    $0x10,%esp
   1319e:	83 ec 0c             	sub    $0xc,%esp
   131a1:	68 e0 d6 01 00       	push   $0x1d6e0
   131a6:	e8 f2 2b 00 00       	call   15d9d <_vec_clear>
   131ab:	83 c4 10             	add    $0x10,%esp
   131ae:	83 ec 08             	sub    $0x8,%esp
   131b1:	68 78 32 01 00       	push   $0x13278
   131b6:	6a 20                	push   $0x20
   131b8:	e8 8f f7 ff ff       	call   1294c <_grow_list>
   131bd:	83 c4 10             	add    $0x10,%esp
   131c0:	84 c0                	test   %al,%al
   131c2:	75 38                	jne    131fc <_pcb_init+0x74>
   131c4:	83 ec 04             	sub    $0x4,%esp
   131c7:	68 a0 89 01 00       	push   $0x189a0
   131cc:	6a 00                	push   $0x0
   131ce:	6a 4c                	push   $0x4c
   131d0:	68 c2 89 01 00       	push   $0x189c2
   131d5:	68 b0 8b 01 00       	push   $0x18bb0
   131da:	68 ce 89 01 00       	push   $0x189ce
   131df:	68 a0 f7 01 00       	push   $0x1f7a0
   131e4:	e8 cc e9 ff ff       	call   11bb5 <__sprint>
   131e9:	83 c4 20             	add    $0x20,%esp
   131ec:	83 ec 0c             	sub    $0xc,%esp
   131ef:	68 a0 f7 01 00       	push   $0x1f7a0
   131f4:	e8 ac f7 ff ff       	call   129a5 <_kpanic>
   131f9:	83 c4 10             	add    $0x10,%esp
   131fc:	c7 05 c0 fe 01 00 00 	movl   $0x0,0x1fec0
   13203:	00 00 00 
   13206:	83 ec 08             	sub    $0x8,%esp
   13209:	6a 64                	push   $0x64
   1320b:	68 e0 fe 01 00       	push   $0x1fee0
   13210:	e8 de e7 ff ff       	call   119f3 <__memclr>
   13215:	83 c4 10             	add    $0x10,%esp
   13218:	66 c7 05 44 ff 01 00 	movw   $0x2,0x1ff44
   1321f:	02 00 
   13221:	90                   	nop
   13222:	c9                   	leave  
   13223:	c3                   	ret    

00013224 <_pcb_alloc>:
   13224:	55                   	push   %ebp
   13225:	89 e5                	mov    %esp,%ebp
   13227:	83 ec 18             	sub    $0x18,%esp
   1322a:	a1 e0 d6 01 00       	mov    0x1d6e0,%eax
   1322f:	85 c0                	test   %eax,%eax
   13231:	75 1d                	jne    13250 <_pcb_alloc+0x2c>
   13233:	83 ec 08             	sub    $0x8,%esp
   13236:	68 78 32 01 00       	push   $0x13278
   1323b:	6a 20                	push   $0x20
   1323d:	e8 0a f7 ff ff       	call   1294c <_grow_list>
   13242:	83 c4 10             	add    $0x10,%esp
   13245:	84 c0                	test   %al,%al
   13247:	75 07                	jne    13250 <_pcb_alloc+0x2c>
   13249:	b8 00 00 00 00       	mov    $0x0,%eax
   1324e:	eb 26                	jmp    13276 <_pcb_alloc+0x52>
   13250:	83 ec 0c             	sub    $0xc,%esp
   13253:	68 e0 d6 01 00       	push   $0x1d6e0
   13258:	e8 b2 2c 00 00       	call   15f0f <_vec_remove>
   1325d:	83 c4 10             	add    $0x10,%esp
   13260:	89 45 f4             	mov    %eax,-0xc(%ebp)
   13263:	83 ec 08             	sub    $0x8,%esp
   13266:	6a 20                	push   $0x20
   13268:	ff 75 f4             	pushl  -0xc(%ebp)
   1326b:	e8 83 e7 ff ff       	call   119f3 <__memclr>
   13270:	83 c4 10             	add    $0x10,%esp
   13273:	8b 45 f4             	mov    -0xc(%ebp),%eax
   13276:	c9                   	leave  
   13277:	c3                   	ret    

00013278 <_pcb_free>:
   13278:	55                   	push   %ebp
   13279:	89 e5                	mov    %esp,%ebp
   1327b:	83 ec 18             	sub    $0x18,%esp
   1327e:	83 7d 08 00          	cmpl   $0x0,0x8(%ebp)
   13282:	74 3b                	je     132bf <_pcb_free+0x47>
   13284:	8b 45 08             	mov    0x8(%ebp),%eax
   13287:	89 45 f4             	mov    %eax,-0xc(%ebp)
   1328a:	8b 45 f4             	mov    -0xc(%ebp),%eax
   1328d:	c6 40 18 00          	movb   $0x0,0x18(%eax)
   13291:	8b 45 f4             	mov    -0xc(%ebp),%eax
   13294:	66 c7 40 16 00 00    	movw   $0x0,0x16(%eax)
   1329a:	8b 45 f4             	mov    -0xc(%ebp),%eax
   1329d:	0f b7 50 16          	movzwl 0x16(%eax),%edx
   132a1:	8b 45 f4             	mov    -0xc(%ebp),%eax
   132a4:	66 89 50 14          	mov    %dx,0x14(%eax)
   132a8:	83 ec 04             	sub    $0x4,%esp
   132ab:	ff 75 f4             	pushl  -0xc(%ebp)
   132ae:	6a 00                	push   $0x0
   132b0:	68 e0 d6 01 00       	push   $0x1d6e0
   132b5:	e8 54 2b 00 00       	call   15e0e <_vec_add>
   132ba:	83 c4 10             	add    $0x10,%esp
   132bd:	eb 01                	jmp    132c0 <_pcb_free+0x48>
   132bf:	90                   	nop
   132c0:	c9                   	leave  
   132c1:	c3                   	ret    

000132c2 <_pcb_find>:
   132c2:	55                   	push   %ebp
   132c3:	89 e5                	mov    %esp,%ebp
   132c5:	83 ec 14             	sub    $0x14,%esp
   132c8:	8b 45 08             	mov    0x8(%ebp),%eax
   132cb:	66 89 45 ec          	mov    %ax,-0x14(%ebp)
   132cf:	c7 45 fc 00 00 00 00 	movl   $0x0,-0x4(%ebp)
   132d6:	eb 32                	jmp    1330a <_pcb_find+0x48>
   132d8:	8b 45 fc             	mov    -0x4(%ebp),%eax
   132db:	8b 04 85 e0 fe 01 00 	mov    0x1fee0(,%eax,4),%eax
   132e2:	85 c0                	test   %eax,%eax
   132e4:	74 20                	je     13306 <_pcb_find+0x44>
   132e6:	8b 45 fc             	mov    -0x4(%ebp),%eax
   132e9:	8b 04 85 e0 fe 01 00 	mov    0x1fee0(,%eax,4),%eax
   132f0:	0f b7 40 14          	movzwl 0x14(%eax),%eax
   132f4:	66 39 45 ec          	cmp    %ax,-0x14(%ebp)
   132f8:	75 0c                	jne    13306 <_pcb_find+0x44>
   132fa:	8b 45 fc             	mov    -0x4(%ebp),%eax
   132fd:	8b 04 85 e0 fe 01 00 	mov    0x1fee0(,%eax,4),%eax
   13304:	eb 0f                	jmp    13315 <_pcb_find+0x53>
   13306:	83 45 fc 01          	addl   $0x1,-0x4(%ebp)
   1330a:	83 7d fc 18          	cmpl   $0x18,-0x4(%ebp)
   1330e:	7e c8                	jle    132d8 <_pcb_find+0x16>
   13310:	b8 00 00 00 00       	mov    $0x0,%eax
   13315:	c9                   	leave  
   13316:	c3                   	ret    

00013317 <_pcb_cleanup>:
   13317:	55                   	push   %ebp
   13318:	89 e5                	mov    %esp,%ebp
   1331a:	83 ec 18             	sub    $0x18,%esp
   1331d:	83 7d 08 00          	cmpl   $0x0,0x8(%ebp)
   13321:	0f 84 ca 00 00 00    	je     133f1 <_pcb_cleanup+0xda>
   13327:	c7 45 f4 00 00 00 00 	movl   $0x0,-0xc(%ebp)
   1332e:	eb 30                	jmp    13360 <_pcb_cleanup+0x49>
   13330:	8b 45 f4             	mov    -0xc(%ebp),%eax
   13333:	8b 04 85 e0 fe 01 00 	mov    0x1fee0(,%eax,4),%eax
   1333a:	39 45 08             	cmp    %eax,0x8(%ebp)
   1333d:	75 1d                	jne    1335c <_pcb_cleanup+0x45>
   1333f:	8b 45 f4             	mov    -0xc(%ebp),%eax
   13342:	c7 04 85 e0 fe 01 00 	movl   $0x0,0x1fee0(,%eax,4)
   13349:	00 00 00 00 
   1334d:	a1 c0 fe 01 00       	mov    0x1fec0,%eax
   13352:	83 e8 01             	sub    $0x1,%eax
   13355:	a3 c0 fe 01 00       	mov    %eax,0x1fec0
   1335a:	eb 0a                	jmp    13366 <_pcb_cleanup+0x4f>
   1335c:	83 45 f4 01          	addl   $0x1,-0xc(%ebp)
   13360:	83 7d f4 18          	cmpl   $0x18,-0xc(%ebp)
   13364:	7e ca                	jle    13330 <_pcb_cleanup+0x19>
   13366:	83 7d f4 18          	cmpl   $0x18,-0xc(%ebp)
   1336a:	7e 3b                	jle    133a7 <_pcb_cleanup+0x90>
   1336c:	83 ec 04             	sub    $0x4,%esp
   1336f:	68 eb 89 01 00       	push   $0x189eb
   13374:	6a 02                	push   $0x2
   13376:	68 de 00 00 00       	push   $0xde
   1337b:	68 c2 89 01 00       	push   $0x189c2
   13380:	68 bc 8b 01 00       	push   $0x18bbc
   13385:	68 ce 89 01 00       	push   $0x189ce
   1338a:	68 a0 f7 01 00       	push   $0x1f7a0
   1338f:	e8 21 e8 ff ff       	call   11bb5 <__sprint>
   13394:	83 c4 20             	add    $0x20,%esp
   13397:	83 ec 0c             	sub    $0xc,%esp
   1339a:	68 a0 f7 01 00       	push   $0x1f7a0
   1339f:	e8 01 f6 ff ff       	call   129a5 <_kpanic>
   133a4:	83 c4 10             	add    $0x10,%esp
   133a7:	8b 45 08             	mov    0x8(%ebp),%eax
   133aa:	8b 40 04             	mov    0x4(%eax),%eax
   133ad:	85 c0                	test   %eax,%eax
   133af:	74 12                	je     133c3 <_pcb_cleanup+0xac>
   133b1:	8b 45 08             	mov    0x8(%ebp),%eax
   133b4:	8b 40 04             	mov    0x4(%eax),%eax
   133b7:	83 ec 0c             	sub    $0xc,%esp
   133ba:	50                   	push   %eax
   133bb:	e8 db 1b 00 00       	call   14f9b <_stk_free>
   133c0:	83 c4 10             	add    $0x10,%esp
   133c3:	8b 45 08             	mov    0x8(%ebp),%eax
   133c6:	c6 40 18 00          	movb   $0x0,0x18(%eax)
   133ca:	8b 45 08             	mov    0x8(%ebp),%eax
   133cd:	66 c7 40 16 00 00    	movw   $0x0,0x16(%eax)
   133d3:	8b 45 08             	mov    0x8(%ebp),%eax
   133d6:	0f b7 50 16          	movzwl 0x16(%eax),%edx
   133da:	8b 45 08             	mov    0x8(%ebp),%eax
   133dd:	66 89 50 14          	mov    %dx,0x14(%eax)
   133e1:	83 ec 0c             	sub    $0xc,%esp
   133e4:	ff 75 08             	pushl  0x8(%ebp)
   133e7:	e8 8c fe ff ff       	call   13278 <_pcb_free>
   133ec:	83 c4 10             	add    $0x10,%esp
   133ef:	eb 01                	jmp    133f2 <_pcb_cleanup+0xdb>
   133f1:	90                   	nop
   133f2:	c9                   	leave  
   133f3:	c3                   	ret    

000133f4 <_performExit>:
   133f4:	55                   	push   %ebp
   133f5:	89 e5                	mov    %esp,%ebp
   133f7:	53                   	push   %ebx
   133f8:	83 ec 24             	sub    $0x24,%esp
   133fb:	8b 45 08             	mov    0x8(%ebp),%eax
   133fe:	c6 40 18 07          	movb   $0x7,0x18(%eax)
   13402:	c7 45 f4 00 00 00 00 	movl   $0x0,-0xc(%ebp)
   13409:	c7 45 f0 00 00 00 00 	movl   $0x0,-0x10(%ebp)
   13410:	c7 45 ec 00 00 00 00 	movl   $0x0,-0x14(%ebp)
   13417:	eb 55                	jmp    1346e <_performExit+0x7a>
   13419:	8b 45 ec             	mov    -0x14(%ebp),%eax
   1341c:	8b 1c 85 e0 fe 01 00 	mov    0x1fee0(,%eax,4),%ebx
   13423:	85 db                	test   %ebx,%ebx
   13425:	74 42                	je     13469 <_performExit+0x75>
   13427:	0f b7 53 14          	movzwl 0x14(%ebx),%edx
   1342b:	8b 45 08             	mov    0x8(%ebp),%eax
   1342e:	0f b7 40 16          	movzwl 0x16(%eax),%eax
   13432:	66 39 c2             	cmp    %ax,%dx
   13435:	75 05                	jne    1343c <_performExit+0x48>
   13437:	89 5d f4             	mov    %ebx,-0xc(%ebp)
   1343a:	eb 2e                	jmp    1346a <_performExit+0x76>
   1343c:	0f b7 53 16          	movzwl 0x16(%ebx),%edx
   13440:	8b 45 08             	mov    0x8(%ebp),%eax
   13443:	0f b7 40 14          	movzwl 0x14(%eax),%eax
   13447:	66 39 c2             	cmp    %ax,%dx
   1344a:	75 1e                	jne    1346a <_performExit+0x76>
   1344c:	66 c7 43 16 01 00    	movw   $0x1,0x16(%ebx)
   13452:	0f b6 43 18          	movzbl 0x18(%ebx),%eax
   13456:	3c 07                	cmp    $0x7,%al
   13458:	75 10                	jne    1346a <_performExit+0x76>
   1345a:	8b 45 ec             	mov    -0x14(%ebp),%eax
   1345d:	8b 04 85 e0 fe 01 00 	mov    0x1fee0(,%eax,4),%eax
   13464:	89 45 f0             	mov    %eax,-0x10(%ebp)
   13467:	eb 01                	jmp    1346a <_performExit+0x76>
   13469:	90                   	nop
   1346a:	83 45 ec 01          	addl   $0x1,-0x14(%ebp)
   1346e:	83 7d ec 18          	cmpl   $0x18,-0x14(%ebp)
   13472:	7e a5                	jle    13419 <_performExit+0x25>
   13474:	83 7d f4 00          	cmpl   $0x0,-0xc(%ebp)
   13478:	75 3b                	jne    134b5 <_performExit+0xc1>
   1347a:	83 ec 04             	sub    $0x4,%esp
   1347d:	68 f2 89 01 00       	push   $0x189f2
   13482:	6a 00                	push   $0x0
   13484:	68 38 01 00 00       	push   $0x138
   13489:	68 c2 89 01 00       	push   $0x189c2
   1348e:	68 cc 8b 01 00       	push   $0x18bcc
   13493:	68 ce 89 01 00       	push   $0x189ce
   13498:	68 a0 f7 01 00       	push   $0x1f7a0
   1349d:	e8 13 e7 ff ff       	call   11bb5 <__sprint>
   134a2:	83 c4 20             	add    $0x20,%esp
   134a5:	83 ec 0c             	sub    $0xc,%esp
   134a8:	68 a0 f7 01 00       	push   $0x1f7a0
   134ad:	e8 f3 f4 ff ff       	call   129a5 <_kpanic>
   134b2:	83 c4 10             	add    $0x10,%esp
   134b5:	83 7d f0 00          	cmpl   $0x0,-0x10(%ebp)
   134b9:	74 63                	je     1351e <_performExit+0x12a>
   134bb:	a1 c4 fe 01 00       	mov    0x1fec4,%eax
   134c0:	0f b6 40 18          	movzbl 0x18(%eax),%eax
   134c4:	3c 05                	cmp    $0x5,%al
   134c6:	75 56                	jne    1351e <_performExit+0x12a>
   134c8:	8b 45 f0             	mov    -0x10(%ebp),%eax
   134cb:	0f b7 50 14          	movzwl 0x14(%eax),%edx
   134cf:	a1 c4 fe 01 00       	mov    0x1fec4,%eax
   134d4:	8b 00                	mov    (%eax),%eax
   134d6:	0f b7 d2             	movzwl %dx,%edx
   134d9:	89 50 30             	mov    %edx,0x30(%eax)
   134dc:	a1 c4 fe 01 00       	mov    0x1fec4,%eax
   134e1:	8b 00                	mov    (%eax),%eax
   134e3:	83 c0 48             	add    $0x48,%eax
   134e6:	83 c0 04             	add    $0x4,%eax
   134e9:	8b 00                	mov    (%eax),%eax
   134eb:	89 45 e8             	mov    %eax,-0x18(%ebp)
   134ee:	83 7d e8 00          	cmpl   $0x0,-0x18(%ebp)
   134f2:	74 0b                	je     134ff <_performExit+0x10b>
   134f4:	8b 45 f0             	mov    -0x10(%ebp),%eax
   134f7:	8b 50 08             	mov    0x8(%eax),%edx
   134fa:	8b 45 e8             	mov    -0x18(%ebp),%eax
   134fd:	89 10                	mov    %edx,(%eax)
   134ff:	a1 c4 fe 01 00       	mov    0x1fec4,%eax
   13504:	83 ec 0c             	sub    $0xc,%esp
   13507:	50                   	push   %eax
   13508:	e8 52 0e 00 00       	call   1435f <_schedule>
   1350d:	83 c4 10             	add    $0x10,%esp
   13510:	83 ec 0c             	sub    $0xc,%esp
   13513:	ff 75 f0             	pushl  -0x10(%ebp)
   13516:	e8 fc fd ff ff       	call   13317 <_pcb_cleanup>
   1351b:	83 c4 10             	add    $0x10,%esp
   1351e:	8b 45 f4             	mov    -0xc(%ebp),%eax
   13521:	0f b6 40 18          	movzbl 0x18(%eax),%eax
   13525:	3c 05                	cmp    $0x5,%al
   13527:	75 51                	jne    1357a <_performExit+0x186>
   13529:	8b 45 08             	mov    0x8(%ebp),%eax
   1352c:	0f b7 50 14          	movzwl 0x14(%eax),%edx
   13530:	8b 45 f4             	mov    -0xc(%ebp),%eax
   13533:	8b 00                	mov    (%eax),%eax
   13535:	0f b7 d2             	movzwl %dx,%edx
   13538:	89 50 30             	mov    %edx,0x30(%eax)
   1353b:	8b 45 f4             	mov    -0xc(%ebp),%eax
   1353e:	8b 00                	mov    (%eax),%eax
   13540:	83 c0 48             	add    $0x48,%eax
   13543:	83 c0 04             	add    $0x4,%eax
   13546:	8b 00                	mov    (%eax),%eax
   13548:	89 45 e4             	mov    %eax,-0x1c(%ebp)
   1354b:	83 7d e4 00          	cmpl   $0x0,-0x1c(%ebp)
   1354f:	74 0b                	je     1355c <_performExit+0x168>
   13551:	8b 45 08             	mov    0x8(%ebp),%eax
   13554:	8b 50 08             	mov    0x8(%eax),%edx
   13557:	8b 45 e4             	mov    -0x1c(%ebp),%eax
   1355a:	89 10                	mov    %edx,(%eax)
   1355c:	83 ec 0c             	sub    $0xc,%esp
   1355f:	ff 75 f4             	pushl  -0xc(%ebp)
   13562:	e8 f8 0d 00 00       	call   1435f <_schedule>
   13567:	83 c4 10             	add    $0x10,%esp
   1356a:	83 ec 0c             	sub    $0xc,%esp
   1356d:	ff 75 08             	pushl  0x8(%ebp)
   13570:	e8 a2 fd ff ff       	call   13317 <_pcb_cleanup>
   13575:	83 c4 10             	add    $0x10,%esp
   13578:	eb 07                	jmp    13581 <_performExit+0x18d>
   1357a:	8b 45 08             	mov    0x8(%ebp),%eax
   1357d:	c6 40 18 07          	movb   $0x7,0x18(%eax)
   13581:	90                   	nop
   13582:	8b 5d fc             	mov    -0x4(%ebp),%ebx
   13585:	c9                   	leave  
   13586:	c3                   	ret    

00013587 <_pcount>:
   13587:	55                   	push   %ebp
   13588:	89 e5                	mov    %esp,%ebp
   1358a:	56                   	push   %esi
   1358b:	53                   	push   %ebx
   1358c:	83 ec 10             	sub    $0x10,%esp
   1358f:	8b 75 08             	mov    0x8(%ebp),%esi
   13592:	83 ec 08             	sub    $0x8,%esp
   13595:	6a 24                	push   $0x24
   13597:	56                   	push   %esi
   13598:	e8 56 e4 ff ff       	call   119f3 <__memclr>
   1359d:	83 c4 10             	add    $0x10,%esp
   135a0:	c7 45 f4 00 00 00 00 	movl   $0x0,-0xc(%ebp)
   135a7:	bb 00 00 00 00       	mov    $0x0,%ebx
   135ac:	eb 41                	jmp    135ef <_pcount+0x68>
   135ae:	8b 04 9d e0 fe 01 00 	mov    0x1fee0(,%ebx,4),%eax
   135b5:	85 c0                	test   %eax,%eax
   135b7:	74 2f                	je     135e8 <_pcount+0x61>
   135b9:	8b 04 9d e0 fe 01 00 	mov    0x1fee0(,%ebx,4),%eax
   135c0:	0f b6 40 18          	movzbl 0x18(%eax),%eax
   135c4:	0f b6 c0             	movzbl %al,%eax
   135c7:	c1 e0 02             	shl    $0x2,%eax
   135ca:	01 f0                	add    %esi,%eax
   135cc:	8b 10                	mov    (%eax),%edx
   135ce:	8b 04 9d e0 fe 01 00 	mov    0x1fee0(,%ebx,4),%eax
   135d5:	0f b6 40 18          	movzbl 0x18(%eax),%eax
   135d9:	0f b6 c0             	movzbl %al,%eax
   135dc:	c1 e0 02             	shl    $0x2,%eax
   135df:	01 f0                	add    %esi,%eax
   135e1:	83 c2 01             	add    $0x1,%edx
   135e4:	89 10                	mov    %edx,(%eax)
   135e6:	eb 04                	jmp    135ec <_pcount+0x65>
   135e8:	83 45 f4 01          	addl   $0x1,-0xc(%ebp)
   135ec:	83 c3 01             	add    $0x1,%ebx
   135ef:	83 fb 18             	cmp    $0x18,%ebx
   135f2:	7e ba                	jle    135ae <_pcount+0x27>
   135f4:	8b 45 f4             	mov    -0xc(%ebp),%eax
   135f7:	8d 65 f8             	lea    -0x8(%ebp),%esp
   135fa:	5b                   	pop    %ebx
   135fb:	5e                   	pop    %esi
   135fc:	5d                   	pop    %ebp
   135fd:	c3                   	ret    

000135fe <_pcb_dump>:
   135fe:	55                   	push   %ebp
   135ff:	89 e5                	mov    %esp,%ebp
   13601:	56                   	push   %esi
   13602:	53                   	push   %ebx
   13603:	83 ec 10             	sub    $0x10,%esp
   13606:	8b 5d 0c             	mov    0xc(%ebp),%ebx
   13609:	83 7d 08 00          	cmpl   $0x0,0x8(%ebp)
   1360d:	74 0e                	je     1361d <_pcb_dump+0x1f>
   1360f:	83 ec 0c             	sub    $0xc,%esp
   13612:	ff 75 08             	pushl  0x8(%ebp)
   13615:	e8 bf d9 ff ff       	call   10fd9 <__cio_puts>
   1361a:	83 c4 10             	add    $0x10,%esp
   1361d:	89 d8                	mov    %ebx,%eax
   1361f:	83 ec 08             	sub    $0x8,%esp
   13622:	50                   	push   %eax
   13623:	68 fe 89 01 00       	push   $0x189fe
   13628:	e8 26 e0 ff ff       	call   11653 <__cio_printf>
   1362d:	83 c4 10             	add    $0x10,%esp
   13630:	85 db                	test   %ebx,%ebx
   13632:	75 15                	jne    13649 <_pcb_dump+0x4b>
   13634:	83 ec 0c             	sub    $0xc,%esp
   13637:	68 08 8a 01 00       	push   $0x18a08
   1363c:	e8 98 d9 ff ff       	call   10fd9 <__cio_puts>
   13641:	83 c4 10             	add    $0x10,%esp
   13644:	e9 b7 00 00 00       	jmp    13700 <_pcb_dump+0x102>
   13649:	0f b6 43 19          	movzbl 0x19(%ebx),%eax
   1364d:	0f b6 f0             	movzbl %al,%esi
   13650:	0f b6 43 18          	movzbl 0x18(%ebx),%eax
   13654:	0f b6 c8             	movzbl %al,%ecx
   13657:	0f b7 43 16          	movzwl 0x16(%ebx),%eax
   1365b:	0f b7 d0             	movzwl %ax,%edx
   1365e:	0f b7 43 14          	movzwl 0x14(%ebx),%eax
   13662:	0f b7 c0             	movzwl %ax,%eax
   13665:	83 ec 0c             	sub    $0xc,%esp
   13668:	56                   	push   %esi
   13669:	51                   	push   %ecx
   1366a:	52                   	push   %edx
   1366b:	50                   	push   %eax
   1366c:	68 12 8a 01 00       	push   $0x18a12
   13671:	e8 dd df ff ff       	call   11653 <__cio_printf>
   13676:	83 c4 20             	add    $0x20,%esp
   13679:	8b 4b 0c             	mov    0xc(%ebx),%ecx
   1367c:	8b 53 08             	mov    0x8(%ebx),%edx
   1367f:	0f b6 43 1a          	movzbl 0x1a(%ebx),%eax
   13683:	0f b6 c0             	movzbl %al,%eax
   13686:	51                   	push   %ecx
   13687:	52                   	push   %edx
   13688:	50                   	push   %eax
   13689:	68 2f 8a 01 00       	push   $0x18a2f
   1368e:	e8 c0 df ff ff       	call   11653 <__cio_printf>
   13693:	83 c4 10             	add    $0x10,%esp
   13696:	8b 43 04             	mov    0x4(%ebx),%eax
   13699:	89 c2                	mov    %eax,%edx
   1369b:	8b 03                	mov    (%ebx),%eax
   1369d:	83 ec 04             	sub    $0x4,%esp
   136a0:	52                   	push   %edx
   136a1:	50                   	push   %eax
   136a2:	68 4b 8a 01 00       	push   $0x18a4b
   136a7:	e8 a7 df ff ff       	call   11653 <__cio_printf>
   136ac:	83 c4 10             	add    $0x10,%esp
   136af:	83 ec 0c             	sub    $0xc,%esp
   136b2:	68 65 8a 01 00       	push   $0x18a65
   136b7:	e8 1d d9 ff ff       	call   10fd9 <__cio_puts>
   136bc:	83 c4 10             	add    $0x10,%esp
   136bf:	c7 45 f4 00 00 00 00 	movl   $0x0,-0xc(%ebp)
   136c6:	eb 23                	jmp    136eb <_pcb_dump+0xed>
   136c8:	8b 45 f4             	mov    -0xc(%ebp),%eax
   136cb:	01 d8                	add    %ebx,%eax
   136cd:	83 c0 1b             	add    $0x1b,%eax
   136d0:	0f b6 00             	movzbl (%eax),%eax
   136d3:	0f b6 c0             	movzbl %al,%eax
   136d6:	83 ec 08             	sub    $0x8,%esp
   136d9:	50                   	push   %eax
   136da:	68 6d 8a 01 00       	push   $0x18a6d
   136df:	e8 6f df ff ff       	call   11653 <__cio_printf>
   136e4:	83 c4 10             	add    $0x10,%esp
   136e7:	83 45 f4 01          	addl   $0x1,-0xc(%ebp)
   136eb:	8b 45 f4             	mov    -0xc(%ebp),%eax
   136ee:	83 f8 04             	cmp    $0x4,%eax
   136f1:	76 d5                	jbe    136c8 <_pcb_dump+0xca>
   136f3:	83 ec 0c             	sub    $0xc,%esp
   136f6:	6a 0a                	push   $0xa
   136f8:	e8 9c d7 ff ff       	call   10e99 <__cio_putchar>
   136fd:	83 c4 10             	add    $0x10,%esp
   13700:	8d 65 f8             	lea    -0x8(%ebp),%esp
   13703:	5b                   	pop    %ebx
   13704:	5e                   	pop    %esi
   13705:	5d                   	pop    %ebp
   13706:	c3                   	ret    

00013707 <_ctx_dump>:
   13707:	55                   	push   %ebp
   13708:	89 e5                	mov    %esp,%ebp
   1370a:	57                   	push   %edi
   1370b:	56                   	push   %esi
   1370c:	53                   	push   %ebx
   1370d:	83 ec 1c             	sub    $0x1c,%esp
   13710:	8b 5d 0c             	mov    0xc(%ebp),%ebx
   13713:	83 7d 08 00          	cmpl   $0x0,0x8(%ebp)
   13717:	74 0e                	je     13727 <_ctx_dump+0x20>
   13719:	83 ec 0c             	sub    $0xc,%esp
   1371c:	ff 75 08             	pushl  0x8(%ebp)
   1371f:	e8 b5 d8 ff ff       	call   10fd9 <__cio_puts>
   13724:	83 c4 10             	add    $0x10,%esp
   13727:	89 d8                	mov    %ebx,%eax
   13729:	83 ec 08             	sub    $0x8,%esp
   1372c:	50                   	push   %eax
   1372d:	68 fe 89 01 00       	push   $0x189fe
   13732:	e8 1c df ff ff       	call   11653 <__cio_printf>
   13737:	83 c4 10             	add    $0x10,%esp
   1373a:	85 db                	test   %ebx,%ebx
   1373c:	75 15                	jne    13753 <_ctx_dump+0x4c>
   1373e:	83 ec 0c             	sub    $0xc,%esp
   13741:	68 08 8a 01 00       	push   $0x18a08
   13746:	e8 8e d8 ff ff       	call   10fd9 <__cio_puts>
   1374b:	83 c4 10             	add    $0x10,%esp
   1374e:	e9 9e 00 00 00       	jmp    137f1 <_ctx_dump+0xea>
   13753:	8b 43 40             	mov    0x40(%ebx),%eax
   13756:	0f b6 c0             	movzbl %al,%eax
   13759:	89 45 e4             	mov    %eax,-0x1c(%ebp)
   1375c:	8b 43 10             	mov    0x10(%ebx),%eax
   1375f:	0f b6 f8             	movzbl %al,%edi
   13762:	8b 43 0c             	mov    0xc(%ebx),%eax
   13765:	0f b6 f0             	movzbl %al,%esi
   13768:	8b 43 08             	mov    0x8(%ebx),%eax
   1376b:	0f b6 c8             	movzbl %al,%ecx
   1376e:	8b 43 04             	mov    0x4(%ebx),%eax
   13771:	0f b6 d0             	movzbl %al,%edx
   13774:	8b 03                	mov    (%ebx),%eax
   13776:	0f b6 c0             	movzbl %al,%eax
   13779:	83 ec 04             	sub    $0x4,%esp
   1377c:	ff 75 e4             	pushl  -0x1c(%ebp)
   1377f:	57                   	push   %edi
   13780:	56                   	push   %esi
   13781:	51                   	push   %ecx
   13782:	52                   	push   %edx
   13783:	50                   	push   %eax
   13784:	68 74 8a 01 00       	push   $0x18a74
   13789:	e8 c5 de ff ff       	call   11653 <__cio_printf>
   1378e:	83 c4 20             	add    $0x20,%esp
   13791:	8b 73 20             	mov    0x20(%ebx),%esi
   13794:	8b 4b 1c             	mov    0x1c(%ebx),%ecx
   13797:	8b 53 18             	mov    0x18(%ebx),%edx
   1379a:	8b 43 14             	mov    0x14(%ebx),%eax
   1379d:	83 ec 0c             	sub    $0xc,%esp
   137a0:	56                   	push   %esi
   137a1:	51                   	push   %ecx
   137a2:	52                   	push   %edx
   137a3:	50                   	push   %eax
   137a4:	68 a8 8a 01 00       	push   $0x18aa8
   137a9:	e8 a5 de ff ff       	call   11653 <__cio_printf>
   137ae:	83 c4 20             	add    $0x20,%esp
   137b1:	8b 73 30             	mov    0x30(%ebx),%esi
   137b4:	8b 4b 2c             	mov    0x2c(%ebx),%ecx
   137b7:	8b 53 28             	mov    0x28(%ebx),%edx
   137ba:	8b 43 24             	mov    0x24(%ebx),%eax
   137bd:	83 ec 0c             	sub    $0xc,%esp
   137c0:	56                   	push   %esi
   137c1:	51                   	push   %ecx
   137c2:	52                   	push   %edx
   137c3:	50                   	push   %eax
   137c4:	68 d0 8a 01 00       	push   $0x18ad0
   137c9:	e8 85 de ff ff       	call   11653 <__cio_printf>
   137ce:	83 c4 20             	add    $0x20,%esp
   137d1:	8b 73 44             	mov    0x44(%ebx),%esi
   137d4:	8b 4b 3c             	mov    0x3c(%ebx),%ecx
   137d7:	8b 53 38             	mov    0x38(%ebx),%edx
   137da:	8b 43 34             	mov    0x34(%ebx),%eax
   137dd:	83 ec 0c             	sub    $0xc,%esp
   137e0:	56                   	push   %esi
   137e1:	51                   	push   %ecx
   137e2:	52                   	push   %edx
   137e3:	50                   	push   %eax
   137e4:	68 f8 8a 01 00       	push   $0x18af8
   137e9:	e8 65 de ff ff       	call   11653 <__cio_printf>
   137ee:	83 c4 20             	add    $0x20,%esp
   137f1:	8d 65 f4             	lea    -0xc(%ebp),%esp
   137f4:	5b                   	pop    %ebx
   137f5:	5e                   	pop    %esi
   137f6:	5f                   	pop    %edi
   137f7:	5d                   	pop    %ebp
   137f8:	c3                   	ret    

000137f9 <_ctx_dump_all>:
   137f9:	55                   	push   %ebp
   137fa:	89 e5                	mov    %esp,%ebp
   137fc:	83 ec 18             	sub    $0x18,%esp
   137ff:	83 7d 08 00          	cmpl   $0x0,0x8(%ebp)
   13803:	74 0e                	je     13813 <_ctx_dump_all+0x1a>
   13805:	83 ec 0c             	sub    $0xc,%esp
   13808:	ff 75 08             	pushl  0x8(%ebp)
   1380b:	e8 c9 d7 ff ff       	call   10fd9 <__cio_puts>
   13810:	83 c4 10             	add    $0x10,%esp
   13813:	a1 c0 fe 01 00       	mov    0x1fec0,%eax
   13818:	83 ec 08             	sub    $0x8,%esp
   1381b:	50                   	push   %eax
   1381c:	68 22 8b 01 00       	push   $0x18b22
   13821:	e8 2d de ff ff       	call   11653 <__cio_printf>
   13826:	83 c4 10             	add    $0x10,%esp
   13829:	a1 c0 fe 01 00       	mov    0x1fec0,%eax
   1382e:	85 c0                	test   %eax,%eax
   13830:	74 67                	je     13899 <_ctx_dump_all+0xa0>
   13832:	c7 45 f4 00 00 00 00 	movl   $0x0,-0xc(%ebp)
   13839:	c7 45 f0 00 00 00 00 	movl   $0x0,-0x10(%ebp)
   13840:	eb 4f                	jmp    13891 <_ctx_dump_all+0x98>
   13842:	8b 45 f0             	mov    -0x10(%ebp),%eax
   13845:	8b 04 85 e0 fe 01 00 	mov    0x1fee0(,%eax,4),%eax
   1384c:	89 45 ec             	mov    %eax,-0x14(%ebp)
   1384f:	83 7d ec 00          	cmpl   $0x0,-0x14(%ebp)
   13853:	74 38                	je     1388d <_ctx_dump_all+0x94>
   13855:	8b 45 ec             	mov    -0x14(%ebp),%eax
   13858:	0f b6 40 18          	movzbl 0x18(%eax),%eax
   1385c:	84 c0                	test   %al,%al
   1385e:	74 2d                	je     1388d <_ctx_dump_all+0x94>
   13860:	83 45 f4 01          	addl   $0x1,-0xc(%ebp)
   13864:	83 ec 04             	sub    $0x4,%esp
   13867:	ff 75 f0             	pushl  -0x10(%ebp)
   1386a:	ff 75 f4             	pushl  -0xc(%ebp)
   1386d:	68 38 8b 01 00       	push   $0x18b38
   13872:	e8 dc dd ff ff       	call   11653 <__cio_printf>
   13877:	83 c4 10             	add    $0x10,%esp
   1387a:	8b 45 ec             	mov    -0x14(%ebp),%eax
   1387d:	8b 00                	mov    (%eax),%eax
   1387f:	83 ec 08             	sub    $0x8,%esp
   13882:	50                   	push   %eax
   13883:	6a 00                	push   $0x0
   13885:	e8 7d fe ff ff       	call   13707 <_ctx_dump>
   1388a:	83 c4 10             	add    $0x10,%esp
   1388d:	83 45 f0 01          	addl   $0x1,-0x10(%ebp)
   13891:	83 7d f0 18          	cmpl   $0x18,-0x10(%ebp)
   13895:	7e ab                	jle    13842 <_ctx_dump_all+0x49>
   13897:	eb 01                	jmp    1389a <_ctx_dump_all+0xa1>
   13899:	90                   	nop
   1389a:	c9                   	leave  
   1389b:	c3                   	ret    

0001389c <_ptable_dump>:
   1389c:	55                   	push   %ebp
   1389d:	89 e5                	mov    %esp,%ebp
   1389f:	56                   	push   %esi
   138a0:	53                   	push   %ebx
   138a1:	83 ec 20             	sub    $0x20,%esp
   138a4:	8b 45 0c             	mov    0xc(%ebp),%eax
   138a7:	88 45 e4             	mov    %al,-0x1c(%ebp)
   138aa:	83 7d 08 00          	cmpl   $0x0,0x8(%ebp)
   138ae:	74 0e                	je     138be <_ptable_dump+0x22>
   138b0:	83 ec 0c             	sub    $0xc,%esp
   138b3:	ff 75 08             	pushl  0x8(%ebp)
   138b6:	e8 1e d7 ff ff       	call   10fd9 <__cio_puts>
   138bb:	83 c4 10             	add    $0x10,%esp
   138be:	83 ec 0c             	sub    $0xc,%esp
   138c1:	6a 20                	push   $0x20
   138c3:	e8 d1 d5 ff ff       	call   10e99 <__cio_putchar>
   138c8:	83 c4 10             	add    $0x10,%esp
   138cb:	c7 45 f4 00 00 00 00 	movl   $0x0,-0xc(%ebp)
   138d2:	c7 45 f0 00 00 00 00 	movl   $0x0,-0x10(%ebp)
   138d9:	c7 45 ec 00 00 00 00 	movl   $0x0,-0x14(%ebp)
   138e0:	e9 bd 00 00 00       	jmp    139a2 <_ptable_dump+0x106>
   138e5:	8b 45 ec             	mov    -0x14(%ebp),%eax
   138e8:	8b 1c 85 e0 fe 01 00 	mov    0x1fee0(,%eax,4),%ebx
   138ef:	85 db                	test   %ebx,%ebx
   138f1:	75 09                	jne    138fc <_ptable_dump+0x60>
   138f3:	83 45 f0 01          	addl   $0x1,-0x10(%ebp)
   138f7:	e9 a2 00 00 00       	jmp    1399e <_ptable_dump+0x102>
   138fc:	83 45 f4 01          	addl   $0x1,-0xc(%ebp)
   13900:	80 7d e4 00          	cmpb   $0x0,-0x1c(%ebp)
   13904:	75 13                	jne    13919 <_ptable_dump+0x7d>
   13906:	83 7d f4 00          	cmpl   $0x0,-0xc(%ebp)
   1390a:	74 0d                	je     13919 <_ptable_dump+0x7d>
   1390c:	83 ec 0c             	sub    $0xc,%esp
   1390f:	6a 2c                	push   $0x2c
   13911:	e8 83 d5 ff ff       	call   10e99 <__cio_putchar>
   13916:	83 c4 10             	add    $0x10,%esp
   13919:	0f b7 43 16          	movzwl 0x16(%ebx),%eax
   1391d:	0f b7 d0             	movzwl %ax,%edx
   13920:	0f b7 43 14          	movzwl 0x14(%ebx),%eax
   13924:	0f b7 c0             	movzwl %ax,%eax
   13927:	52                   	push   %edx
   13928:	50                   	push   %eax
   13929:	ff 75 ec             	pushl  -0x14(%ebp)
   1392c:	68 43 8b 01 00       	push   $0x18b43
   13931:	e8 1d dd ff ff       	call   11653 <__cio_printf>
   13936:	83 c4 10             	add    $0x10,%esp
   13939:	0f b6 43 18          	movzbl 0x18(%ebx),%eax
   1393d:	3c 08                	cmp    $0x8,%al
   1393f:	76 12                	jbe    13953 <_ptable_dump+0xb7>
   13941:	83 ec 0c             	sub    $0xc,%esp
   13944:	68 4f 8b 01 00       	push   $0x18b4f
   13949:	e8 05 dd ff ff       	call   11653 <__cio_printf>
   1394e:	83 c4 10             	add    $0x10,%esp
   13951:	eb 1f                	jmp    13972 <_ptable_dump+0xd6>
   13953:	0f b6 43 18          	movzbl 0x18(%ebx),%eax
   13957:	0f b6 c0             	movzbl %al,%eax
   1395a:	8b 04 c5 24 d5 01 00 	mov    0x1d524(,%eax,8),%eax
   13961:	83 ec 08             	sub    $0x8,%esp
   13964:	50                   	push   %eax
   13965:	68 58 8b 01 00       	push   $0x18b58
   1396a:	e8 e4 dc ff ff       	call   11653 <__cio_printf>
   1396f:	83 c4 10             	add    $0x10,%esp
   13972:	80 7d e4 00          	cmpb   $0x0,-0x1c(%ebp)
   13976:	74 26                	je     1399e <_ptable_dump+0x102>
   13978:	8b 03                	mov    (%ebx),%eax
   1397a:	8b 48 3c             	mov    0x3c(%eax),%ecx
   1397d:	8b 03                	mov    (%ebx),%eax
   1397f:	8b 50 20             	mov    0x20(%eax),%edx
   13982:	8b 43 04             	mov    0x4(%ebx),%eax
   13985:	89 c6                	mov    %eax,%esi
   13987:	8b 43 0c             	mov    0xc(%ebx),%eax
   1398a:	83 ec 0c             	sub    $0xc,%esp
   1398d:	51                   	push   %ecx
   1398e:	52                   	push   %edx
   1398f:	56                   	push   %esi
   13990:	50                   	push   %eax
   13991:	68 5c 8b 01 00       	push   $0x18b5c
   13996:	e8 b8 dc ff ff       	call   11653 <__cio_printf>
   1399b:	83 c4 20             	add    $0x20,%esp
   1399e:	83 45 ec 01          	addl   $0x1,-0x14(%ebp)
   139a2:	83 7d ec 18          	cmpl   $0x18,-0x14(%ebp)
   139a6:	0f 8e 39 ff ff ff    	jle    138e5 <_ptable_dump+0x49>
   139ac:	80 7d e4 00          	cmpb   $0x0,-0x1c(%ebp)
   139b0:	75 0d                	jne    139bf <_ptable_dump+0x123>
   139b2:	83 ec 0c             	sub    $0xc,%esp
   139b5:	6a 0a                	push   $0xa
   139b7:	e8 dd d4 ff ff       	call   10e99 <__cio_putchar>
   139bc:	83 c4 10             	add    $0x10,%esp
   139bf:	8b 55 f4             	mov    -0xc(%ebp),%edx
   139c2:	8b 45 f0             	mov    -0x10(%ebp),%eax
   139c5:	01 d0                	add    %edx,%eax
   139c7:	83 f8 19             	cmp    $0x19,%eax
   139ca:	74 21                	je     139ed <_ptable_dump+0x151>
   139cc:	8b 55 f4             	mov    -0xc(%ebp),%edx
   139cf:	8b 45 f0             	mov    -0x10(%ebp),%eax
   139d2:	01 d0                	add    %edx,%eax
   139d4:	83 ec 0c             	sub    $0xc,%esp
   139d7:	50                   	push   %eax
   139d8:	ff 75 f0             	pushl  -0x10(%ebp)
   139db:	ff 75 f4             	pushl  -0xc(%ebp)
   139de:	6a 19                	push   $0x19
   139e0:	68 84 8b 01 00       	push   $0x18b84
   139e5:	e8 69 dc ff ff       	call   11653 <__cio_printf>
   139ea:	83 c4 20             	add    $0x20,%esp
   139ed:	90                   	nop
   139ee:	8d 65 f8             	lea    -0x8(%ebp),%esp
   139f1:	5b                   	pop    %ebx
   139f2:	5e                   	pop    %esi
   139f3:	5d                   	pop    %ebp
   139f4:	c3                   	ret    

000139f5 <_qn_free>:
   139f5:	55                   	push   %ebp
   139f6:	89 e5                	mov    %esp,%ebp
   139f8:	83 ec 18             	sub    $0x18,%esp
   139fb:	83 7d 08 00          	cmpl   $0x0,0x8(%ebp)
   139ff:	75 38                	jne    13a39 <_qn_free+0x44>
   13a01:	83 ec 04             	sub    $0x4,%esp
   13a04:	68 dc 8b 01 00       	push   $0x18bdc
   13a09:	6a 01                	push   $0x1
   13a0b:	6a 6a                	push   $0x6a
   13a0d:	68 e6 8b 01 00       	push   $0x18be6
   13a12:	68 e0 8c 01 00       	push   $0x18ce0
   13a17:	68 ef 8b 01 00       	push   $0x18bef
   13a1c:	68 a0 f7 01 00       	push   $0x1f7a0
   13a21:	e8 8f e1 ff ff       	call   11bb5 <__sprint>
   13a26:	83 c4 20             	add    $0x20,%esp
   13a29:	83 ec 0c             	sub    $0xc,%esp
   13a2c:	68 a0 f7 01 00       	push   $0x1f7a0
   13a31:	e8 6f ef ff ff       	call   129a5 <_kpanic>
